 PhysX_64

 Timestamp is 6a1a45b1 (Sat May 30 11:04:33 2026)

 Preferred load address is 0000000180000000

 Start         Length     Name                   Class
 0001:00000000 00002da0H .text$di                CODE
 0001:00002da0 00169d40H .text$mn                CODE
 0001:0016cae0 00000036H .text$mn$00             CODE
 0001:0016cb16 00000092H .text$x                 CODE
 0002:00000000 000001e8H .idata$5                DATA
 0002:000001e8 00000038H .00cfg                  DATA
 0002:00000220 00000008H .CRT$XCA                DATA
 0002:00000228 00001690H .CRT$XCU                DATA
 0002:000018b8 00000008H .CRT$XCZ                DATA
 0002:000018c0 00000008H .CRT$XIA                DATA
 0002:000018c8 00000008H .CRT$XIZ                DATA
 0002:000018d0 00000008H .CRT$XPA                DATA
 0002:000018d8 00000008H .CRT$XPZ                DATA
 0002:000018e0 00000008H .CRT$XTA                DATA
 0002:000018e8 00000008H .CRT$XTZ                DATA
 0002:000018f0 00000000H .gehcont$y              DATA
 0002:000018f0 00000000H .gfids$y                DATA
 0002:000018f0 00012010H .rdata                  DATA
 0002:00013900 00000000H .rdata$CastGuardVftablesA DATA
 0002:00013900 00000000H .rdata$CastGuardVftablesC DATA
 0002:00013900 00000074H .rdata$r                DATA
 0002:00013974 00000934H .rdata$voltmd           DATA
 0002:000142a8 000003d8H .rdata$zzzdbg           DATA
 0002:00014680 00000008H .rtc$IAA                DATA
 0002:00014688 00000008H .rtc$IZZ                DATA
 0002:00014690 00000008H .rtc$TAA                DATA
 0002:00014698 00000008H .rtc$TZZ                DATA
 0002:000146a0 00017090H .xdata                  DATA
 0002:0002b730 00000040H .didat$2                DATA
 0002:0002b770 00000020H .didat$3                DATA
 0002:0002b790 00000668H .didat$4                DATA
 0002:0002bdf8 000047e8H .didat$6                DATA
 0002:000305e0 00000810H .didat$7                DATA
 0002:00030df0 000028d8H .edata                  DATA
 0002:000336c8 0000008cH .idata$2                DATA
 0002:00033754 00000014H .idata$3                DATA
 0002:00033768 000001e8H .idata$4                DATA
 0002:00033950 000004b6H .idata$6                DATA
 0003:00000000 00000ae0H .data                   DATA
 0003:00000ae0 00002e40H .data$r                 DATA
 0003:00003920 00000020H .data$rs                DATA
 0003:00003940 00000670H .didat$5                DATA
 0003:00003fb0 00002f98H .bss                    DATA
 0004:00000000 00011df0H .pdata                  DATA
 0005:00000000 00002208H _RDATA                  DATA
 0006:00000000 000000a0H .rsrc$01                DATA
 0006:000000a0 00000488H .rsrc$02                DATA

  Address         Publics by Value              Rva+Base               Lib:Object

 0000:00000000       __AbsoluteZero             0000000000000000     <absolute>
 0000:00000000       ___safe_se_handler_count   0000000000000000     <absolute>
 0000:00000000       ___safe_se_handler_table   0000000000000000     <absolute>
 0000:00000000       __arm64x_extra_rfe_table   0000000000000000     <absolute>
 0000:00000000       __arm64x_extra_rfe_table_size 0000000000000000     <absolute>
 0000:00000000       __arm64x_native_entrypoint 0000000000000000     <absolute>
 0000:00000000       __arm64x_redirection_metadata 0000000000000000     <absolute>
 0000:00000000       __arm64x_redirection_metadata_count 0000000000000000     <absolute>
 0000:00000000       __dynamic_value_reloc_table 0000000000000000     <absolute>
 0000:00000000       __enclave_config           0000000000000000     <absolute>
 0000:00000000       __guard_check_icall_a64n_fptr 0000000000000000     <absolute>
 0000:00000000       __guard_eh_cont_count      0000000000000000     <absolute>
 0000:00000000       __guard_eh_cont_table      0000000000000000     <absolute>
 0000:00000000       __guard_fids_count         0000000000000000     <absolute>
 0000:00000000       __guard_fids_table         0000000000000000     <absolute>
 0000:00000000       __guard_iat_count          0000000000000000     <absolute>
 0000:00000000       __guard_iat_table          0000000000000000     <absolute>
 0000:00000000       __guard_longjmp_count      0000000000000000     <absolute>
 0000:00000000       __guard_longjmp_table      0000000000000000     <absolute>
 0000:00000000       __hybrid_auxiliary_delayload_iat 0000000000000000     <absolute>
 0000:00000000       __hybrid_auxiliary_delayload_iat_copy 0000000000000000     <absolute>
 0000:00000000       __hybrid_auxiliary_iat     0000000000000000     <absolute>
 0000:00000000       __hybrid_auxiliary_iat_copy 0000000000000000     <absolute>
 0000:00000000       __hybrid_code_map          0000000000000000     <absolute>
 0000:00000000       __hybrid_code_map_count    0000000000000000     <absolute>
 0000:00000000       __hybrid_image_info_bitfield 0000000000000000     <absolute>
 0000:00000000       __x64_code_ranges_to_entry_points 0000000000000000     <absolute>
 0000:00000000       __x64_code_ranges_to_entry_points_count 0000000000000000     <absolute>
 0000:00000100       __guard_flags              0000000000000100     <absolute>
 0000:00000000       __ImageBase                0000000180000000     <linker-defined>
 0001:00002da0       ??0PxActorGeneratedInfo@physx@@QEAA@XZ 0000000180003da0 f   PxAutoGeneratedMetaDataObjects.obj
 0001:00002ed0       ??0PxActorGeneratedValues@physx@@QEAA@PEBVPxActor@1@@Z 0000000180003ed0 f   PxAutoGeneratedMetaDataObjects.obj
 0001:00002f50       ??0PxAggregateGeneratedInfo@physx@@QEAA@XZ 0000000180003f50 f   PxAutoGeneratedMetaDataObjects.obj
 0001:00002fe0       ??0PxAggregateGeneratedValues@physx@@QEAA@PEBVPxAggregate@1@@Z 0000000180003fe0 f   PxAutoGeneratedMetaDataObjects.obj
 0001:00003030       ??0PxArticulationBaseGeneratedInfo@physx@@QEAA@XZ 0000000180004030 f   PxAutoGeneratedMetaDataObjects.obj
 0001:00003200       ??0PxArticulationBaseGeneratedValues@physx@@QEAA@PEBVPxArticulationBase@1@@Z 0000000180004200 f   PxAutoGeneratedMetaDataObjects.obj
 0001:000032a0       ??0PxArticulationGeneratedInfo@physx@@QEAA@XZ 00000001800042a0 f   PxAutoGeneratedMetaDataObjects.obj
 0001:00003390       ??0PxArticulationGeneratedValues@physx@@QEAA@PEBVPxArticulation@1@@Z 0000000180004390 f   PxAutoGeneratedMetaDataObjects.obj
 0001:00003400       ??0PxArticulationJointBaseGeneratedInfo@physx@@QEAA@XZ 0000000180004400 f   PxAutoGeneratedMetaDataObjects.obj
 0001:00003460       ??0PxArticulationJointBaseGeneratedValues@physx@@QEAA@PEBVPxArticulationJointBase@1@@Z 0000000180004460 f   PxAutoGeneratedMetaDataObjects.obj
 0001:000034a0       ??0PxArticulationJointGeneratedInfo@physx@@QEAA@XZ 00000001800044a0 f   PxAutoGeneratedMetaDataObjects.obj
 0001:00003850       ??0PxArticulationJointGeneratedValues@physx@@QEAA@PEBVPxArticulationJoint@1@@Z 0000000180004850 f   PxAutoGeneratedMetaDataObjects.obj
 0001:000039a0       ??0PxArticulationJointReducedCoordinateGeneratedInfo@physx@@QEAA@XZ 00000001800049a0 f   PxAutoGeneratedMetaDataObjects.obj
 0001:00003ae0       ??0PxArticulationJointReducedCoordinateGeneratedValues@physx@@QEAA@PEBVPxArticulationJointReducedCoordinate@1@@Z 0000000180004ae0 f   PxAutoGeneratedMetaDataObjects.obj
 0001:00003bd0       ??0PxArticulationLinkGeneratedInfo@physx@@QEAA@XZ 0000000180004bd0 f   PxAutoGeneratedMetaDataObjects.obj
 0001:00003cc0       ??0PxArticulationLinkGeneratedValues@physx@@QEAA@PEBVPxArticulationLink@1@@Z 0000000180004cc0 f   PxAutoGeneratedMetaDataObjects.obj
 0001:00003d30       ??0PxArticulationReducedCoordinateGeneratedInfo@physx@@QEAA@XZ 0000000180004d30 f   PxAutoGeneratedMetaDataObjects.obj
 0001:00003df0       ??0PxArticulationReducedCoordinateGeneratedValues@physx@@QEAA@PEBVPxArticulationReducedCoordinate@1@@Z 0000000180004df0 f   PxAutoGeneratedMetaDataObjects.obj
 0001:00003e50       ??0PxBoxGeometryGeneratedInfo@physx@@QEAA@XZ 0000000180004e50 f   PxAutoGeneratedMetaDataObjects.obj
 0001:00003e80       ??0PxBoxGeometryGeneratedValues@physx@@QEAA@PEBVPxBoxGeometry@1@@Z 0000000180004e80 f   PxAutoGeneratedMetaDataObjects.obj
 0001:00003e80       ?getPxBoxGeometryHalfExtents@@YA?AVPxVec3@physx@@PEBVPxBoxGeometry@2@@Z 0000000180004e80 f   PxAutoGeneratedMetaDataObjects.obj
 0001:00003ea0       ??0PxCapsuleGeometryGeneratedInfo@physx@@QEAA@XZ 0000000180004ea0 f   PxAutoGeneratedMetaDataObjects.obj
 0001:00003f00       ??0PxCapsuleGeometryGeneratedValues@physx@@QEAA@PEBVPxCapsuleGeometry@1@@Z 0000000180004f00 f   PxAutoGeneratedMetaDataObjects.obj
 0001:00003f10       ??0PxConstraintGeneratedInfo@physx@@QEAA@XZ 0000000180004f10 f   PxAutoGeneratedMetaDataObjects.obj
 0001:00004060       ??0PxConstraintGeneratedValues@physx@@QEAA@PEBVPxConstraint@1@@Z 0000000180005060 f   PxAutoGeneratedMetaDataObjects.obj
 0001:000040f0       ??0PxConvexMeshGeometryGeneratedInfo@physx@@QEAA@XZ 00000001800050f0 f   PxAutoGeneratedMetaDataObjects.obj
 0001:00004170       ??0PxConvexMeshGeometryGeneratedValues@physx@@QEAA@PEBVPxConvexMeshGeometry@1@@Z 0000000180005170 f   PxAutoGeneratedMetaDataObjects.obj
 0001:000041b0       ??0Allocator@shdfnd@physx@@QEAA@PEBD@Z 00000001800051b0 f   PxMetaDataObjects.obj
 0001:000041b0       ??0PxGeometryGeneratedInfo@physx@@QEAA@XZ 00000001800051b0 f   PxAutoGeneratedMetaDataObjects.obj
 0001:000041b0       ??0PxGeometryGeneratedValues@physx@@QEAA@PEBVPxGeometry@1@@Z 00000001800051b0 f   PxAutoGeneratedMetaDataObjects.obj
 0001:000041b0       ??0PxPlaneGeometryGeneratedInfo@physx@@QEAA@XZ 00000001800051b0 f   PxAutoGeneratedMetaDataObjects.obj
 0001:000041b0       ??0PxPlaneGeometryGeneratedValues@physx@@QEAA@PEBVPxPlaneGeometry@1@@Z 00000001800051b0 f   PxAutoGeneratedMetaDataObjects.obj
 0001:000041b0       ??4Allocator@shdfnd@physx@@QEAAAEAV012@$$QEAV012@@Z 00000001800051b0 f   PxMetaDataObjects.obj
 0001:000041b0       ??4Allocator@shdfnd@physx@@QEAAAEAV012@AEBV012@@Z 00000001800051b0 f   PxMetaDataObjects.obj
 0001:000041b0       ??4MutexImpl@shdfnd@physx@@QEAAAEAV012@AEBV012@@Z 00000001800051b0 f   PxMetaDataObjects.obj
 0001:000041b0       ??4PxFoundation@physx@@QEAAAEAV01@AEBV01@@Z 00000001800051b0 f   PxMetaDataObjects.obj
 0001:000041b0       ??4SyncImpl@shdfnd@physx@@QEAAAEAV012@AEBV012@@Z 00000001800051b0 f   NpActor.obj
 0001:000041b0       ??4ThreadImpl@shdfnd@physx@@QEAAAEAV012@AEBV012@@Z 00000001800051b0 f   NpActor.obj
 0001:000041c0       ??0PxHeightFieldDescGeneratedInfo@physx@@QEAA@XZ 00000001800051c0 f   PxAutoGeneratedMetaDataObjects.obj
 0001:000042d0       ??0PxHeightFieldDescGeneratedValues@physx@@QEAA@PEBVPxHeightFieldDesc@1@@Z 00000001800052d0 f   PxAutoGeneratedMetaDataObjects.obj
 0001:00004300       ??0PxHeightFieldGeometryGeneratedInfo@physx@@QEAA@XZ 0000000180005300 f   PxAutoGeneratedMetaDataObjects.obj
 0001:000043e0       ??0PxHeightFieldGeometryGeneratedValues@physx@@QEAA@PEBVPxHeightFieldGeometry@1@@Z 00000001800053e0 f   PxAutoGeneratedMetaDataObjects.obj
 0001:00004410       ??0PxMaterialGeneratedInfo@physx@@QEAA@XZ 0000000180005410 f   PxAutoGeneratedMetaDataObjects.obj
 0001:000045a0       ??0PxMaterialGeneratedValues@physx@@QEAA@PEBVPxMaterial@1@@Z 00000001800055a0 f   PxAutoGeneratedMetaDataObjects.obj
 0001:00004640       ??0PxMeshScaleGeneratedInfo@physx@@QEAA@XZ 0000000180005640 f   PxAutoGeneratedMetaDataObjects.obj
 0001:000046a0       ??0PxMeshScaleGeneratedValues@physx@@QEAA@PEBVPxMeshScale@1@@Z 00000001800056a0 f   PxAutoGeneratedMetaDataObjects.obj
 0001:000046d0       ??0PxPhysicsGeneratedInfo@physx@@QEAA@XZ 00000001800056d0 f   PxAutoGeneratedMetaDataObjects.obj
 0001:00004880       ??0PxPhysicsGeneratedValues@physx@@QEAA@PEBVPxPhysics@1@@Z 0000000180005880 f   PxAutoGeneratedMetaDataObjects.obj
 0001:00004880       ?getPxPhysics_TolerancesScale@@YA?BVPxTolerancesScale@physx@@PEBVPxPhysics@2@@Z 0000000180005880 f   PxAutoGeneratedMetaDataObjects.obj
 0001:000048b0       ??0PxPruningStructureGeneratedInfo@physx@@QEAA@XZ 00000001800058b0 f   PxAutoGeneratedMetaDataObjects.obj
 0001:00004900       ??0PxPruningStructureGeneratedValues@physx@@QEAA@PEBVPxPruningStructure@1@@Z 0000000180005900 f   PxAutoGeneratedMetaDataObjects.obj
 0001:00004920       ??0PxRigidActorGeneratedInfo@physx@@QEAA@XZ 0000000180005920 f   PxAutoGeneratedMetaDataObjects.obj
 0001:000049e0       ??0PxRigidActorGeneratedValues@physx@@QEAA@PEBVPxRigidActor@1@@Z 00000001800059e0 f   PxAutoGeneratedMetaDataObjects.obj
 0001:00004a20       ??0PxRigidBodyGeneratedInfo@physx@@QEAA@XZ 0000000180005a20 f   PxAutoGeneratedMetaDataObjects.obj
 0001:00004d30       ??0PxRigidBodyGeneratedValues@physx@@QEAA@PEBVPxRigidBody@1@@Z 0000000180005d30 f   PxAutoGeneratedMetaDataObjects.obj
 0001:00004e80       ??0PxRigidDynamicGeneratedInfo@physx@@QEAA@XZ 0000000180005e80 f   PxAutoGeneratedMetaDataObjects.obj
 0001:00005040       ??0PxRigidDynamicGeneratedValues@physx@@QEAA@PEBVPxRigidDynamic@1@@Z 0000000180006040 f   PxAutoGeneratedMetaDataObjects.obj
 0001:00005110       ??0PxRigidStaticGeneratedInfo@physx@@QEAA@XZ 0000000180006110 f   PxAutoGeneratedMetaDataObjects.obj
 0001:00005150       ??0PxRigidStaticGeneratedValues@physx@@QEAA@PEBVPxRigidStatic@1@@Z 0000000180006150 f   PxAutoGeneratedMetaDataObjects.obj
 0001:00005190       ??0PxSceneDescGeneratedInfo@physx@@QEAA@XZ 0000000180006190 f   PxAutoGeneratedMetaDataObjects.obj
 0001:000059b0       ??0PxSceneDescGeneratedValues@physx@@QEAA@PEBVPxSceneDesc@1@@Z 00000001800069b0 f   PxAutoGeneratedMetaDataObjects.obj
 0001:00005bc0       ??0PxSceneGeneratedInfo@physx@@QEAA@XZ 0000000180006bc0 f   PxAutoGeneratedMetaDataObjects.obj
 0001:00006290       ??0PxSceneGeneratedValues@physx@@QEAA@PEBVPxScene@1@@Z 0000000180007290 f   PxAutoGeneratedMetaDataObjects.obj
 0001:000065b0       ??0PxSceneLimitsGeneratedInfo@physx@@QEAA@XZ 00000001800075b0 f   PxAutoGeneratedMetaDataObjects.obj
 0001:00006730       ??0PxSceneLimitsGeneratedValues@physx@@QEAA@PEBVPxSceneLimits@1@@Z 0000000180007730 f   PxAutoGeneratedMetaDataObjects.obj
 0001:00006730       ??0PxgDynamicsMemoryConfigGeneratedValues@physx@@QEAA@PEBUPxgDynamicsMemoryConfig@1@@Z 0000000180007730 f   PxAutoGeneratedMetaDataObjects.obj
 0001:00006770       ??0PxShapeGeneratedInfo@physx@@QEAA@XZ 0000000180007770 f   PxAutoGeneratedMetaDataObjects.obj
 0001:00006a40       ??0PxShapeGeneratedValues@physx@@QEAA@PEBVPxShape@1@@Z 0000000180007a40 f   PxAutoGeneratedMetaDataObjects.obj
 0001:00006b50       ??0PxSimulationStatisticsGeneratedInfo@physx@@QEAA@XZ 0000000180007b50 f   PxAutoGeneratedMetaDataObjects.obj
 0001:00006ff0       ??0PxSimulationStatisticsGeneratedValues@physx@@QEAA@PEBVPxSimulationStatistics@1@@Z 0000000180007ff0 f   PxAutoGeneratedMetaDataObjects.obj
 0001:000072d0       ??0PxSphereGeometryGeneratedInfo@physx@@QEAA@XZ 00000001800082d0 f   PxAutoGeneratedMetaDataObjects.obj
 0001:00007300       ??0PxSphereGeometryGeneratedValues@physx@@QEAA@PEBVPxSphereGeometry@1@@Z 0000000180008300 f   PxAutoGeneratedMetaDataObjects.obj
 0001:00007310       ??0PxTolerancesScaleGeneratedInfo@physx@@QEAA@XZ 0000000180008310 f   PxAutoGeneratedMetaDataObjects.obj
 0001:00007380       ??0PxTolerancesScaleGeneratedValues@physx@@QEAA@PEBVPxTolerancesScale@1@@Z 0000000180008380 f   PxAutoGeneratedMetaDataObjects.obj
 0001:000073a0       ??0PxTriangleMeshGeometryGeneratedInfo@physx@@QEAA@XZ 00000001800083a0 f   PxAutoGeneratedMetaDataObjects.obj
 0001:00007420       ??0PxTriangleMeshGeometryGeneratedValues@physx@@QEAA@PEBVPxTriangleMeshGeometry@1@@Z 0000000180008420 f   PxAutoGeneratedMetaDataObjects.obj
 0001:00007460       ??0PxgDynamicsMemoryConfigGeneratedInfo@physx@@QEAA@XZ 0000000180008460 f   PxAutoGeneratedMetaDataObjects.obj
 0001:000075e0       ?createPxPhysics_BVHStructures@@YAPEAVPxBVHStructure@physx@@PEAVPxPhysics@2@AEAVPxInputStream@2@@Z 00000001800085e0 f   PxAutoGeneratedMetaDataObjects.obj
 0001:000075e0       ?getPxActor_DominanceGroup@@YAEPEBVPxActor@physx@@@Z 00000001800085e0 f   PxAutoGeneratedMetaDataObjects.obj
 0001:000075e0       ?getPxArticulationBase_WakeCounter@@YAMPEBVPxArticulationBase@physx@@@Z 00000001800085e0 f   PxAutoGeneratedMetaDataObjects.obj
 0001:000075e0       ?getPxArticulationJointReducedCoordinate_JointType@@YA?AW4Enum@PxArticulationJointType@physx@@PEBVPxArticulationJointReducedCoordinate@3@@Z 00000001800085e0 f   PxAutoGeneratedMetaDataObjects.obj
 0001:000075e0       ?setPxConstraint_BreakForce@@YAXPEAVPxConstraint@physx@@MM@Z 00000001800085e0 f   PxAutoGeneratedMetaDataObjects.obj
 0001:000075f0       ?createPxPhysics_ConvexMeshes@@YAPEAVPxConvexMesh@physx@@PEAVPxPhysics@2@AEAVPxInputStream@2@@Z 00000001800085f0 f   PxAutoGeneratedMetaDataObjects.obj
 0001:000075f0       ?setPxArticulationBase_StabilizationThreshold@@YAXPEAVPxArticulationBase@physx@@M@Z 00000001800085f0 f   PxAutoGeneratedMetaDataObjects.obj
 0001:000075f0       ?setPxMaterial_Restitution@@YAXPEAVPxMaterial@physx@@M@Z 00000001800085f0 f   PxAutoGeneratedMetaDataObjects.obj
 0001:00007600       ?createPxPhysics_HeightFields@@YAPEAVPxHeightField@physx@@PEAVPxPhysics@2@AEAVPxInputStream@2@@Z 0000000180008600 f   PxAutoGeneratedMetaDataObjects.obj
 0001:00007600       ?getPxActor_Name@@YAPEBDPEBVPxActor@physx@@@Z 0000000180008600 f   PxAutoGeneratedMetaDataObjects.obj
 0001:00007600       ?getPxArticulationBase_IsSleeping@@YA_NPEBVPxArticulationBase@physx@@@Z 0000000180008600 f   PxAutoGeneratedMetaDataObjects.obj
 0001:00007600       ?getPxMaterial_DynamicFriction@@YAMPEBVPxMaterial@physx@@@Z 0000000180008600 f   PxAutoGeneratedMetaDataObjects.obj
 0001:00007600       ?setPxShape_Geometry@@YAXPEAVPxShape@physx@@AEBVPxGeometry@2@@Z 0000000180008600 f   PxAutoGeneratedMetaDataObjects.obj
 0001:00007610       ?createPxPhysics_Scenes@@YAPEAVPxScene@physx@@PEAVPxPhysics@2@AEBVPxSceneDesc@2@@Z 0000000180008610 f   PxAutoGeneratedMetaDataObjects.obj
 0001:00007610       ?getPxActor_Aggregate@@YAPEAVPxAggregate@physx@@PEBVPxActor@2@@Z 0000000180008610 f   PxAutoGeneratedMetaDataObjects.obj
 0001:00007610       ?getPxConstraint_MinResponseThreshold@@YAMPEBVPxConstraint@physx@@@Z 0000000180008610 f   PxAutoGeneratedMetaDataObjects.obj
 0001:00007610       ?getPxMaterial_FrictionCombineMode@@YA?AW4Enum@PxCombineMode@physx@@PEBVPxMaterial@3@@Z 0000000180008610 f   PxAutoGeneratedMetaDataObjects.obj
 0001:00007610       ?setPxArticulationJoint_DriveType@@YAXPEAVPxArticulationJoint@physx@@W4Enum@PxArticulationJointDriveType@2@@Z 0000000180008610 f   PxAutoGeneratedMetaDataObjects.obj
 0001:00007620       ?createPxPhysics_TriangleMeshes@@YAPEAVPxTriangleMesh@physx@@PEAVPxPhysics@2@AEAVPxInputStream@2@@Z 0000000180008620 f   PxAutoGeneratedMetaDataObjects.obj
 0001:00007620       ?getPxArticulationBase_Scene@@YAPEAVPxScene@physx@@PEBVPxArticulationBase@2@@Z 0000000180008620 f   PxAutoGeneratedMetaDataObjects.obj
 0001:00007620       ?getPxConstraint_Scene@@YAPEAVPxScene@physx@@PEBVPxConstraint@2@@Z 0000000180008620 f   PxAutoGeneratedMetaDataObjects.obj
 0001:00007620       ?getPxMaterial_ReferenceCount@@YAIPEBVPxMaterial@physx@@@Z 0000000180008620 f   PxAutoGeneratedMetaDataObjects.obj
 0001:00007620       ?getPxShape_ReferenceCount@@YAIPEBVPxShape@physx@@@Z 0000000180008620 f   PxAutoGeneratedMetaDataObjects.obj
 0001:00007630       ?getNbPxAggregate_Actors@@YAIPEBVPxAggregate@physx@@@Z 0000000180008630 f   PxAutoGeneratedMetaDataObjects.obj
 0001:00007630       ?getNbPxPhysics_HeightFields@@YAIPEBVPxPhysics@physx@@@Z 0000000180008630 f   PxAutoGeneratedMetaDataObjects.obj
 0001:00007630       ?setPxArticulationBase_SleepThreshold@@YAXPEAVPxArticulationBase@physx@@M@Z 0000000180008630 f   PxAutoGeneratedMetaDataObjects.obj
 0001:00007630       ?setPxArticulationJointBase_ChildPose@@YAXPEAVPxArticulationJointBase@physx@@AEBVPxTransform@2@@Z 0000000180008630 f   PxAutoGeneratedMetaDataObjects.obj
 0001:00007630       ?setPxMaterial_StaticFriction@@YAXPEAVPxMaterial@physx@@M@Z 0000000180008630 f   PxAutoGeneratedMetaDataObjects.obj
 0001:00007640       ?getNbPxArticulationBase_Links@@YAIPEBVPxArticulationBase@physx@@@Z 0000000180008640 f   PxAutoGeneratedMetaDataObjects.obj
 0001:00007640       ?getNbPxPhysics_Scenes@@YAIPEBVPxPhysics@physx@@@Z 0000000180008640 f   PxAutoGeneratedMetaDataObjects.obj
 0001:00007640       ?getPxArticulationJoint_DriveType@@YA?AW4Enum@PxArticulationJointDriveType@physx@@PEBVPxArticulationJoint@3@@Z 0000000180008640 f   PxAutoGeneratedMetaDataObjects.obj
 0001:00007640       ?setPxMaterial_RestitutionCombineMode@@YAXPEAVPxMaterial@physx@@W4Enum@PxCombineMode@2@@Z 0000000180008640 f   PxAutoGeneratedMetaDataObjects.obj
 0001:00007640       ?setPxShape_LocalPose@@YAXPEAVPxShape@physx@@AEBVPxTransform@2@@Z 0000000180008640 f   PxAutoGeneratedMetaDataObjects.obj
 0001:00007650       ?getNbPxArticulationLink_Children@@YAIPEBVPxArticulationLink@physx@@@Z 0000000180008650 f   PxAutoGeneratedMetaDataObjects.obj
 0001:00007650       ?getPxScene_CCDMaxPasses@@YAIPEBVPxScene@physx@@@Z 0000000180008650 f   PxAutoGeneratedMetaDataObjects.obj
 0001:00007650       ?setPxRigidDynamic_SleepThreshold@@YAXPEAVPxRigidDynamic@physx@@M@Z 0000000180008650 f   PxAutoGeneratedMetaDataObjects.obj
 0001:00007660       ?getNbPxPhysics_BVHStructures@@YAIPEBVPxPhysics@physx@@@Z 0000000180008660 f   PxAutoGeneratedMetaDataObjects.obj
 0001:00007660       ?getPxConstraint_BreakForce@@YAXPEBVPxConstraint@physx@@AEAM1@Z 0000000180008660 f   PxAutoGeneratedMetaDataObjects.obj
 0001:00007660       ?setPxActor_OwnerClient@@YAXPEAVPxActor@physx@@E@Z 0000000180008660 f   PxAutoGeneratedMetaDataObjects.obj
 0001:00007660       ?setPxArticulationJointReducedCoordinate_Motion@@YAXPEAVPxArticulationJointReducedCoordinate@physx@@W4Enum@PxArticulationAxis@2@W43PxArticulationMotion@2@@Z 0000000180008660 f   PxAutoGeneratedMetaDataObjects.obj
 0001:00007660       ?setPxArticulationJoint_TargetVelocity@@YAXPEAVPxArticulationJoint@physx@@AEBVPxVec3@2@@Z 0000000180008660 f   PxAutoGeneratedMetaDataObjects.obj
 0001:00007670       ?getNbPxPhysics_ConvexMeshes@@YAIPEBVPxPhysics@physx@@@Z 0000000180008670 f   PxAutoGeneratedMetaDataObjects.obj
 0001:00007670       ?getPxArticulationBase_StabilizationThreshold@@YAMPEBVPxArticulationBase@physx@@@Z 0000000180008670 f   PxAutoGeneratedMetaDataObjects.obj
 0001:00007670       ?getPxMaterial_Restitution@@YAMPEBVPxMaterial@physx@@@Z 0000000180008670 f   PxAutoGeneratedMetaDataObjects.obj
 0001:00007680       ?getNbPxPhysics_Materials@@YAIPEBVPxPhysics@physx@@@Z 0000000180008680 f   PxAutoGeneratedMetaDataObjects.obj
 0001:00007680       ?getPxArticulationJoint_TangentialStiffness@@YAMPEBVPxArticulationJoint@physx@@@Z 0000000180008680 f   PxAutoGeneratedMetaDataObjects.obj
 0001:00007680       ?getPxRigidBody_InvMass@@YAMPEBVPxRigidBody@physx@@@Z 0000000180008680 f   PxAutoGeneratedMetaDataObjects.obj
 0001:00007680       ?getPxScene_CudaContextManager@@YAPEAVPxCudaContextManager@physx@@PEBVPxScene@2@@Z 0000000180008680 f   PxAutoGeneratedMetaDataObjects.obj
 0001:00007680       ?setPxArticulation_SeparationTolerance@@YAXPEAVPxArticulation@physx@@M@Z 0000000180008680 f   PxAutoGeneratedMetaDataObjects.obj
 0001:00007680       ?setPxShape_RestOffset@@YAXPEAVPxShape@physx@@M@Z 0000000180008680 f   PxAutoGeneratedMetaDataObjects.obj
 0001:00007690       ?getNbPxPhysics_Shapes@@YAIPEBVPxPhysics@physx@@@Z 0000000180008690 f   PxAutoGeneratedMetaDataObjects.obj
 0001:00007690       ?getNbPxRigidActor_Constraints@@YAIPEBVPxRigidActor@physx@@@Z 0000000180008690 f   PxAutoGeneratedMetaDataObjects.obj
 0001:00007690       ?getPxArticulationJoint_InternalCompliance@@YAMPEBVPxArticulationJoint@physx@@@Z 0000000180008690 f   PxAutoGeneratedMetaDataObjects.obj
 0001:000076a0       ?getNbPxPhysics_TriangleMeshes@@YAIPEBVPxPhysics@physx@@@Z 00000001800086a0 f   PxAutoGeneratedMetaDataObjects.obj
 0001:000076a0       ?getNbPxPruningStructure_RigidActors@@YAIPEBVPxPruningStructure@physx@@@Z 00000001800086a0 f   PxAutoGeneratedMetaDataObjects.obj
 0001:000076a0       ?getPxActor_Scene@@YAPEAVPxScene@physx@@PEBVPxActor@2@@Z 00000001800086a0 f   PxAutoGeneratedMetaDataObjects.obj
 0001:000076a0       ?getPxConstraint_Actors@@YAXPEBVPxConstraint@physx@@AEAPEAVPxRigidActor@2@1@Z 00000001800086a0 f   PxAutoGeneratedMetaDataObjects.obj
 0001:000076a0       ?setPxArticulationBase_SolverIterationCounts@@YAXPEAVPxArticulationBase@physx@@II@Z 00000001800086a0 f   PxAutoGeneratedMetaDataObjects.obj
 0001:000076a0       ?setPxArticulationJointBase_ParentPose@@YAXPEAVPxArticulationJointBase@physx@@AEBVPxTransform@2@@Z 00000001800086a0 f   PxAutoGeneratedMetaDataObjects.obj
 0001:000076b0       ?getNbPxRigidActor_Shapes@@YAIPEBVPxRigidActor@physx@@@Z 00000001800086b0 f   PxAutoGeneratedMetaDataObjects.obj
 0001:000076b0       ?getPxArticulationJoint_Damping@@YAMPEBVPxArticulationJoint@physx@@@Z 00000001800086b0 f   PxAutoGeneratedMetaDataObjects.obj
 0001:000076b0       ?setPxShape_QueryFilterData@@YAXPEAVPxShape@physx@@AEBUPxFilterData@2@@Z 00000001800086b0 f   PxAutoGeneratedMetaDataObjects.obj
 0001:000076c0       ?getNbPxScene_Actors@@YAIPEBVPxScene@physx@@V?$PxFlags@W4Enum@PxActorTypeFlag@physx@@G@2@@Z 00000001800086c0 f   PxAutoGeneratedMetaDataObjects.obj
 0001:000076e0       ?getNbPxScene_Aggregates@@YAIPEBVPxScene@physx@@@Z 00000001800086e0 f   PxAutoGeneratedMetaDataObjects.obj
 0001:000076e0       ?setPxArticulationJointReducedCoordinate_FrictionCoefficient@@YAXPEAVPxArticulationJointReducedCoordinate@physx@@M@Z 00000001800086e0 f   PxAutoGeneratedMetaDataObjects.obj
 0001:000076e0       ?setPxArticulationJoint_ExternalCompliance@@YAXPEAVPxArticulationJoint@physx@@M@Z 00000001800086e0 f   PxAutoGeneratedMetaDataObjects.obj
 0001:000076f0       ?getNbPxScene_Articulations@@YAIPEBVPxScene@physx@@@Z 00000001800086f0 f   PxAutoGeneratedMetaDataObjects.obj
 0001:000076f0       ?getPxArticulationBase_Name@@YAPEBDPEBVPxArticulationBase@physx@@@Z 00000001800086f0 f   PxAutoGeneratedMetaDataObjects.obj
 0001:000076f0       ?setPxArticulationJoint_Damping@@YAXPEAVPxArticulationJoint@physx@@M@Z 00000001800086f0 f   PxAutoGeneratedMetaDataObjects.obj
 0001:00007700       ?getNbPxScene_BroadPhaseRegions@@YAIPEBVPxScene@physx@@@Z 0000000180008700 f   PxAutoGeneratedMetaDataObjects.obj
 0001:00007710       ?getNbPxScene_Constraints@@YAIPEBVPxScene@physx@@@Z 0000000180008710 f   PxAutoGeneratedMetaDataObjects.obj
 0001:00007710       ?getPxArticulationBase_Aggregate@@YAPEAVPxAggregate@physx@@PEBVPxArticulationBase@2@@Z 0000000180008710 f   PxAutoGeneratedMetaDataObjects.obj
 0001:00007710       ?setPxArticulationJoint_InternalCompliance@@YAXPEAVPxArticulationJoint@physx@@M@Z 0000000180008710 f   PxAutoGeneratedMetaDataObjects.obj
 0001:00007720       ?getNbPxShape_Materials@@YAIPEBVPxShape@physx@@@Z 0000000180008720 f   PxAutoGeneratedMetaDataObjects.obj
 0001:00007740       ?getCpuDispatcher@PxTaskMgr@physx@@UEBAPEAVPxCpuDispatcher@2@XZ 0000000180008740 f i PhysXTask_static_64:TaskManager.obj
 0001:00007740       ?getCreatedPairs@BroadPhaseABP@Bp@physx@@UEAAPEAUBroadPhasePair@23@XZ 0000000180008740 f i LowLevelAABB_static_64:BpBroadPhaseABP.obj
 0001:00007740       ?getErrorCallback@Foundation@shdfnd@physx@@UEAAAEAVPxErrorCallback@3@XZ 0000000180008740 f i PxMetaDataObjects.obj
 0001:00007740       ?getPxActorUserData@@YAPEAXPEBVPxActor@physx@@@Z 0000000180008740 f i PxAutoGeneratedMetaDataObjects.obj
 0001:00007740       ?getPxArticulationBaseUserData@@YAPEAXPEBVPxArticulationBase@physx@@@Z 0000000180008740 f i PxAutoGeneratedMetaDataObjects.obj
 0001:00007740       ?getPxMaterialUserData@@YAPEAXPEBVPxMaterial@physx@@@Z 0000000180008740 f i PxAutoGeneratedMetaDataObjects.obj
 0001:00007740       ?getPxSceneDescSimulationEventCallback@@YAPEAVPxSimulationEventCallback@physx@@PEBVPxSceneDesc@2@@Z 0000000180008740 f i PxAutoGeneratedMetaDataObjects.obj
 0001:00007740       ?getPxShapeUserData@@YAPEAXPEBVPxShape@physx@@@Z 0000000180008740 f i PxAutoGeneratedMetaDataObjects.obj
 0001:00007750       ?getPxActor_ActorFlags@@YA?AV?$PxFlags@W4Enum@PxActorFlag@physx@@E@physx@@PEBVPxActor@2@@Z 0000000180008750 f   PxAutoGeneratedMetaDataObjects.obj
 0001:00007780       ?getPxActor_OwnerClient@@YAEPEBVPxActor@physx@@@Z 0000000180008780 f   PxAutoGeneratedMetaDataObjects.obj
 0001:00007780       ?getPxArticulationJointReducedCoordinate_Motion@@YA?AW4Enum@PxArticulationMotion@physx@@PEBVPxArticulationJointReducedCoordinate@3@W41PxArticulationAxis@3@@Z 0000000180008780 f   PxAutoGeneratedMetaDataObjects.obj
 0001:00007780       ?setPxConstraint_MinResponseThreshold@@YAXPEAVPxConstraint@physx@@M@Z 0000000180008780 f   PxAutoGeneratedMetaDataObjects.obj
 0001:00007780       ?setPxMaterial_FrictionCombineMode@@YAXPEAVPxMaterial@physx@@W4Enum@PxCombineMode@2@@Z 0000000180008780 f   PxAutoGeneratedMetaDataObjects.obj
 0001:00007790       ?getPxAggregate_Actors@@YAIPEBVPxAggregate@physx@@PEAPEAVPxActor@2@I@Z 0000000180008790 f   PxAutoGeneratedMetaDataObjects.obj
 0001:000077a0       ?getPxAggregate_ConcreteTypeName@@YAPEBDPEBVPxAggregate@physx@@@Z 00000001800087a0 f   PxAutoGeneratedMetaDataObjects.obj
 0001:000077a0       ?getPxArticulationJointReducedCoordinate_ConcreteTypeName@@YAPEBDPEBVPxArticulationJointReducedCoordinate@physx@@@Z 00000001800087a0 f   PxAutoGeneratedMetaDataObjects.obj
 0001:000077a0       ?getPxArticulationJoint_ConcreteTypeName@@YAPEBDPEBVPxArticulationJoint@physx@@@Z 00000001800087a0 f   PxAutoGeneratedMetaDataObjects.obj
 0001:000077a0       ?getPxArticulationLink_ConcreteTypeName@@YAPEBDPEBVPxArticulationLink@physx@@@Z 00000001800087a0 f   PxAutoGeneratedMetaDataObjects.obj
 0001:000077a0       ?getPxConstraint_ConcreteTypeName@@YAPEBDPEBVPxConstraint@physx@@@Z 00000001800087a0 f   PxAutoGeneratedMetaDataObjects.obj
 0001:000077a0       ?getPxMaterial_ConcreteTypeName@@YAPEBDPEBVPxMaterial@physx@@@Z 00000001800087a0 f   PxAutoGeneratedMetaDataObjects.obj
 0001:000077a0       ?getPxPruningStructure_ConcreteTypeName@@YAPEBDPEBVPxPruningStructure@physx@@@Z 00000001800087a0 f   PxAutoGeneratedMetaDataObjects.obj
 0001:000077a0       ?getPxRigidDynamic_ConcreteTypeName@@YAPEBDPEBVPxRigidDynamic@physx@@@Z 00000001800087a0 f   PxAutoGeneratedMetaDataObjects.obj
 0001:000077a0       ?getPxRigidStatic_ConcreteTypeName@@YAPEBDPEBVPxRigidStatic@physx@@@Z 00000001800087a0 f   PxAutoGeneratedMetaDataObjects.obj
 0001:000077a0       ?getPxShape_ConcreteTypeName@@YAPEBDPEBVPxShape@physx@@@Z 00000001800087a0 f   PxAutoGeneratedMetaDataObjects.obj
 0001:000077b0       ?getPxAggregate_MaxNbActors@@YAIPEBVPxAggregate@physx@@@Z 00000001800087b0 f   PxAutoGeneratedMetaDataObjects.obj
 0001:000077b0       ?getPxArticulationBase_SleepThreshold@@YAMPEBVPxArticulationBase@physx@@@Z 00000001800087b0 f   PxAutoGeneratedMetaDataObjects.obj
 0001:000077b0       ?getPxMaterial_StaticFriction@@YAMPEBVPxMaterial@physx@@@Z 00000001800087b0 f   PxAutoGeneratedMetaDataObjects.obj
 0001:000077c0       ?getPxAggregate_SelfCollision@@YA_NPEBVPxAggregate@physx@@@Z 00000001800087c0 f   PxAutoGeneratedMetaDataObjects.obj
 0001:000077c0       ?getPxConstraint_IsValid@@YA_NPEBVPxConstraint@physx@@@Z 00000001800087c0 f   PxAutoGeneratedMetaDataObjects.obj
 0001:000077c0       ?setPxActor_DominanceGroup@@YAXPEAVPxActor@physx@@E@Z 00000001800087c0 f   PxAutoGeneratedMetaDataObjects.obj
 0001:000077c0       ?setPxArticulationBase_WakeCounter@@YAXPEAVPxArticulationBase@physx@@M@Z 00000001800087c0 f   PxAutoGeneratedMetaDataObjects.obj
 0001:000077c0       ?setPxArticulationJointReducedCoordinate_JointType@@YAXPEAVPxArticulationJointReducedCoordinate@physx@@W4Enum@PxArticulationJointType@2@@Z 00000001800087c0 f   PxAutoGeneratedMetaDataObjects.obj
 0001:000077c0       ?setPxArticulationJoint_TargetOrientation@@YAXPEAVPxArticulationJoint@physx@@AEBVPxQuat@2@@Z 00000001800087c0 f   PxAutoGeneratedMetaDataObjects.obj
 0001:000077d0       ?getPxArticulationBase_Links@@YAIPEBVPxArticulationBase@physx@@PEAPEAVPxArticulationLink@2@I@Z 00000001800087d0 f   PxAutoGeneratedMetaDataObjects.obj
 0001:000077d0       ?getPxPhysics_Scenes@@YAIPEBVPxPhysics@physx@@PEAPEAVPxScene@2@I@Z 00000001800087d0 f   PxAutoGeneratedMetaDataObjects.obj
 0001:000077e0       ?getPxArticulationBase_SolverIterationCounts@@YAXPEBVPxArticulationBase@physx@@AEAI1@Z 00000001800087e0 f   PxAutoGeneratedMetaDataObjects.obj
 0001:000077e0       ?getPxScene_Timestamp@@YAIPEBVPxScene@physx@@@Z 00000001800087e0 f   PxAutoGeneratedMetaDataObjects.obj
 0001:000077e0       ?getPxShape_GeometryType@@YA?AW4Enum@PxGeometryType@physx@@PEBVPxShape@3@@Z 00000001800087e0 f   PxAutoGeneratedMetaDataObjects.obj
 0001:000077e0       ?setPxActor_Name@@YAXPEAVPxActor@physx@@PEBD@Z 00000001800087e0 f   PxAutoGeneratedMetaDataObjects.obj
 0001:000077e0       ?setPxConstraint_Actors@@YAXPEAVPxConstraint@physx@@PEAVPxRigidActor@2@1@Z 00000001800087e0 f   PxAutoGeneratedMetaDataObjects.obj
 0001:000077e0       ?setPxMaterial_DynamicFriction@@YAXPEAVPxMaterial@physx@@M@Z 00000001800087e0 f   PxAutoGeneratedMetaDataObjects.obj
 0001:000077f0       ?getPxArticulationJointBase_ChildPose@@YA?AVPxTransform@physx@@PEBVPxArticulationJointBase@2@@Z 00000001800087f0 f   PxAutoGeneratedMetaDataObjects.obj
 0001:000077f0       ?getPxConstraint_Flags@@YA?AV?$PxFlags@W4Enum@PxConstraintFlag@physx@@G@physx@@PEBVPxConstraint@2@@Z 00000001800087f0 f   PxAutoGeneratedMetaDataObjects.obj
 0001:00007820       ?getPxArticulationJointBase_ParentPose@@YA?AVPxTransform@physx@@PEBVPxArticulationJointBase@2@@Z 0000000180008820 f   PxAutoGeneratedMetaDataObjects.obj
 0001:00007850       ?getPxArticulationJointReducedCoordinate_FrictionCoefficient@@YAMPEBVPxArticulationJointReducedCoordinate@physx@@@Z 0000000180008850 f   PxAutoGeneratedMetaDataObjects.obj
 0001:00007850       ?getPxArticulationJoint_ExternalCompliance@@YAMPEBVPxArticulationJoint@physx@@@Z 0000000180008850 f   PxAutoGeneratedMetaDataObjects.obj
 0001:00007850       ?setPxRigidBody_CMassLocalPose@@YAXPEAVPxRigidBody@physx@@AEBVPxTransform@2@@Z 0000000180008850 f   PxAutoGeneratedMetaDataObjects.obj
 0001:00007860       ?getPxArticulationJointReducedCoordinate_MaxJointVelocity@@YAMPEBVPxArticulationJointReducedCoordinate@physx@@@Z 0000000180008860 f   PxAutoGeneratedMetaDataObjects.obj
 0001:00007860       ?getPxArticulationJoint_SwingLimit@@YAXPEBVPxArticulationJoint@physx@@AEAM1@Z 0000000180008860 f   PxAutoGeneratedMetaDataObjects.obj
 0001:00007860       ?setPxArticulation_MaxProjectionIterations@@YAXPEAVPxArticulation@physx@@I@Z 0000000180008860 f   PxAutoGeneratedMetaDataObjects.obj
 0001:00007860       ?setPxRigidBody_Mass@@YAXPEAVPxRigidBody@physx@@M@Z 0000000180008860 f   PxAutoGeneratedMetaDataObjects.obj
 0001:00007860       ?setPxShape_ContactOffset@@YAXPEAVPxShape@physx@@M@Z 0000000180008860 f   PxAutoGeneratedMetaDataObjects.obj
 0001:00007870       ?getPxArticulationJoint_Stiffness@@YAMPEBVPxArticulationJoint@physx@@@Z 0000000180008870 f   PxAutoGeneratedMetaDataObjects.obj
 0001:00007870       ?setPxArticulationBase_Name@@YAXPEAVPxArticulationBase@physx@@PEBD@Z 0000000180008870 f   PxAutoGeneratedMetaDataObjects.obj
 0001:00007870       ?setPxShape_SimulationFilterData@@YAXPEAVPxShape@physx@@AEBUPxFilterData@2@@Z 0000000180008870 f   PxAutoGeneratedMetaDataObjects.obj
 0001:00007880       ?getPxArticulationJoint_SwingLimitContactDistance@@YAMPEBVPxArticulationJoint@physx@@@Z 0000000180008880 f   PxAutoGeneratedMetaDataObjects.obj
 0001:00007880       ?setPxArticulation_ExternalDriveIterations@@YAXPEAVPxArticulation@physx@@I@Z 0000000180008880 f   PxAutoGeneratedMetaDataObjects.obj
 0001:00007880       ?setPxRigidBody_LinearDamping@@YAXPEAVPxRigidBody@physx@@M@Z 0000000180008880 f   PxAutoGeneratedMetaDataObjects.obj
 0001:00007880       ?setPxScene_ContactModifyCallback@@YAXPEAVPxScene@physx@@PEAVPxContactModifyCallback@2@@Z 0000000180008880 f   PxAutoGeneratedMetaDataObjects.obj
 0001:00007880       ?setPxShape_MinTorsionalPatchRadius@@YAXPEAVPxShape@physx@@M@Z 0000000180008880 f   PxAutoGeneratedMetaDataObjects.obj
 0001:00007890       ?getPxArticulationJoint_SwingLimitEnabled@@YA_NPEBVPxArticulationJoint@physx@@@Z 0000000180008890 f   PxAutoGeneratedMetaDataObjects.obj
 0001:00007890       ?getPxScene_ContactModifyCallback@@YAPEAVPxContactModifyCallback@physx@@PEBVPxScene@2@@Z 0000000180008890 f   PxAutoGeneratedMetaDataObjects.obj
 0001:00007890       ?setPxRigidBody_AngularDamping@@YAXPEAVPxRigidBody@physx@@M@Z 0000000180008890 f   PxAutoGeneratedMetaDataObjects.obj
 0001:000078a0       ?getPxArticulationJoint_TangentialDamping@@YAMPEBVPxArticulationJoint@physx@@@Z 00000001800088a0 f   PxAutoGeneratedMetaDataObjects.obj
 0001:000078a0       ?setPxArticulation_InternalDriveIterations@@YAXPEAVPxArticulation@physx@@I@Z 00000001800088a0 f   PxAutoGeneratedMetaDataObjects.obj
 0001:000078a0       ?setPxScene_SimulationEventCallback@@YAXPEAVPxScene@physx@@PEAVPxSimulationEventCallback@2@@Z 00000001800088a0 f   PxAutoGeneratedMetaDataObjects.obj
 0001:000078a0       ?setPxShape_TorsionalPatchRadius@@YAXPEAVPxShape@physx@@M@Z 00000001800088a0 f   PxAutoGeneratedMetaDataObjects.obj
 0001:000078b0       ?getPxArticulationJoint_TargetOrientation@@YA?AVPxQuat@physx@@PEBVPxArticulationJoint@2@@Z 00000001800088b0 f   PxAutoGeneratedMetaDataObjects.obj
 0001:000078e0       ?getPxArticulationJoint_TargetVelocity@@YA?AVPxVec3@physx@@PEBVPxArticulationJoint@2@@Z 00000001800088e0 f   PxAutoGeneratedMetaDataObjects.obj
 0001:00007910       ?getPxArticulationJoint_TwistLimit@@YAXPEBVPxArticulationJoint@physx@@AEAM1@Z 0000000180008910 f   PxAutoGeneratedMetaDataObjects.obj
 0001:00007910       ?setPxScene_BroadPhaseCallback@@YAXPEAVPxScene@physx@@PEAVPxBroadPhaseCallback@2@@Z 0000000180008910 f   PxAutoGeneratedMetaDataObjects.obj
 0001:00007920       ?getPxArticulationJoint_TwistLimitContactDistance@@YAMPEBVPxArticulationJoint@physx@@@Z 0000000180008920 f   PxAutoGeneratedMetaDataObjects.obj
 0001:00007920       ?getPxScene_FilterShaderDataSize@@YAIPEBVPxScene@physx@@@Z 0000000180008920 f   PxAutoGeneratedMetaDataObjects.obj
 0001:00007920       ?setPxRigidBody_MaxAngularVelocity@@YAXPEAVPxRigidBody@physx@@M@Z 0000000180008920 f   PxAutoGeneratedMetaDataObjects.obj
 0001:00007930       ?getPxArticulationJoint_TwistLimitEnabled@@YA_NPEBVPxArticulationJoint@physx@@@Z 0000000180008930 f   PxAutoGeneratedMetaDataObjects.obj
 0001:00007930       ?setPxShape_Name@@YAXPEAVPxShape@physx@@PEBD@Z 0000000180008930 f   PxAutoGeneratedMetaDataObjects.obj
 0001:00007940       ?getPxArticulationLink_Children@@YAIPEBVPxArticulationLink@physx@@PEAPEAV12@I@Z 0000000180008940 f   PxAutoGeneratedMetaDataObjects.obj
 0001:00007950       ?getPxArticulationLink_InboundJoint@@YAPEAVPxArticulationJointBase@physx@@PEBVPxArticulationLink@2@@Z 0000000180008950 f   PxAutoGeneratedMetaDataObjects.obj
 0001:00007950       ?getPxScene_BounceThresholdVelocity@@YAMPEBVPxScene@physx@@@Z 0000000180008950 f   PxAutoGeneratedMetaDataObjects.obj
 0001:00007960       ?getPxArticulationLink_InboundJointDof@@YAIPEBVPxArticulationLink@physx@@@Z 0000000180008960 f   PxAutoGeneratedMetaDataObjects.obj
 0001:00007960       ?getPxRigidDynamic_IsSleeping@@YA_NPEBVPxRigidDynamic@physx@@@Z 0000000180008960 f   PxAutoGeneratedMetaDataObjects.obj
 0001:00007960       ?setPxScene_CCDMaxPasses@@YAXPEAVPxScene@physx@@I@Z 0000000180008960 f   PxAutoGeneratedMetaDataObjects.obj
 0001:00007970       ?getPxArticulationLink_LinkIndex@@YAIPEBVPxArticulationLink@physx@@@Z 0000000180008970 f   PxAutoGeneratedMetaDataObjects.obj
 0001:00007970       ?getPxRigidDynamic_SleepThreshold@@YAMPEBVPxRigidDynamic@physx@@@Z 0000000180008970 f   PxAutoGeneratedMetaDataObjects.obj
 0001:00007970       ?getPxScene_FrictionOffsetThreshold@@YAMPEBVPxScene@physx@@@Z 0000000180008970 f   PxAutoGeneratedMetaDataObjects.obj
 0001:00007980       ?getPxArticulationReducedCoordinate_ArticulationFlags@@YA?AV?$PxFlags@W4Enum@PxArticulationFlag@physx@@E@physx@@PEBVPxArticulationReducedCoordinate@2@@Z 0000000180008980 f   PxAutoGeneratedMetaDataObjects.obj
 0001:000079b0       ?getPxArticulationReducedCoordinate_CacheDataSize@@YAIPEBVPxArticulationReducedCoordinate@physx@@@Z 00000001800089b0 f   PxAutoGeneratedMetaDataObjects.obj
 0001:000079b0       ?getPxArticulation_InternalDriveIterations@@YAIPEBVPxArticulation@physx@@@Z 00000001800089b0 f   PxAutoGeneratedMetaDataObjects.obj
 0001:000079b0       ?getPxScene_SimulationEventCallback@@YAPEAVPxSimulationEventCallback@physx@@PEBVPxScene@2@@Z 00000001800089b0 f   PxAutoGeneratedMetaDataObjects.obj
 0001:000079b0       ?getPxShape_TorsionalPatchRadius@@YAMPEBVPxShape@physx@@@Z 00000001800089b0 f   PxAutoGeneratedMetaDataObjects.obj
 0001:000079b0       ?setPxArticulationJoint_SwingLimitContactDistance@@YAXPEAVPxArticulationJoint@physx@@M@Z 00000001800089b0 f   PxAutoGeneratedMetaDataObjects.obj
 0001:000079c0       ?getPxArticulationReducedCoordinate_CoefficientMatrixSize@@YAIPEBVPxArticulationReducedCoordinate@physx@@@Z 00000001800089c0 f   PxAutoGeneratedMetaDataObjects.obj
 0001:000079c0       ?setPxRigidBody_MinCCDAdvanceCoefficient@@YAXPEAVPxRigidBody@physx@@M@Z 00000001800089c0 f   PxAutoGeneratedMetaDataObjects.obj
 0001:000079d0       ?getPxArticulationReducedCoordinate_Dofs@@YAIPEBVPxArticulationReducedCoordinate@physx@@@Z 00000001800089d0 f   PxAutoGeneratedMetaDataObjects.obj
 0001:000079d0       ?getPxArticulation_SeparationTolerance@@YAMPEBVPxArticulation@physx@@@Z 00000001800089d0 f   PxAutoGeneratedMetaDataObjects.obj
 0001:000079d0       ?getPxShape_RestOffset@@YAMPEBVPxShape@physx@@@Z 00000001800089d0 f   PxAutoGeneratedMetaDataObjects.obj
 0001:000079d0       ?setPxArticulationJoint_TangentialDamping@@YAXPEAVPxArticulationJoint@physx@@M@Z 00000001800089d0 f   PxAutoGeneratedMetaDataObjects.obj
 0001:000079d0       ?setPxRigidBody_MassSpaceInertiaTensor@@YAXPEAVPxRigidBody@physx@@AEBVPxVec3@2@@Z 00000001800089d0 f   PxAutoGeneratedMetaDataObjects.obj
 0001:000079e0       ?getPxArticulation_ExternalDriveIterations@@YAIPEBVPxArticulation@physx@@@Z 00000001800089e0 f   PxAutoGeneratedMetaDataObjects.obj
 0001:000079e0       ?getPxRigidBody_LinearDamping@@YAMPEBVPxRigidBody@physx@@@Z 00000001800089e0 f   PxAutoGeneratedMetaDataObjects.obj
 0001:000079e0       ?getPxShape_MinTorsionalPatchRadius@@YAMPEBVPxShape@physx@@@Z 00000001800089e0 f   PxAutoGeneratedMetaDataObjects.obj
 0001:000079e0       ?setPxArticulationJoint_SwingLimitEnabled@@YAXPEAVPxArticulationJoint@physx@@_N@Z 00000001800089e0 f   PxAutoGeneratedMetaDataObjects.obj
 0001:000079e0       ?setPxScene_CCDContactModifyCallback@@YAXPEAVPxScene@physx@@PEAVPxCCDContactModifyCallback@2@@Z 00000001800089e0 f   PxAutoGeneratedMetaDataObjects.obj
 0001:000079f0       ?getPxArticulation_MaxProjectionIterations@@YAIPEBVPxArticulation@physx@@@Z 00000001800089f0 f   PxAutoGeneratedMetaDataObjects.obj
 0001:000079f0       ?getPxRigidBody_Mass@@YAMPEBVPxRigidBody@physx@@@Z 00000001800089f0 f   PxAutoGeneratedMetaDataObjects.obj
 0001:000079f0       ?getPxScene_CpuDispatcher@@YAPEAVPxCpuDispatcher@physx@@PEBVPxScene@2@@Z 00000001800089f0 f   PxAutoGeneratedMetaDataObjects.obj
 0001:000079f0       ?getPxShape_ContactOffset@@YAMPEBVPxShape@physx@@@Z 00000001800089f0 f   PxAutoGeneratedMetaDataObjects.obj
 0001:000079f0       ?setPxArticulationJoint_TangentialStiffness@@YAXPEAVPxArticulationJoint@physx@@M@Z 00000001800089f0 f   PxAutoGeneratedMetaDataObjects.obj
 0001:00007a00       ?getPxCapsuleGeometryHalfHeight@@YAMPEBVPxCapsuleGeometry@physx@@@Z 0000000180008a00 f i PxAutoGeneratedMetaDataObjects.obj
 0001:00007a10       ?getPxCapsuleGeometryRadius@@YAMPEBVPxCapsuleGeometry@physx@@@Z 0000000180008a10 f i PxAutoGeneratedMetaDataObjects.obj
 0001:00007a10       ?getPxSphereGeometryRadius@@YAMPEBVPxSphereGeometry@physx@@@Z 0000000180008a10 f i PxAutoGeneratedMetaDataObjects.obj
 0001:00007a10       ?getPxTolerancesScaleSpeed@@YAMPEBVPxTolerancesScale@physx@@@Z 0000000180008a10 f i PxAutoGeneratedMetaDataObjects.obj
 0001:00007a20       ?getDeletedPairs@BroadPhaseABP@Bp@physx@@UEAAPEAUBroadPhasePair@23@XZ 0000000180008a20 f i LowLevelAABB_static_64:BpBroadPhaseABP.obj
 0001:00007a20       ?getName@FanoutTask@Cm@physx@@UEBAPEBDXZ 0000000180008a20 f i SimulationController_static_64:ScScene.obj
 0001:00007a20       ?getPxConvexMeshGeometryConvexMesh@@YAPEAVPxConvexMesh@physx@@PEBVPxConvexMeshGeometry@2@@Z 0000000180008a20 f i PxAutoGeneratedMetaDataObjects.obj
 0001:00007a20       ?getPxSceneDescCcdContactModifyCallback@@YAPEAVPxCCDContactModifyCallback@physx@@PEBVPxSceneDesc@2@@Z 0000000180008a20 f i PxAutoGeneratedMetaDataObjects.obj
 0001:00007a30       ?getPxConvexMeshGeometryMeshFlags@@YA?AV?$PxFlags@W4Enum@PxConvexMeshGeometryFlag@physx@@E@physx@@PEBVPxConvexMeshGeometry@2@@Z 0000000180008a30 f i PxAutoGeneratedMetaDataObjects.obj
 0001:00007a40       ?getPxConvexMeshGeometryScale@@YA?AVPxMeshScale@physx@@PEBVPxConvexMeshGeometry@2@@Z 0000000180008a40 f i PxAutoGeneratedMetaDataObjects.obj
 0001:00007a40       ?getPxTriangleMeshGeometryScale@@YA?AVPxMeshScale@physx@@PEBVPxTriangleMeshGeometry@2@@Z 0000000180008a40 f i PxAutoGeneratedMetaDataObjects.obj
 0001:00007a70       ?getPxHeightFieldDescConvexEdgeThreshold@@YAMPEBVPxHeightFieldDesc@physx@@@Z 0000000180008a70 f i PxAutoGeneratedMetaDataObjects.obj
 0001:00007a80       ?getPxHeightFieldDescFlags@@YA?AV?$PxFlags@W4Enum@PxHeightFieldFlag@physx@@G@physx@@PEBVPxHeightFieldDesc@2@@Z 0000000180008a80 f i PxAutoGeneratedMetaDataObjects.obj
 0001:00007a90       ?getPxHeightFieldDescFormat@@YA?AW4Enum@PxHeightFieldFormat@physx@@PEBVPxHeightFieldDesc@3@@Z 0000000180008a90 f i PxAutoGeneratedMetaDataObjects.obj
 0001:00007a90       ?getPxSceneLimitsMaxNbStaticShapes@@YAIPEBVPxSceneLimits@physx@@@Z 0000000180008a90 f i PxAutoGeneratedMetaDataObjects.obj
 0001:00007a90       ?getPxSimulationStatisticsNbActiveKinematicBodies@@YAIPEBVPxSimulationStatistics@physx@@@Z 0000000180008a90 f i PxAutoGeneratedMetaDataObjects.obj
 0001:00007a90       ?getPxgDynamicsMemoryConfigTempBufferCapacity@@YAIPEBUPxgDynamicsMemoryConfig@physx@@@Z 0000000180008a90 f i PxAutoGeneratedMetaDataObjects.obj
 0001:00007aa0       ?getPxHeightFieldDescNbColumns@@YAIPEBVPxHeightFieldDesc@physx@@@Z 0000000180008aa0 f i PxAutoGeneratedMetaDataObjects.obj
 0001:00007aa0       ?getPxSceneLimitsMaxNbBodies@@YAIPEBVPxSceneLimits@physx@@@Z 0000000180008aa0 f i PxAutoGeneratedMetaDataObjects.obj
 0001:00007aa0       ?getPxSimulationStatisticsNbActiveDynamicBodies@@YAIPEBVPxSimulationStatistics@physx@@@Z 0000000180008aa0 f i PxAutoGeneratedMetaDataObjects.obj
 0001:00007aa0       ?getPxgDynamicsMemoryConfigContactBufferCapacity@@YAIPEBUPxgDynamicsMemoryConfig@physx@@@Z 0000000180008aa0 f i PxAutoGeneratedMetaDataObjects.obj
 0001:00007ab0       ?getPxHeightFieldDescNbRows@@YAIPEBVPxHeightFieldDesc@physx@@@Z 0000000180008ab0 f i PxAutoGeneratedMetaDataObjects.obj
 0001:00007ab0       ?getPxSceneLimitsMaxNbActors@@YAIPEBVPxSceneLimits@physx@@@Z 0000000180008ab0 f i PxAutoGeneratedMetaDataObjects.obj
 0001:00007ab0       ?getPxSimulationStatisticsNbActiveConstraints@@YAIPEBVPxSimulationStatistics@physx@@@Z 0000000180008ab0 f i PxAutoGeneratedMetaDataObjects.obj
 0001:00007ab0       ?getPxgDynamicsMemoryConfigConstraintBufferCapacity@@YAIPEBUPxgDynamicsMemoryConfig@physx@@@Z 0000000180008ab0 f i PxAutoGeneratedMetaDataObjects.obj
 0001:00007ac0       ?getPxHeightFieldDescSamples@@YA?AUPxStridedData@physx@@PEBVPxHeightFieldDesc@2@@Z 0000000180008ac0 f i PxAutoGeneratedMetaDataObjects.obj
 0001:00007ad0       ?getPxHeightFieldGeometryColumnScale@@YAMPEBVPxHeightFieldGeometry@physx@@@Z 0000000180008ad0 f i PxAutoGeneratedMetaDataObjects.obj
 0001:00007ae0       ?getAllocatorCallback@Foundation@shdfnd@physx@@UEAAAEAVPxAllocatorCallback@3@XZ 0000000180008ae0 f i PxMetaDataObjects.obj
 0001:00007ae0       ?getConcreteTypeName@?$PxSerializerDefaultAdapter@VBV4TriangleMesh@Gu@physx@@@physx@@UEBAPEBDXZ 0000000180008ae0 f i NpSerializerAdapter.obj
 0001:00007ae0       ?getConcreteTypeName@?$PxSerializerDefaultAdapter@VConvexMesh@Gu@physx@@@physx@@UEBAPEBDXZ 0000000180008ae0 f i NpSerializerAdapter.obj
 0001:00007ae0       ?getConcreteTypeName@?$PxSerializerDefaultAdapter@VHeightField@Gu@physx@@@physx@@UEBAPEBDXZ 0000000180008ae0 f i NpSerializerAdapter.obj
 0001:00007ae0       ?getConcreteTypeName@?$PxSerializerDefaultAdapter@VNpAggregate@physx@@@physx@@UEBAPEBDXZ 0000000180008ae0 f i NpSerializerAdapter.obj
 0001:00007ae0       ?getConcreteTypeName@?$PxSerializerDefaultAdapter@VNpArticulation@physx@@@physx@@UEBAPEBDXZ 0000000180008ae0 f i NpSerializerAdapter.obj
 0001:00007ae0       ?getConcreteTypeName@?$PxSerializerDefaultAdapter@VNpArticulationJoint@physx@@@physx@@UEBAPEBDXZ 0000000180008ae0 f i NpSerializerAdapter.obj
 0001:00007ae0       ?getConcreteTypeName@?$PxSerializerDefaultAdapter@VNpArticulationJointReducedCoordinate@physx@@@physx@@UEBAPEBDXZ 0000000180008ae0 f i NpSerializerAdapter.obj
 0001:00007ae0       ?getConcreteTypeName@?$PxSerializerDefaultAdapter@VNpArticulationLink@physx@@@physx@@UEBAPEBDXZ 0000000180008ae0 f i NpSerializerAdapter.obj
 0001:00007ae0       ?getConcreteTypeName@?$PxSerializerDefaultAdapter@VNpArticulationReducedCoordinate@physx@@@physx@@UEBAPEBDXZ 0000000180008ae0 f i NpSerializerAdapter.obj
 0001:00007ae0       ?getConcreteTypeName@?$PxSerializerDefaultAdapter@VNpConstraint@physx@@@physx@@UEBAPEBDXZ 0000000180008ae0 f i NpSerializerAdapter.obj
 0001:00007ae0       ?getConcreteTypeName@?$PxSerializerDefaultAdapter@VNpMaterial@physx@@@physx@@UEBAPEBDXZ 0000000180008ae0 f i NpSerializerAdapter.obj
 0001:00007ae0       ?getConcreteTypeName@?$PxSerializerDefaultAdapter@VNpRigidDynamic@physx@@@physx@@UEBAPEBDXZ 0000000180008ae0 f i NpSerializerAdapter.obj
 0001:00007ae0       ?getConcreteTypeName@?$PxSerializerDefaultAdapter@VNpRigidStatic@physx@@@physx@@UEBAPEBDXZ 0000000180008ae0 f i NpSerializerAdapter.obj
 0001:00007ae0       ?getConcreteTypeName@?$PxSerializerDefaultAdapter@VNpShape@physx@@@physx@@UEBAPEBDXZ 0000000180008ae0 f i NpSerializerAdapter.obj
 0001:00007ae0       ?getConcreteTypeName@?$PxSerializerDefaultAdapter@VPruningStructure@Sq@physx@@@physx@@UEBAPEBDXZ 0000000180008ae0 f i NpSerializerAdapter.obj
 0001:00007ae0       ?getConcreteTypeName@?$PxSerializerDefaultAdapter@VRTreeTriangleMesh@Gu@physx@@@physx@@UEBAPEBDXZ 0000000180008ae0 f i NpSerializerAdapter.obj
 0001:00007ae0       ?getPoints@RenderBuffer@Cm@physx@@UEBAPEBUPxDebugPoint@3@XZ 0000000180008ae0 f i NpScene.obj
 0001:00007ae0       ?getPxHeightFieldGeometryHeightField@@YAPEAVPxHeightField@physx@@PEBVPxHeightFieldGeometry@2@@Z 0000000180008ae0 f i PxAutoGeneratedMetaDataObjects.obj
 0001:00007ae0       ?getPxSceneUserData@@YAPEAXPEBVPxScene@physx@@@Z 0000000180008ae0 f i PxAutoGeneratedMetaDataObjects.obj
 0001:00007af0       ?getPxHeightFieldGeometryHeightFieldFlags@@YA?AV?$PxFlags@W4Enum@PxMeshGeometryFlag@physx@@E@physx@@PEBVPxHeightFieldGeometry@2@@Z 0000000180008af0 f i PxAutoGeneratedMetaDataObjects.obj
 0001:00007b00       ?getPxHeightFieldGeometryHeightScale@@YAMPEBVPxHeightFieldGeometry@physx@@@Z 0000000180008b00 f i PxAutoGeneratedMetaDataObjects.obj
 0001:00007b10       ?getPxHeightFieldGeometryRowScale@@YAMPEBVPxHeightFieldGeometry@physx@@@Z 0000000180008b10 f i PxAutoGeneratedMetaDataObjects.obj
 0001:00007b20       ?getPxMaterial_Flags@@YA?AV?$PxFlags@W4Enum@PxMaterialFlag@physx@@G@physx@@PEBVPxMaterial@2@@Z 0000000180008b20 f   PxAutoGeneratedMetaDataObjects.obj
 0001:00007b50       ?getPxMaterial_RestitutionCombineMode@@YA?AW4Enum@PxCombineMode@physx@@PEBVPxMaterial@3@@Z 0000000180008b50 f   PxAutoGeneratedMetaDataObjects.obj
 0001:00007b50       ?setPxArticulationJoint_Stiffness@@YAXPEAVPxArticulationJoint@physx@@M@Z 0000000180008b50 f   PxAutoGeneratedMetaDataObjects.obj
 0001:00007b60       ?getPxMeshScaleRotation@@YA?AVPxQuat@physx@@PEBVPxMeshScale@2@@Z 0000000180008b60 f i PxAutoGeneratedMetaDataObjects.obj
 0001:00007b80       ?getPxMeshScaleScale@@YA?AVPxVec3@physx@@PEBVPxMeshScale@2@@Z 0000000180008b80 f i PxAutoGeneratedMetaDataObjects.obj
 0001:00007b80       ?getPxSceneDescGravity@@YA?AVPxVec3@physx@@PEBVPxSceneDesc@2@@Z 0000000180008b80 f i PxAutoGeneratedMetaDataObjects.obj
 0001:00007ba0       ?getPxPhysics_BVHStructures@@YAIPEBVPxPhysics@physx@@PEAPEAVPxBVHStructure@2@I@Z 0000000180008ba0 f   PxAutoGeneratedMetaDataObjects.obj
 0001:00007bb0       ?getPxPhysics_ConvexMeshes@@YAIPEBVPxPhysics@physx@@PEAPEAVPxConvexMesh@2@I@Z 0000000180008bb0 f   PxAutoGeneratedMetaDataObjects.obj
 0001:00007bc0       ?getPxPhysics_HeightFields@@YAIPEBVPxPhysics@physx@@PEAPEAVPxHeightField@2@I@Z 0000000180008bc0 f   PxAutoGeneratedMetaDataObjects.obj
 0001:00007bd0       ?getPxPhysics_Materials@@YAIPEBVPxPhysics@physx@@PEAPEAVPxMaterial@2@I@Z 0000000180008bd0 f   PxAutoGeneratedMetaDataObjects.obj
 0001:00007be0       ?getPxPhysics_Shapes@@YAIPEBVPxPhysics@physx@@PEAPEAVPxShape@2@I@Z 0000000180008be0 f   PxAutoGeneratedMetaDataObjects.obj
 0001:00007be0       ?getPxRigidActor_Constraints@@YAIPEBVPxRigidActor@physx@@PEAPEAVPxConstraint@2@I@Z 0000000180008be0 f   PxAutoGeneratedMetaDataObjects.obj
 0001:00007bf0       ?getPxPhysics_TriangleMeshes@@YAIPEBVPxPhysics@physx@@PEAPEAVPxTriangleMesh@2@I@Z 0000000180008bf0 f   PxAutoGeneratedMetaDataObjects.obj
 0001:00007c00       ?getPxPruningStructure_RigidActors@@YAIPEBVPxPruningStructure@physx@@PEAPEAVPxRigidActor@2@I@Z 0000000180008c00 f   PxAutoGeneratedMetaDataObjects.obj
 0001:00007c10       ?getPxRigidActor_GlobalPose@@YA?AVPxTransform@physx@@PEBVPxRigidActor@2@@Z 0000000180008c10 f   PxAutoGeneratedMetaDataObjects.obj
 0001:00007c40       ?getPxRigidActor_Shapes@@YAIPEBVPxRigidActor@physx@@PEAPEAVPxShape@2@I@Z 0000000180008c40 f   PxAutoGeneratedMetaDataObjects.obj
 0001:00007c50       ?getPxRigidBody_AngularDamping@@YAMPEBVPxRigidBody@physx@@@Z 0000000180008c50 f   PxAutoGeneratedMetaDataObjects.obj
 0001:00007c50       ?getPxScene_CCDContactModifyCallback@@YAPEAVPxCCDContactModifyCallback@physx@@PEBVPxScene@2@@Z 0000000180008c50 f   PxAutoGeneratedMetaDataObjects.obj
 0001:00007c50       ?setPxArticulationJoint_TwistLimit@@YAXPEAVPxArticulationJoint@physx@@MM@Z 0000000180008c50 f   PxAutoGeneratedMetaDataObjects.obj
 0001:00007c60       ?getPxRigidBody_AngularVelocity@@YA?AVPxVec3@physx@@PEBVPxRigidBody@2@@Z 0000000180008c60 f   PxAutoGeneratedMetaDataObjects.obj
 0001:00007c90       ?getPxRigidBody_CMassLocalPose@@YA?AVPxTransform@physx@@PEBVPxRigidBody@2@@Z 0000000180008c90 f   PxAutoGeneratedMetaDataObjects.obj
 0001:00007cc0       ?getPxRigidBody_LinearVelocity@@YA?AVPxVec3@physx@@PEBVPxRigidBody@2@@Z 0000000180008cc0 f   PxAutoGeneratedMetaDataObjects.obj
 0001:00007cc0       ?getPxShape_Flags@@YA?AV?$PxFlags@W4Enum@PxShapeFlag@physx@@E@physx@@PEBVPxShape@2@@Z 0000000180008cc0 f   PxAutoGeneratedMetaDataObjects.obj
 0001:00007cf0       ?getPxRigidBody_MassSpaceInertiaTensor@@YA?AVPxVec3@physx@@PEBVPxRigidBody@2@@Z 0000000180008cf0 f   PxAutoGeneratedMetaDataObjects.obj
 0001:00007d20       ?getPxRigidBody_MassSpaceInvInertiaTensor@@YA?AVPxVec3@physx@@PEBVPxRigidBody@2@@Z 0000000180008d20 f   PxAutoGeneratedMetaDataObjects.obj
 0001:00007d50       ?getPxRigidBody_MaxAngularVelocity@@YAMPEBVPxRigidBody@physx@@@Z 0000000180008d50 f   PxAutoGeneratedMetaDataObjects.obj
 0001:00007d50       ?getPxScene_FilterShader@@YAP6A?AV?$PxFlags@W4Enum@PxFilterFlag@physx@@G@physx@@IUPxFilterData@2@I0AEAV?$PxFlags@W4Enum@PxPairFlag@physx@@G@2@PEBXI@ZPEBVPxScene@2@@Z 0000000180008d50 f   PxAutoGeneratedMetaDataObjects.obj
 0001:00007d60       ?getPxRigidBody_MaxContactImpulse@@YAMPEBVPxRigidBody@physx@@@Z 0000000180008d60 f   PxAutoGeneratedMetaDataObjects.obj
 0001:00007d60       ?setPxScene_Gravity@@YAXPEAVPxScene@physx@@AEBVPxVec3@2@@Z 0000000180008d60 f   PxAutoGeneratedMetaDataObjects.obj
 0001:00007d70       ?getPxRigidBody_MaxDepenetrationVelocity@@YAMPEBVPxRigidBody@physx@@@Z 0000000180008d70 f   PxAutoGeneratedMetaDataObjects.obj
 0001:00007d80       ?getPxRigidBody_MaxLinearVelocity@@YAMPEBVPxRigidBody@physx@@@Z 0000000180008d80 f   PxAutoGeneratedMetaDataObjects.obj
 0001:00007d90       ?getPxRigidBody_MinCCDAdvanceCoefficient@@YAMPEBVPxRigidBody@physx@@@Z 0000000180008d90 f   PxAutoGeneratedMetaDataObjects.obj
 0001:00007da0       ?getPxRigidBody_RigidBodyFlags@@YA?AV?$PxFlags@W4Enum@PxRigidBodyFlag@physx@@G@physx@@PEBVPxRigidBody@2@@Z 0000000180008da0 f   PxAutoGeneratedMetaDataObjects.obj
 0001:00007dd0       ?getPxRigidDynamic_ContactReportThreshold@@YAMPEBVPxRigidDynamic@physx@@@Z 0000000180008dd0 f   PxAutoGeneratedMetaDataObjects.obj
 0001:00007de0       ?getPxRigidDynamic_RigidDynamicLockFlags@@YA?AV?$PxFlags@W4Enum@PxRigidDynamicLockFlag@physx@@E@physx@@PEBVPxRigidDynamic@2@@Z 0000000180008de0 f   PxAutoGeneratedMetaDataObjects.obj
 0001:00007e10       ?getPxRigidDynamic_SolverIterationCounts@@YAXPEBVPxRigidDynamic@physx@@AEAI1@Z 0000000180008e10 f   PxAutoGeneratedMetaDataObjects.obj
 0001:00007e20       ?getPxRigidDynamic_StabilizationThreshold@@YAMPEBVPxRigidDynamic@physx@@@Z 0000000180008e20 f   PxAutoGeneratedMetaDataObjects.obj
 0001:00007e20       ?getPxScene_FrictionType@@YA?AW4Enum@PxFrictionType@physx@@PEBVPxScene@3@@Z 0000000180008e20 f   PxAutoGeneratedMetaDataObjects.obj
 0001:00007e30       ?getPxRigidDynamic_WakeCounter@@YAMPEBVPxRigidDynamic@physx@@@Z 0000000180008e30 f   PxAutoGeneratedMetaDataObjects.obj
 0001:00007e40       ?getPxSceneDescBounceThresholdVelocity@@YAMPEBVPxSceneDesc@physx@@@Z 0000000180008e40 f i PxAutoGeneratedMetaDataObjects.obj
 0001:00007e50       ?getPostFilterShader@NpBatchQuery@physx@@UEBAP6A?AW4Enum@PxQueryHitType@2@UPxFilterData@2@0PEBXIAEBUPxQueryHit@2@@ZXZ 0000000180008e50 f i NpBatchQuery.obj
 0001:00007e50       ?getPxSceneDescBroadPhaseCallback@@YAPEAVPxBroadPhaseCallback@physx@@PEBVPxSceneDesc@2@@Z 0000000180008e50 f i PxAutoGeneratedMetaDataObjects.obj
 0001:00007e60       ?getDefaultContactReportStreamBufferSize@NPhaseCore@Sc@physx@@QEBAIXZ 0000000180008e60 f i SimulationController_static_64:ScNPhaseCore.obj
 0001:00007e60       ?getPxSceneDescBroadPhaseType@@YA?AW4Enum@PxBroadPhaseType@physx@@PEBVPxSceneDesc@3@@Z 0000000180008e60 f i PxAutoGeneratedMetaDataObjects.obj
 0001:00007e60       ?getPxSimulationStatisticsNbDiscreteContactPairsWithCacheHits@@YAIPEBVPxSimulationStatistics@physx@@@Z 0000000180008e60 f i PxAutoGeneratedMetaDataObjects.obj
 0001:00007e70       ?getPxSceneDescCcdMaxPasses@@YAIPEBVPxSceneDesc@physx@@@Z 0000000180008e70 f i PxAutoGeneratedMetaDataObjects.obj
 0001:00007e80       ?getPxSceneDescCcdMaxSeparation@@YAMPEBVPxSceneDesc@physx@@@Z 0000000180008e80 f i PxAutoGeneratedMetaDataObjects.obj
 0001:00007e90       ?getPxSceneDescCcdThreshold@@YAMPEBVPxSceneDesc@physx@@@Z 0000000180008e90 f i PxAutoGeneratedMetaDataObjects.obj
 0001:00007ea0       ?getLines@RenderBuffer@Cm@physx@@UEBAPEBUPxDebugLine@3@XZ 0000000180008ea0 f i NpScene.obj
 0001:00007ea0       ?getName@?$NpActorTemplate@VPxArticulationLink@physx@@@physx@@UEBAPEBDXZ 0000000180008ea0 f i NpArticulationLink.obj
 0001:00007ea0       ?getName@?$NpActorTemplate@VPxRigidDynamic@physx@@@physx@@UEBAPEBDXZ 0000000180008ea0 f i NpRigidDynamic.obj
 0001:00007ea0       ?getName@?$NpActorTemplate@VPxRigidStatic@physx@@@physx@@UEBAPEBDXZ 0000000180008ea0 f i NpRigidStatic.obj
 0001:00007ea0       ?getPxSceneDescContactModifyCallback@@YAPEAVPxContactModifyCallback@physx@@PEBVPxSceneDesc@2@@Z 0000000180008ea0 f i PxAutoGeneratedMetaDataObjects.obj
 0001:00007eb0       ?getPxSceneDescContactReportStreamBufferSize@@YAIPEBVPxSceneDesc@physx@@@Z 0000000180008eb0 f i PxAutoGeneratedMetaDataObjects.obj
 0001:00007ec0       ?getAggregate@?$NpArticulationTemplate@VPxArticulation@physx@@@physx@@UEBAPEAVPxAggregate@2@XZ 0000000180008ec0 f i NpArticulation.obj
 0001:00007ec0       ?getAggregate@?$NpArticulationTemplate@VPxArticulationReducedCoordinate@physx@@@physx@@UEBAPEAVPxAggregate@2@XZ 0000000180008ec0 f i NpArticulationReducedCoordinate.obj
 0001:00007ec0       ?getCreatedPairs@BroadPhaseMBP@Bp@physx@@UEAAPEAUBroadPhasePair@23@XZ 0000000180008ec0 f i LowLevelAABB_static_64:BpBroadPhaseMBP.obj
 0001:00007ec0       ?getPxSceneDescCpuDispatcher@@YAPEAVPxCpuDispatcher@physx@@PEBVPxSceneDesc@2@@Z 0000000180008ec0 f i PxAutoGeneratedMetaDataObjects.obj
 0001:00007ed0       ?getName@?$NpArticulationTemplate@VPxArticulation@physx@@@physx@@UEBAPEBDXZ 0000000180008ed0 f i NpArticulation.obj
 0001:00007ed0       ?getName@?$NpArticulationTemplate@VPxArticulationReducedCoordinate@physx@@@physx@@UEBAPEBDXZ 0000000180008ed0 f i NpArticulationReducedCoordinate.obj
 0001:00007ed0       ?getPxSceneDescCudaContextManager@@YAPEAVPxCudaContextManager@physx@@PEBVPxSceneDesc@2@@Z 0000000180008ed0 f i PxAutoGeneratedMetaDataObjects.obj
 0001:00007ee0       ?getPxSceneDescDynamicStructure@@YA?AW4Enum@PxPruningStructureType@physx@@PEBVPxSceneDesc@3@@Z 0000000180008ee0 f i PxAutoGeneratedMetaDataObjects.obj
 0001:00007ef0       ?getNbDeletedPairs@BroadPhaseMBP@Bp@physx@@UEBAIXZ 0000000180008ef0 f i LowLevelAABB_static_64:BpBroadPhaseMBP.obj
 0001:00007ef0       ?getPxSceneDescDynamicTreeRebuildRateHint@@YAIPEBVPxSceneDesc@physx@@@Z 0000000180008ef0 f i PxAutoGeneratedMetaDataObjects.obj
 0001:00007f00       ?getFilterShaderData@NpBatchQuery@physx@@UEBAPEBXXZ 0000000180008f00 f i NpBatchQuery.obj
 0001:00007f00       ?getPxSceneDescFilterCallback@@YAPEAVPxSimulationFilterCallback@physx@@PEBVPxSceneDesc@2@@Z 0000000180008f00 f i PxAutoGeneratedMetaDataObjects.obj
 0001:00007f10       ?getPxSceneDescFilterShader@@YAP6A?AV?$PxFlags@W4Enum@PxFilterFlag@physx@@G@physx@@IUPxFilterData@2@I0AEAV?$PxFlags@W4Enum@PxPairFlag@physx@@G@2@PEBXI@ZPEBVPxSceneDesc@2@@Z 0000000180008f10 f i PxAutoGeneratedMetaDataObjects.obj
 0001:00007f10       ?getTexts@RenderBuffer@Cm@physx@@UEBAPEBUPxDebugText@3@XZ 0000000180008f10 f i NpScene.obj
 0001:00007f20       ?getActor@NpShape@physx@@UEBAPEAVPxRigidActor@2@XZ 0000000180008f20 f i NpShape.obj
 0001:00007f20       ?getPxSceneDescFilterShaderData@@YAPEBXPEBVPxSceneDesc@physx@@@Z 0000000180008f20 f i PxAutoGeneratedMetaDataObjects.obj
 0001:00007f20       ?getPxTriangleMeshGeometryTriangleMesh@@YAPEAVPxTriangleMesh@physx@@PEBVPxTriangleMeshGeometry@2@@Z 0000000180008f20 f i PxAutoGeneratedMetaDataObjects.obj
 0001:00007f20       ?getTriangles@RenderBuffer@Cm@physx@@UEBAPEBUPxDebugTriangle@3@XZ 0000000180008f20 f i NpScene.obj
 0001:00007f30       ?getNbTriangles@RenderBuffer@Cm@physx@@UEBAIXZ 0000000180008f30 f i NpScene.obj
 0001:00007f30       ?getPxSceneDescFilterShaderDataSize@@YAIPEBVPxSceneDesc@physx@@@Z 0000000180008f30 f i PxAutoGeneratedMetaDataObjects.obj
 0001:00007f40       ?getPxSceneDescFlags@@YA?AV?$PxFlags@W4Enum@PxSceneFlag@physx@@I@physx@@PEBVPxSceneDesc@2@@Z 0000000180008f40 f i PxAutoGeneratedMetaDataObjects.obj
 0001:00007f50       ?getPxSceneDescFrictionOffsetThreshold@@YAMPEBVPxSceneDesc@physx@@@Z 0000000180008f50 f i PxAutoGeneratedMetaDataObjects.obj
 0001:00007f60       ?getPxSceneDescFrictionType@@YA?AW4Enum@PxFrictionType@physx@@PEBVPxSceneDesc@3@@Z 0000000180008f60 f i PxAutoGeneratedMetaDataObjects.obj
 0001:00007f70       ?getPxSceneDescGpuComputeVersion@@YAIPEBVPxSceneDesc@physx@@@Z 0000000180008f70 f i PxAutoGeneratedMetaDataObjects.obj
 0001:00007f80       ?getPxSceneDescGpuDynamicsConfig@@YA?AUPxgDynamicsMemoryConfig@physx@@PEBVPxSceneDesc@2@@Z 0000000180008f80 f i PxAutoGeneratedMetaDataObjects.obj
 0001:00007fa0       ?getPxSceneDescGpuMaxNumPartitions@@YAIPEBVPxSceneDesc@physx@@@Z 0000000180008fa0 f i PxAutoGeneratedMetaDataObjects.obj
 0001:00007fb0       ?getFilterShaderDataSize@NpBatchQuery@physx@@UEBAIXZ 0000000180008fb0 f i NpBatchQuery.obj
 0001:00007fb0       ?getPxSceneDescKineKineFilteringMode@@YA?AW4Enum@PxPairFilteringMode@physx@@PEBVPxSceneDesc@3@@Z 0000000180008fb0 f i PxAutoGeneratedMetaDataObjects.obj
 0001:00007fb0       ?getPxSimulationStatisticsPeakConstraintMemory@@YAIPEBVPxSimulationStatistics@physx@@@Z 0000000180008fb0 f i PxAutoGeneratedMetaDataObjects.obj
 0001:00007fc0       ?getPxSceneDescLimits@@YA?AVPxSceneLimits@physx@@PEBVPxSceneDesc@2@@Z 0000000180008fc0 f i PxAutoGeneratedMetaDataObjects.obj
 0001:00007fe0       ?getPxSceneDescMaxBiasCoefficient@@YAMPEBVPxSceneDesc@physx@@@Z 0000000180008fe0 f i PxAutoGeneratedMetaDataObjects.obj
 0001:00007ff0       ?getPxSceneDescMaxNbContactDataBlocks@@YAIPEBVPxSceneDesc@physx@@@Z 0000000180008ff0 f i PxAutoGeneratedMetaDataObjects.obj
 0001:00008000       ?getPxSceneDescNbContactDataBlocks@@YAIPEBVPxSceneDesc@physx@@@Z 0000000180009000 f i PxAutoGeneratedMetaDataObjects.obj
 0001:00008010       ?getPxSceneDescSanityBounds@@YA?AVPxBounds3@physx@@PEBVPxSceneDesc@2@@Z 0000000180009010 f i PxAutoGeneratedMetaDataObjects.obj
 0001:00008050       ?getPxSceneDescSceneQueryUpdateMode@@YA?AW4Enum@PxSceneQueryUpdateMode@physx@@PEBVPxSceneDesc@3@@Z 0000000180009050 f i PxAutoGeneratedMetaDataObjects.obj
 0001:00008060       ?getPxSceneDescSolverArticulationBatchSize@@YAIPEBVPxSceneDesc@physx@@@Z 0000000180009060 f i PxAutoGeneratedMetaDataObjects.obj
 0001:00008070       ?getMaxUsedBlockCount@PxcNpMemBlockPool@physx@@QEBAIXZ 0000000180009070 f i LowLevel_static_64:PxcNpMemBlockPool.obj
 0001:00008070       ?getPxSceneDescSolverBatchSize@@YAIPEBVPxSceneDesc@physx@@@Z 0000000180009070 f i PxAutoGeneratedMetaDataObjects.obj
 0001:00008080       ?getPxSceneDescSolverOffsetSlop@@YAMPEBVPxSceneDesc@physx@@@Z 0000000180009080 f i PxAutoGeneratedMetaDataObjects.obj
 0001:00008090       ?getPxSceneDescSolverType@@YA?AW4Enum@PxSolverType@physx@@PEBVPxSceneDesc@3@@Z 0000000180009090 f i PxAutoGeneratedMetaDataObjects.obj
 0001:000080a0       ?getPxSceneDescStaticKineFilteringMode@@YA?AW4Enum@PxPairFilteringMode@physx@@PEBVPxSceneDesc@3@@Z 00000001800090a0 f i PxAutoGeneratedMetaDataObjects.obj
 0001:000080a0       ?getPxSimulationStatisticsNbDiscreteContactPairsTotal@@YAIPEBVPxSimulationStatistics@physx@@@Z 00000001800090a0 f i PxAutoGeneratedMetaDataObjects.obj
 0001:000080b0       ?getPxSceneDescStaticStructure@@YA?AW4Enum@PxPruningStructureType@physx@@PEBVPxSceneDesc@3@@Z 00000001800090b0 f i PxAutoGeneratedMetaDataObjects.obj
 0001:000080c0       ?getPxSceneDescUserData@@YAPEAXPEBVPxSceneDesc@physx@@@Z 00000001800090c0 f i PxAutoGeneratedMetaDataObjects.obj
 0001:000080d0       ?getPxSceneDescWakeCounterResetValue@@YAMPEBVPxSceneDesc@physx@@@Z 00000001800090d0 f i PxAutoGeneratedMetaDataObjects.obj
 0001:000080e0       ?getNbCcdBodies@PxgSimulationControllerCallback@@UEAAIXZ 00000001800090e0 f i SimulationController_static_64:ScScene.obj
 0001:000080e0       ?getNbPoints@RenderBuffer@Cm@physx@@UEBAIXZ 00000001800090e0 f i NpScene.obj
 0001:000080e0       ?getPxSceneLimitsMaxNbAggregates@@YAIPEBVPxSceneLimits@physx@@@Z 00000001800090e0 f i PxAutoGeneratedMetaDataObjects.obj
 0001:000080e0       ?getPxSimulationStatisticsNbDynamicBodies@@YAIPEBVPxSimulationStatistics@physx@@@Z 00000001800090e0 f i PxAutoGeneratedMetaDataObjects.obj
 0001:000080e0       ?getPxgDynamicsMemoryConfigPatchStreamSize@@YAIPEBUPxgDynamicsMemoryConfig@physx@@@Z 00000001800090e0 f i PxAutoGeneratedMetaDataObjects.obj
 0001:000080f0       ?getPxSceneLimitsMaxNbBroadPhaseOverlaps@@YAIPEBVPxSceneLimits@physx@@@Z 00000001800090f0 f i PxAutoGeneratedMetaDataObjects.obj
 0001:000080f0       ?getPxgDynamicsMemoryConfigFoundLostPairsCapacity@@YAIPEBUPxgDynamicsMemoryConfig@physx@@@Z 00000001800090f0 f i PxAutoGeneratedMetaDataObjects.obj
 0001:00008100       ?getPxSceneLimitsMaxNbConstraints@@YAIPEBVPxSceneLimits@physx@@@Z 0000000180009100 f i PxAutoGeneratedMetaDataObjects.obj
 0001:00008100       ?getPxSimulationStatisticsNbKinematicBodies@@YAIPEBVPxSimulationStatistics@physx@@@Z 0000000180009100 f i PxAutoGeneratedMetaDataObjects.obj
 0001:00008100       ?getPxgDynamicsMemoryConfigForceStreamCapacity@@YAIPEBUPxgDynamicsMemoryConfig@physx@@@Z 0000000180009100 f i PxAutoGeneratedMetaDataObjects.obj
 0001:00008110       ?getPxSceneLimitsMaxNbDynamicShapes@@YAIPEBVPxSceneLimits@physx@@@Z 0000000180009110 f i PxAutoGeneratedMetaDataObjects.obj
 0001:00008110       ?getPxSimulationStatisticsNbStaticBodies@@YAIPEBVPxSimulationStatistics@physx@@@Z 0000000180009110 f i PxAutoGeneratedMetaDataObjects.obj
 0001:00008110       ?getPxgDynamicsMemoryConfigContactStreamSize@@YAIPEBUPxgDynamicsMemoryConfig@physx@@@Z 0000000180009110 f i PxAutoGeneratedMetaDataObjects.obj
 0001:00008120       ?getNbCreatedPairs@BroadPhaseABP@Bp@physx@@UEBAIXZ 0000000180009120 f i LowLevelAABB_static_64:BpBroadPhaseABP.obj
 0001:00008120       ?getPxSceneLimitsMaxNbRegions@@YAIPEBVPxSceneLimits@physx@@@Z 0000000180009120 f i PxAutoGeneratedMetaDataObjects.obj
 0001:00008120       ?getPxgDynamicsMemoryConfigHeapCapacity@@YAIPEBUPxgDynamicsMemoryConfig@physx@@@Z 0000000180009120 f i PxAutoGeneratedMetaDataObjects.obj
 0001:00008120       ?getReference@FanoutTask@Cm@physx@@UEBAHXZ 0000000180009120 f i SimulationController_static_64:ScScene.obj
 0001:00008130       ?getPxScene_Actors@@YAIPEBVPxScene@physx@@V?$PxFlags@W4Enum@PxActorTypeFlag@physx@@G@2@PEAPEAVPxActor@2@I@Z 0000000180009130 f   PxAutoGeneratedMetaDataObjects.obj
 0001:00008160       ?getPxScene_Aggregates@@YAIPEBVPxScene@physx@@PEAPEAVPxAggregate@2@I@Z 0000000180009160 f   PxAutoGeneratedMetaDataObjects.obj
 0001:00008160       ?getPxShape_Materials@@YAIPEBVPxShape@physx@@PEAPEAVPxMaterial@2@I@Z 0000000180009160 f   PxAutoGeneratedMetaDataObjects.obj
 0001:00008170       ?getPxScene_Articulations@@YAIPEBVPxScene@physx@@PEAPEAVPxArticulationBase@2@I@Z 0000000180009170 f   PxAutoGeneratedMetaDataObjects.obj
 0001:00008180       ?getPxScene_BroadPhaseCallback@@YAPEAVPxBroadPhaseCallback@physx@@PEBVPxScene@2@@Z 0000000180009180 f   PxAutoGeneratedMetaDataObjects.obj
 0001:00008180       ?getPxShape_IsExclusive@@YA_NPEBVPxShape@physx@@@Z 0000000180009180 f   PxAutoGeneratedMetaDataObjects.obj
 0001:00008180       ?setPxArticulationJoint_TwistLimitEnabled@@YAXPEAVPxArticulationJoint@physx@@_N@Z 0000000180009180 f   PxAutoGeneratedMetaDataObjects.obj
 0001:00008190       ?getPxScene_BroadPhaseRegions@@YAIPEBVPxScene@physx@@PEAUPxBroadPhaseRegionInfo@2@I@Z 0000000180009190 f   PxAutoGeneratedMetaDataObjects.obj
 0001:000081a0       ?getPxScene_BroadPhaseType@@YA?AW4Enum@PxBroadPhaseType@physx@@PEBVPxScene@3@@Z 00000001800091a0 f   PxAutoGeneratedMetaDataObjects.obj
 0001:000081b0       ?getPxScene_Constraints@@YAIPEBVPxScene@physx@@PEAPEAVPxConstraint@2@I@Z 00000001800091b0 f   PxAutoGeneratedMetaDataObjects.obj
 0001:000081c0       ?getPxScene_ContactReportStreamBufferSize@@YAIPEBVPxScene@physx@@@Z 00000001800091c0 f   PxAutoGeneratedMetaDataObjects.obj
 0001:000081d0       ?getPxScene_DynamicStructure@@YA?AW4Enum@PxPruningStructureType@physx@@PEBVPxScene@3@@Z 00000001800091d0 f   PxAutoGeneratedMetaDataObjects.obj
 0001:000081d0       ?setPxRigidDynamic_SolverIterationCounts@@YAXPEAVPxRigidDynamic@physx@@II@Z 00000001800091d0 f   PxAutoGeneratedMetaDataObjects.obj
 0001:000081e0       ?getPxScene_DynamicTreeRebuildRateHint@@YAIPEBVPxScene@physx@@@Z 00000001800091e0 f   PxAutoGeneratedMetaDataObjects.obj
 0001:000081f0       ?getPxScene_FilterCallback@@YAPEAVPxSimulationFilterCallback@physx@@PEBVPxScene@2@@Z 00000001800091f0 f   PxAutoGeneratedMetaDataObjects.obj
 0001:000081f0       ?setPxRigidBody_MaxLinearVelocity@@YAXPEAVPxRigidBody@physx@@M@Z 00000001800091f0 f   PxAutoGeneratedMetaDataObjects.obj
 0001:00008200       ?getPxScene_Flags@@YA?AV?$PxFlags@W4Enum@PxSceneFlag@physx@@I@physx@@PEBVPxScene@2@@Z 0000000180009200 f   PxAutoGeneratedMetaDataObjects.obj
 0001:00008230       ?getPxScene_Gravity@@YA?AVPxVec3@physx@@PEBVPxScene@2@@Z 0000000180009230 f   PxAutoGeneratedMetaDataObjects.obj
 0001:00008260       ?getPxScene_KinematicKinematicFilteringMode@@YA?AW4Enum@PxPairFilteringMode@physx@@PEBVPxScene@3@@Z 0000000180009260 f   PxAutoGeneratedMetaDataObjects.obj
 0001:00008270       ?getPxScene_Limits@@YA?AVPxSceneLimits@physx@@PEBVPxScene@2@@Z 0000000180009270 f   PxAutoGeneratedMetaDataObjects.obj
 0001:000082a0       ?getPxScene_MaxNbContactDataBlocksUsed@@YAIPEBVPxScene@physx@@@Z 00000001800092a0 f   PxAutoGeneratedMetaDataObjects.obj
 0001:000082b0       ?getPxScene_SceneQueryStaticTimestamp@@YAIPEBVPxScene@physx@@@Z 00000001800092b0 f   PxAutoGeneratedMetaDataObjects.obj
 0001:000082c0       ?getPxScene_SceneQueryUpdateMode@@YA?AW4Enum@PxSceneQueryUpdateMode@physx@@PEBVPxScene@3@@Z 00000001800092c0 f   PxAutoGeneratedMetaDataObjects.obj
 0001:000082d0       ?getPxScene_SolverArticulationBatchSize@@YAIPEBVPxScene@physx@@@Z 00000001800092d0 f   PxAutoGeneratedMetaDataObjects.obj
 0001:000082e0       ?getPxScene_SolverBatchSize@@YAIPEBVPxScene@physx@@@Z 00000001800092e0 f   PxAutoGeneratedMetaDataObjects.obj
 0001:000082f0       ?getPxScene_StaticKinematicFilteringMode@@YA?AW4Enum@PxPairFilteringMode@physx@@PEBVPxScene@3@@Z 00000001800092f0 f   PxAutoGeneratedMetaDataObjects.obj
 0001:00008300       ?getPxScene_StaticStructure@@YA?AW4Enum@PxPruningStructureType@physx@@PEBVPxScene@3@@Z 0000000180009300 f   PxAutoGeneratedMetaDataObjects.obj
 0001:00008310       ?getPxScene_TaskManager@@YAPEAVPxTaskManager@physx@@PEBVPxScene@2@@Z 0000000180009310 f   PxAutoGeneratedMetaDataObjects.obj
 0001:00008320       ?getPxScene_VisualizationCullingBox@@YA?AVPxBounds3@physx@@PEBVPxScene@2@@Z 0000000180009320 f   PxAutoGeneratedMetaDataObjects.obj
 0001:00008350       ?getPxScene_WakeCounterResetValue@@YAMPEBVPxScene@physx@@@Z 0000000180009350 f   PxAutoGeneratedMetaDataObjects.obj
 0001:00008360       ?getPxShape_LocalPose@@YA?AVPxTransform@physx@@PEBVPxShape@2@@Z 0000000180009360 f   PxAutoGeneratedMetaDataObjects.obj
 0001:00008390       ?getPxShape_Name@@YAPEBDPEBVPxShape@physx@@@Z 0000000180009390 f   PxAutoGeneratedMetaDataObjects.obj
 0001:00008390       ?setPxArticulationJoint_TwistLimitContactDistance@@YAXPEAVPxArticulationJoint@physx@@M@Z 0000000180009390 f   PxAutoGeneratedMetaDataObjects.obj
 0001:000083a0       ?getPxShape_QueryFilterData@@YA?AUPxFilterData@physx@@PEBVPxShape@2@@Z 00000001800093a0 f   PxAutoGeneratedMetaDataObjects.obj
 0001:000083d0       ?getPxShape_SimulationFilterData@@YA?AUPxFilterData@physx@@PEBVPxShape@2@@Z 00000001800093d0 f   PxAutoGeneratedMetaDataObjects.obj
 0001:00008400       ?getNbActors@NpAggregate@physx@@UEBAIXZ 0000000180009400 f i NpAggregate.obj
 0001:00008400       ?getNbRigidActors@PruningStructure@Sq@physx@@UEBAIXZ 0000000180009400 f i SceneQuery_static_64:SqPruningStructure.obj
 0001:00008400       ?getNbTexts@RenderBuffer@Cm@physx@@UEBAIXZ 0000000180009400 f i NpScene.obj
 0001:00008400       ?getPxSimulationStatisticsCompressedContactSize@@YAIPEBVPxSimulationStatistics@physx@@@Z 0000000180009400 f i PxAutoGeneratedMetaDataObjects.obj
 0001:00008410       ?getMaxNbActors@NpAggregate@physx@@UEBAIXZ 0000000180009410 f i NpAggregate.obj
 0001:00008410       ?getPxSimulationStatisticsNbAggregates@@YAIPEBVPxSimulationStatistics@physx@@@Z 0000000180009410 f i PxAutoGeneratedMetaDataObjects.obj
 0001:00008420       ?getPxSimulationStatisticsNbArticulations@@YAIPEBVPxSimulationStatistics@physx@@@Z 0000000180009420 f i PxAutoGeneratedMetaDataObjects.obj
 0001:00008430       ?getPxSimulationStatisticsNbAxisSolverConstraints@@YAIPEBVPxSimulationStatistics@physx@@@Z 0000000180009430 f i PxAutoGeneratedMetaDataObjects.obj
 0001:00008440       ?getPxSimulationStatisticsNbBroadPhaseAdds@@YAIPEBVPxSimulationStatistics@physx@@@Z 0000000180009440 f i PxAutoGeneratedMetaDataObjects.obj
 0001:00008450       ?getPxSimulationStatisticsNbBroadPhaseRemoves@@YAIPEBVPxSimulationStatistics@physx@@@Z 0000000180009450 f i PxAutoGeneratedMetaDataObjects.obj
 0001:00008460       ?getPxSimulationStatisticsNbDiscreteContactPairsWithContacts@@YAIPEBVPxSimulationStatistics@physx@@@Z 0000000180009460 f i PxAutoGeneratedMetaDataObjects.obj
 0001:00008470       ?getPxSimulationStatisticsNbLostPairs@@YAIPEBVPxSimulationStatistics@physx@@@Z 0000000180009470 f i PxAutoGeneratedMetaDataObjects.obj
 0001:00008480       ?getPxSimulationStatisticsNbLostTouches@@YAIPEBVPxSimulationStatistics@physx@@@Z 0000000180009480 f i PxAutoGeneratedMetaDataObjects.obj
 0001:00008490       ?getPxSimulationStatisticsNbNewPairs@@YAIPEBVPxSimulationStatistics@physx@@@Z 0000000180009490 f i PxAutoGeneratedMetaDataObjects.obj
 0001:000084a0       ?getPxSimulationStatisticsNbNewTouches@@YAIPEBVPxSimulationStatistics@physx@@@Z 00000001800094a0 f i PxAutoGeneratedMetaDataObjects.obj
 0001:000084b0       ?getPxSimulationStatisticsNbPartitions@@YAIPEBVPxSimulationStatistics@physx@@@Z 00000001800094b0 f i PxAutoGeneratedMetaDataObjects.obj
 0001:000084c0       ?getPxSimulationStatisticsRequiredContactConstraintMemory@@YAIPEBVPxSimulationStatistics@physx@@@Z 00000001800094c0 f i PxAutoGeneratedMetaDataObjects.obj
 0001:000084d0       ?getPxTolerancesScaleLength@@YAMPEBVPxTolerancesScale@physx@@@Z 00000001800094d0 f i PxAutoGeneratedMetaDataObjects.obj
 0001:000084e0       ?getPxTolerancesScale_IsValid@@YA_NPEBVPxTolerancesScale@physx@@@Z 00000001800094e0 f   PxAutoGeneratedMetaDataObjects.obj
 0001:000084f0       ?getPxTriangleMeshGeometryMeshFlags@@YA?AV?$PxFlags@W4Enum@PxMeshGeometryFlag@physx@@E@physx@@PEBVPxTriangleMeshGeometry@2@@Z 00000001800094f0 f i PxAutoGeneratedMetaDataObjects.obj
 0001:00008500       ?setCpuDispatcher@PxTaskMgr@physx@@UEAAXAEAVPxCpuDispatcher@2@@Z 0000000180009500 f i PhysXTask_static_64:TaskManager.obj
 0001:00008500       ?setPxActorUserData@@YAXPEAVPxActor@physx@@PEAX@Z 0000000180009500 f i PxAutoGeneratedMetaDataObjects.obj
 0001:00008500       ?setPxArticulationBaseUserData@@YAXPEAVPxArticulationBase@physx@@PEAX@Z 0000000180009500 f i PxAutoGeneratedMetaDataObjects.obj
 0001:00008500       ?setPxMaterialUserData@@YAXPEAVPxMaterial@physx@@PEAX@Z 0000000180009500 f i PxAutoGeneratedMetaDataObjects.obj
 0001:00008500       ?setPxSceneDescSimulationEventCallback@@YAXPEAVPxSceneDesc@physx@@PEAVPxSimulationEventCallback@2@@Z 0000000180009500 f i PxAutoGeneratedMetaDataObjects.obj
 0001:00008500       ?setPxShapeUserData@@YAXPEAVPxShape@physx@@PEAX@Z 0000000180009500 f i PxAutoGeneratedMetaDataObjects.obj
 0001:00008510       ?setPxActor_ActorFlags@@YAXPEAVPxActor@physx@@V?$PxFlags@W4Enum@PxActorFlag@physx@@E@2@@Z 0000000180009510 f   PxAutoGeneratedMetaDataObjects.obj
 0001:00008530       ?setPxArticulationJointReducedCoordinate_MaxJointVelocity@@YAXPEAVPxArticulationJointReducedCoordinate@physx@@M@Z 0000000180009530 f   PxAutoGeneratedMetaDataObjects.obj
 0001:00008530       ?setPxArticulationJoint_SwingLimit@@YAXPEAVPxArticulationJoint@physx@@MM@Z 0000000180009530 f   PxAutoGeneratedMetaDataObjects.obj
 0001:00008540       ?setPxArticulationReducedCoordinate_ArticulationFlags@@YAXPEAVPxArticulationReducedCoordinate@physx@@V?$PxFlags@W4Enum@PxArticulationFlag@physx@@E@2@@Z 0000000180009540 f   PxAutoGeneratedMetaDataObjects.obj
 0001:00008560       ?setPxBoxGeometryHalfExtents@@YAXPEAVPxBoxGeometry@physx@@VPxVec3@2@@Z 0000000180009560 f i PxAutoGeneratedMetaDataObjects.obj
 0001:00008580       ?setPxCapsuleGeometryHalfHeight@@YAXPEAVPxCapsuleGeometry@physx@@M@Z 0000000180009580 f i PxAutoGeneratedMetaDataObjects.obj
 0001:00008590       ?setPxCapsuleGeometryRadius@@YAXPEAVPxCapsuleGeometry@physx@@M@Z 0000000180009590 f i PxAutoGeneratedMetaDataObjects.obj
 0001:00008590       ?setPxSphereGeometryRadius@@YAXPEAVPxSphereGeometry@physx@@M@Z 0000000180009590 f i PxAutoGeneratedMetaDataObjects.obj
 0001:00008590       ?setPxTolerancesScaleSpeed@@YAXPEAVPxTolerancesScale@physx@@M@Z 0000000180009590 f i PxAutoGeneratedMetaDataObjects.obj
 0001:000085a0       ?setPxConstraint_Flags@@YAXPEAVPxConstraint@physx@@V?$PxFlags@W4Enum@PxConstraintFlag@physx@@G@2@@Z 00000001800095a0 f   PxAutoGeneratedMetaDataObjects.obj
 0001:000085c0       ?setPxConvexMeshGeometryConvexMesh@@YAXPEAVPxConvexMeshGeometry@physx@@PEAVPxConvexMesh@2@@Z 00000001800095c0 f i PxAutoGeneratedMetaDataObjects.obj
 0001:000085c0       ?setPxSceneDescCcdContactModifyCallback@@YAXPEAVPxSceneDesc@physx@@PEAVPxCCDContactModifyCallback@2@@Z 00000001800095c0 f i PxAutoGeneratedMetaDataObjects.obj
 0001:000085d0       ?setPxConvexMeshGeometryMeshFlags@@YAXPEAVPxConvexMeshGeometry@physx@@V?$PxFlags@W4Enum@PxConvexMeshGeometryFlag@physx@@E@2@@Z 00000001800095d0 f i PxAutoGeneratedMetaDataObjects.obj
 0001:000085e0       ?setPxConvexMeshGeometryScale@@YAXPEAVPxConvexMeshGeometry@physx@@VPxMeshScale@2@@Z 00000001800095e0 f i PxAutoGeneratedMetaDataObjects.obj
 0001:000085e0       ?setPxTriangleMeshGeometryScale@@YAXPEAVPxTriangleMeshGeometry@physx@@VPxMeshScale@2@@Z 00000001800095e0 f i PxAutoGeneratedMetaDataObjects.obj
 0001:00008610       ?setPxHeightFieldDescConvexEdgeThreshold@@YAXPEAVPxHeightFieldDesc@physx@@M@Z 0000000180009610 f i PxAutoGeneratedMetaDataObjects.obj
 0001:00008620       ?setPxHeightFieldDescFlags@@YAXPEAVPxHeightFieldDesc@physx@@V?$PxFlags@W4Enum@PxHeightFieldFlag@physx@@G@2@@Z 0000000180009620 f i PxAutoGeneratedMetaDataObjects.obj
 0001:00008630       ?setPxHeightFieldDescFormat@@YAXPEAVPxHeightFieldDesc@physx@@W4Enum@PxHeightFieldFormat@2@@Z 0000000180009630 f i PxAutoGeneratedMetaDataObjects.obj
 0001:00008630       ?setPxSceneLimitsMaxNbStaticShapes@@YAXPEAVPxSceneLimits@physx@@I@Z 0000000180009630 f i PxAutoGeneratedMetaDataObjects.obj
 0001:00008630       ?setPxSimulationStatisticsNbActiveKinematicBodies@@YAXPEAVPxSimulationStatistics@physx@@I@Z 0000000180009630 f i PxAutoGeneratedMetaDataObjects.obj
 0001:00008630       ?setPxgDynamicsMemoryConfigTempBufferCapacity@@YAXPEAUPxgDynamicsMemoryConfig@physx@@I@Z 0000000180009630 f i PxAutoGeneratedMetaDataObjects.obj
 0001:00008640       ?setPxHeightFieldDescNbColumns@@YAXPEAVPxHeightFieldDesc@physx@@I@Z 0000000180009640 f i PxAutoGeneratedMetaDataObjects.obj
 0001:00008640       ?setPxSceneLimitsMaxNbBodies@@YAXPEAVPxSceneLimits@physx@@I@Z 0000000180009640 f i PxAutoGeneratedMetaDataObjects.obj
 0001:00008640       ?setPxSimulationStatisticsNbActiveDynamicBodies@@YAXPEAVPxSimulationStatistics@physx@@I@Z 0000000180009640 f i PxAutoGeneratedMetaDataObjects.obj
 0001:00008640       ?setPxgDynamicsMemoryConfigContactBufferCapacity@@YAXPEAUPxgDynamicsMemoryConfig@physx@@I@Z 0000000180009640 f i PxAutoGeneratedMetaDataObjects.obj
 0001:00008650       ?setPxHeightFieldDescNbRows@@YAXPEAVPxHeightFieldDesc@physx@@I@Z 0000000180009650 f i PxAutoGeneratedMetaDataObjects.obj
 0001:00008650       ?setPxSceneLimitsMaxNbActors@@YAXPEAVPxSceneLimits@physx@@I@Z 0000000180009650 f i PxAutoGeneratedMetaDataObjects.obj
 0001:00008650       ?setPxSimulationStatisticsNbActiveConstraints@@YAXPEAVPxSimulationStatistics@physx@@I@Z 0000000180009650 f i PxAutoGeneratedMetaDataObjects.obj
 0001:00008650       ?setPxgDynamicsMemoryConfigConstraintBufferCapacity@@YAXPEAUPxgDynamicsMemoryConfig@physx@@I@Z 0000000180009650 f i PxAutoGeneratedMetaDataObjects.obj
 0001:00008660       ?setPxHeightFieldDescSamples@@YAXPEAVPxHeightFieldDesc@physx@@UPxStridedData@2@@Z 0000000180009660 f i PxAutoGeneratedMetaDataObjects.obj
 0001:00008670       ?setPxHeightFieldGeometryColumnScale@@YAXPEAVPxHeightFieldGeometry@physx@@M@Z 0000000180009670 f i PxAutoGeneratedMetaDataObjects.obj
 0001:00008680       ?setPxHeightFieldGeometryHeightField@@YAXPEAVPxHeightFieldGeometry@physx@@PEAVPxHeightField@2@@Z 0000000180009680 f i PxAutoGeneratedMetaDataObjects.obj
 0001:00008680       ?setPxSceneUserData@@YAXPEAVPxScene@physx@@PEAX@Z 0000000180009680 f i PxAutoGeneratedMetaDataObjects.obj
 0001:00008690       ?setPxHeightFieldGeometryHeightFieldFlags@@YAXPEAVPxHeightFieldGeometry@physx@@V?$PxFlags@W4Enum@PxMeshGeometryFlag@physx@@E@2@@Z 0000000180009690 f i PxAutoGeneratedMetaDataObjects.obj
 0001:000086a0       ?setPxHeightFieldGeometryHeightScale@@YAXPEAVPxHeightFieldGeometry@physx@@M@Z 00000001800096a0 f i PxAutoGeneratedMetaDataObjects.obj
 0001:000086b0       ?setPxHeightFieldGeometryRowScale@@YAXPEAVPxHeightFieldGeometry@physx@@M@Z 00000001800096b0 f i PxAutoGeneratedMetaDataObjects.obj
 0001:000086c0       ?setPxMaterial_Flags@@YAXPEAVPxMaterial@physx@@V?$PxFlags@W4Enum@PxMaterialFlag@physx@@G@2@@Z 00000001800096c0 f   PxAutoGeneratedMetaDataObjects.obj
 0001:000086e0       ?setPxMeshScaleRotation@@YAXPEAVPxMeshScale@physx@@VPxQuat@2@@Z 00000001800096e0 f i PxAutoGeneratedMetaDataObjects.obj
 0001:00008700       ?setPxMeshScaleScale@@YAXPEAVPxMeshScale@physx@@VPxVec3@2@@Z 0000000180009700 f i PxAutoGeneratedMetaDataObjects.obj
 0001:00008700       ?setPxSceneDescGravity@@YAXPEAVPxSceneDesc@physx@@VPxVec3@2@@Z 0000000180009700 f i PxAutoGeneratedMetaDataObjects.obj
 0001:00008720       ?setGlobalPose@NpArticulationLink@physx@@UEAAXAEBVPxTransform@2@@Z 0000000180009720 f   NpArticulationLink.obj
 0001:00008720       ?setPxRigidActor_GlobalPose@@YAXPEAVPxRigidActor@physx@@AEBVPxTransform@2@@Z 0000000180009720 f   PxAutoGeneratedMetaDataObjects.obj
 0001:00008730       ?setPxRigidBody_AngularVelocity@@YAXPEAVPxRigidBody@physx@@AEBVPxVec3@2@@Z 0000000180009730 f   PxAutoGeneratedMetaDataObjects.obj
 0001:00008740       ?setPxRigidBody_LinearVelocity@@YAXPEAVPxRigidBody@physx@@AEBVPxVec3@2@@Z 0000000180009740 f   PxAutoGeneratedMetaDataObjects.obj
 0001:00008750       ?flush@NpScene@physx@@UEAAX_N@Z 0000000180009750 f   NpScene.obj
 0001:00008750       ?setPxRigidBody_MaxContactImpulse@@YAXPEAVPxRigidBody@physx@@M@Z 0000000180009750 f   PxAutoGeneratedMetaDataObjects.obj
 0001:00008760       ?setPxRigidBody_MaxDepenetrationVelocity@@YAXPEAVPxRigidBody@physx@@M@Z 0000000180009760 f   PxAutoGeneratedMetaDataObjects.obj
 0001:00008770       ?setPxRigidBody_RigidBodyFlags@@YAXPEAVPxRigidBody@physx@@V?$PxFlags@W4Enum@PxRigidBodyFlag@physx@@G@2@@Z 0000000180009770 f   PxAutoGeneratedMetaDataObjects.obj
 0001:00008790       ?setPxRigidDynamic_ContactReportThreshold@@YAXPEAVPxRigidDynamic@physx@@M@Z 0000000180009790 f   PxAutoGeneratedMetaDataObjects.obj
 0001:00008790       ?setPxScene_DynamicTreeRebuildRateHint@@YAXPEAVPxScene@physx@@I@Z 0000000180009790 f   PxAutoGeneratedMetaDataObjects.obj
 0001:000087a0       ?setPxRigidDynamic_RigidDynamicLockFlags@@YAXPEAVPxRigidDynamic@physx@@V?$PxFlags@W4Enum@PxRigidDynamicLockFlag@physx@@E@2@@Z 00000001800097a0 f   PxAutoGeneratedMetaDataObjects.obj
 0001:000087c0       ?setPxRigidDynamic_StabilizationThreshold@@YAXPEAVPxRigidDynamic@physx@@M@Z 00000001800097c0 f   PxAutoGeneratedMetaDataObjects.obj
 0001:000087c0       ?setPxScene_FrictionType@@YAXPEAVPxScene@physx@@W4Enum@PxFrictionType@2@@Z 00000001800097c0 f   PxAutoGeneratedMetaDataObjects.obj
 0001:000087d0       ?setPxRigidDynamic_WakeCounter@@YAXPEAVPxRigidDynamic@physx@@M@Z 00000001800097d0 f   PxAutoGeneratedMetaDataObjects.obj
 0001:000087e0       ?setPxSceneDescBounceThresholdVelocity@@YAXPEAVPxSceneDesc@physx@@M@Z 00000001800097e0 f i PxAutoGeneratedMetaDataObjects.obj
 0001:000087f0       ?setPxSceneDescBroadPhaseCallback@@YAXPEAVPxSceneDesc@physx@@PEAVPxBroadPhaseCallback@2@@Z 00000001800097f0 f i PxAutoGeneratedMetaDataObjects.obj
 0001:00008800       ?setPxSceneDescBroadPhaseType@@YAXPEAVPxSceneDesc@physx@@W4Enum@PxBroadPhaseType@2@@Z 0000000180009800 f i PxAutoGeneratedMetaDataObjects.obj
 0001:00008800       ?setPxSimulationStatisticsNbDiscreteContactPairsWithCacheHits@@YAXPEAVPxSimulationStatistics@physx@@I@Z 0000000180009800 f i PxAutoGeneratedMetaDataObjects.obj
 0001:00008810       ?setPxSceneDescCcdMaxPasses@@YAXPEAVPxSceneDesc@physx@@I@Z 0000000180009810 f i PxAutoGeneratedMetaDataObjects.obj
 0001:00008820       ?setPxSceneDescCcdMaxSeparation@@YAXPEAVPxSceneDesc@physx@@M@Z 0000000180009820 f i PxAutoGeneratedMetaDataObjects.obj
 0001:00008830       ?setPxSceneDescCcdThreshold@@YAXPEAVPxSceneDesc@physx@@M@Z 0000000180009830 f i PxAutoGeneratedMetaDataObjects.obj
 0001:00008840       ?setName@?$NpActorTemplate@VPxArticulationLink@physx@@@physx@@UEAAXPEBD@Z 0000000180009840 f i NpArticulationLink.obj
 0001:00008840       ?setName@?$NpActorTemplate@VPxRigidDynamic@physx@@@physx@@UEAAXPEBD@Z 0000000180009840 f i NpRigidDynamic.obj
 0001:00008840       ?setName@?$NpActorTemplate@VPxRigidStatic@physx@@@physx@@UEAAXPEBD@Z 0000000180009840 f i NpRigidStatic.obj
 0001:00008840       ?setPxSceneDescContactModifyCallback@@YAXPEAVPxSceneDesc@physx@@PEAVPxContactModifyCallback@2@@Z 0000000180009840 f i PxAutoGeneratedMetaDataObjects.obj
 0001:00008850       ?setPxSceneDescContactReportStreamBufferSize@@YAXPEAVPxSceneDesc@physx@@I@Z 0000000180009850 f i PxAutoGeneratedMetaDataObjects.obj
 0001:00008860       ?setPxSceneDescCpuDispatcher@@YAXPEAVPxSceneDesc@physx@@PEAVPxCpuDispatcher@2@@Z 0000000180009860 f i PxAutoGeneratedMetaDataObjects.obj
 0001:00008870       ?setName@?$NpArticulationTemplate@VPxArticulation@physx@@@physx@@UEAAXPEBD@Z 0000000180009870 f i NpArticulation.obj
 0001:00008870       ?setName@?$NpArticulationTemplate@VPxArticulationReducedCoordinate@physx@@@physx@@UEAAXPEBD@Z 0000000180009870 f i NpArticulationReducedCoordinate.obj
 0001:00008870       ?setPxSceneDescCudaContextManager@@YAXPEAVPxSceneDesc@physx@@PEAVPxCudaContextManager@2@@Z 0000000180009870 f i PxAutoGeneratedMetaDataObjects.obj
 0001:00008880       ?setPxSceneDescDynamicStructure@@YAXPEAVPxSceneDesc@physx@@W4Enum@PxPruningStructureType@2@@Z 0000000180009880 f i PxAutoGeneratedMetaDataObjects.obj
 0001:00008890       ?setPxSceneDescDynamicTreeRebuildRateHint@@YAXPEAVPxSceneDesc@physx@@I@Z 0000000180009890 f i PxAutoGeneratedMetaDataObjects.obj
 0001:000088a0       ?setPxSceneDescFilterCallback@@YAXPEAVPxSceneDesc@physx@@PEAVPxSimulationFilterCallback@2@@Z 00000001800098a0 f i PxAutoGeneratedMetaDataObjects.obj
 0001:000088b0       ?setPxSceneDescFilterShader@@YAXPEAVPxSceneDesc@physx@@P6A?AV?$PxFlags@W4Enum@PxFilterFlag@physx@@G@2@IUPxFilterData@2@I1AEAV?$PxFlags@W4Enum@PxPairFlag@physx@@G@2@PEBXI@Z@Z 00000001800098b0 f i PxAutoGeneratedMetaDataObjects.obj
 0001:000088c0       ?setPxSceneDescFilterShaderData@@YAXPEAVPxSceneDesc@physx@@PEBX@Z 00000001800098c0 f i PxAutoGeneratedMetaDataObjects.obj
 0001:000088c0       ?setPxTriangleMeshGeometryTriangleMesh@@YAXPEAVPxTriangleMeshGeometry@physx@@PEAVPxTriangleMesh@2@@Z 00000001800098c0 f i PxAutoGeneratedMetaDataObjects.obj
 0001:000088d0       ?setPxSceneDescFilterShaderDataSize@@YAXPEAVPxSceneDesc@physx@@I@Z 00000001800098d0 f i PxAutoGeneratedMetaDataObjects.obj
 0001:000088e0       ?setPxSceneDescFlags@@YAXPEAVPxSceneDesc@physx@@V?$PxFlags@W4Enum@PxSceneFlag@physx@@I@2@@Z 00000001800098e0 f i PxAutoGeneratedMetaDataObjects.obj
 0001:000088f0       ?setPxSceneDescFrictionOffsetThreshold@@YAXPEAVPxSceneDesc@physx@@M@Z 00000001800098f0 f i PxAutoGeneratedMetaDataObjects.obj
 0001:00008900       ?setPxSceneDescFrictionType@@YAXPEAVPxSceneDesc@physx@@W4Enum@PxFrictionType@2@@Z 0000000180009900 f i PxAutoGeneratedMetaDataObjects.obj
 0001:00008910       ?setPxSceneDescGpuComputeVersion@@YAXPEAVPxSceneDesc@physx@@I@Z 0000000180009910 f i PxAutoGeneratedMetaDataObjects.obj
 0001:00008920       ?setPxSceneDescGpuDynamicsConfig@@YAXPEAVPxSceneDesc@physx@@UPxgDynamicsMemoryConfig@2@@Z 0000000180009920 f i PxAutoGeneratedMetaDataObjects.obj
 0001:00008940       ?setPxSceneDescGpuMaxNumPartitions@@YAXPEAVPxSceneDesc@physx@@I@Z 0000000180009940 f i PxAutoGeneratedMetaDataObjects.obj
 0001:00008950       ?setPxSceneDescKineKineFilteringMode@@YAXPEAVPxSceneDesc@physx@@W4Enum@PxPairFilteringMode@2@@Z 0000000180009950 f i PxAutoGeneratedMetaDataObjects.obj
 0001:00008950       ?setPxSimulationStatisticsPeakConstraintMemory@@YAXPEAVPxSimulationStatistics@physx@@I@Z 0000000180009950 f i PxAutoGeneratedMetaDataObjects.obj
 0001:00008960       ?setPxSceneDescLimits@@YAXPEAVPxSceneDesc@physx@@VPxSceneLimits@2@@Z 0000000180009960 f i PxAutoGeneratedMetaDataObjects.obj
 0001:00008970       ?setPxSceneDescMaxBiasCoefficient@@YAXPEAVPxSceneDesc@physx@@M@Z 0000000180009970 f i PxAutoGeneratedMetaDataObjects.obj
 0001:00008980       ?setPxSceneDescMaxNbContactDataBlocks@@YAXPEAVPxSceneDesc@physx@@I@Z 0000000180009980 f i PxAutoGeneratedMetaDataObjects.obj
 0001:00008990       ?setPxSceneDescNbContactDataBlocks@@YAXPEAVPxSceneDesc@physx@@I@Z 0000000180009990 f i PxAutoGeneratedMetaDataObjects.obj
 0001:000089a0       ?setPxSceneDescSanityBounds@@YAXPEAVPxSceneDesc@physx@@VPxBounds3@2@@Z 00000001800099a0 f i PxAutoGeneratedMetaDataObjects.obj
 0001:000089e0       ?setPxSceneDescSceneQueryUpdateMode@@YAXPEAVPxSceneDesc@physx@@W4Enum@PxSceneQueryUpdateMode@2@@Z 00000001800099e0 f i PxAutoGeneratedMetaDataObjects.obj
 0001:000089f0       ?setPxSceneDescSolverArticulationBatchSize@@YAXPEAVPxSceneDesc@physx@@I@Z 00000001800099f0 f i PxAutoGeneratedMetaDataObjects.obj
 0001:00008a00       ?setPxSceneDescSolverBatchSize@@YAXPEAVPxSceneDesc@physx@@I@Z 0000000180009a00 f i PxAutoGeneratedMetaDataObjects.obj
 0001:00008a10       ?setPxSceneDescSolverOffsetSlop@@YAXPEAVPxSceneDesc@physx@@M@Z 0000000180009a10 f i PxAutoGeneratedMetaDataObjects.obj
 0001:00008a20       ?setPxSceneDescSolverType@@YAXPEAVPxSceneDesc@physx@@W4Enum@PxSolverType@2@@Z 0000000180009a20 f i PxAutoGeneratedMetaDataObjects.obj
 0001:00008a30       ?setPxSceneDescStaticKineFilteringMode@@YAXPEAVPxSceneDesc@physx@@W4Enum@PxPairFilteringMode@2@@Z 0000000180009a30 f i PxAutoGeneratedMetaDataObjects.obj
 0001:00008a30       ?setPxSimulationStatisticsNbDiscreteContactPairsTotal@@YAXPEAVPxSimulationStatistics@physx@@I@Z 0000000180009a30 f i PxAutoGeneratedMetaDataObjects.obj
 0001:00008a40       ?setPxSceneDescStaticStructure@@YAXPEAVPxSceneDesc@physx@@W4Enum@PxPruningStructureType@2@@Z 0000000180009a40 f i PxAutoGeneratedMetaDataObjects.obj
 0001:00008a50       ?setPxSceneDescUserData@@YAXPEAVPxSceneDesc@physx@@PEAX@Z 0000000180009a50 f i PxAutoGeneratedMetaDataObjects.obj
 0001:00008a60       ?setPxSceneDescWakeCounterResetValue@@YAXPEAVPxSceneDesc@physx@@M@Z 0000000180009a60 f i PxAutoGeneratedMetaDataObjects.obj
 0001:00008a70       ?setPxSceneDesc_ToDefault@@YAXPEAVPxSceneDesc@physx@@AEBVPxTolerancesScale@2@@Z 0000000180009a70 f   PxAutoGeneratedMetaDataObjects.obj
 0001:00008c70       ?setPxSceneLimitsMaxNbAggregates@@YAXPEAVPxSceneLimits@physx@@I@Z 0000000180009c70 f i PxAutoGeneratedMetaDataObjects.obj
 0001:00008c70       ?setPxSimulationStatisticsNbDynamicBodies@@YAXPEAVPxSimulationStatistics@physx@@I@Z 0000000180009c70 f i PxAutoGeneratedMetaDataObjects.obj
 0001:00008c70       ?setPxgDynamicsMemoryConfigPatchStreamSize@@YAXPEAUPxgDynamicsMemoryConfig@physx@@I@Z 0000000180009c70 f i PxAutoGeneratedMetaDataObjects.obj
 0001:00008c80       ?setPxSceneLimitsMaxNbBroadPhaseOverlaps@@YAXPEAVPxSceneLimits@physx@@I@Z 0000000180009c80 f i PxAutoGeneratedMetaDataObjects.obj
 0001:00008c80       ?setPxgDynamicsMemoryConfigFoundLostPairsCapacity@@YAXPEAUPxgDynamicsMemoryConfig@physx@@I@Z 0000000180009c80 f i PxAutoGeneratedMetaDataObjects.obj
 0001:00008c90       ?setPxSceneLimitsMaxNbConstraints@@YAXPEAVPxSceneLimits@physx@@I@Z 0000000180009c90 f i PxAutoGeneratedMetaDataObjects.obj
 0001:00008c90       ?setPxSimulationStatisticsNbKinematicBodies@@YAXPEAVPxSimulationStatistics@physx@@I@Z 0000000180009c90 f i PxAutoGeneratedMetaDataObjects.obj
 0001:00008c90       ?setPxgDynamicsMemoryConfigForceStreamCapacity@@YAXPEAUPxgDynamicsMemoryConfig@physx@@I@Z 0000000180009c90 f i PxAutoGeneratedMetaDataObjects.obj
 0001:00008ca0       ?setPxSceneLimitsMaxNbDynamicShapes@@YAXPEAVPxSceneLimits@physx@@I@Z 0000000180009ca0 f i PxAutoGeneratedMetaDataObjects.obj
 0001:00008ca0       ?setPxSimulationStatisticsNbStaticBodies@@YAXPEAVPxSimulationStatistics@physx@@I@Z 0000000180009ca0 f i PxAutoGeneratedMetaDataObjects.obj
 0001:00008ca0       ?setPxgDynamicsMemoryConfigContactStreamSize@@YAXPEAUPxgDynamicsMemoryConfig@physx@@I@Z 0000000180009ca0 f i PxAutoGeneratedMetaDataObjects.obj
 0001:00008cb0       ?setPxSceneLimitsMaxNbRegions@@YAXPEAVPxSceneLimits@physx@@I@Z 0000000180009cb0 f i PxAutoGeneratedMetaDataObjects.obj
 0001:00008cb0       ?setPxgDynamicsMemoryConfigHeapCapacity@@YAXPEAUPxgDynamicsMemoryConfig@physx@@I@Z 0000000180009cb0 f i PxAutoGeneratedMetaDataObjects.obj
 0001:00008cc0       ?setPxScene_BounceThresholdVelocity@@YAXPEAVPxScene@physx@@M@Z 0000000180009cc0 f   PxAutoGeneratedMetaDataObjects.obj
 0001:00008cd0       ?setPxScene_Limits@@YAXPEAVPxScene@physx@@AEBVPxSceneLimits@2@@Z 0000000180009cd0 f   PxAutoGeneratedMetaDataObjects.obj
 0001:00008ce0       ?setPxScene_NbContactDataBlocks@@YAXPEAVPxScene@physx@@I@Z 0000000180009ce0 f   PxAutoGeneratedMetaDataObjects.obj
 0001:00008cf0       ?setPxScene_SceneQueryUpdateMode@@YAXPEAVPxScene@physx@@W4Enum@PxSceneQueryUpdateMode@2@@Z 0000000180009cf0 f   PxAutoGeneratedMetaDataObjects.obj
 0001:00008d00       ?setPxScene_SolverArticulationBatchSize@@YAXPEAVPxScene@physx@@I@Z 0000000180009d00 f   PxAutoGeneratedMetaDataObjects.obj
 0001:00008d10       ?setPxScene_SolverBatchSize@@YAXPEAVPxScene@physx@@I@Z 0000000180009d10 f   PxAutoGeneratedMetaDataObjects.obj
 0001:00008d20       ?setPxScene_VisualizationCullingBox@@YAXPEAVPxScene@physx@@AEBVPxBounds3@2@@Z 0000000180009d20 f   PxAutoGeneratedMetaDataObjects.obj
 0001:00008d30       ?setPxShape_Flags@@YAXPEAVPxShape@physx@@V?$PxFlags@W4Enum@PxShapeFlag@physx@@E@2@@Z 0000000180009d30 f   PxAutoGeneratedMetaDataObjects.obj
 0001:00008d50       ?setPxSimulationStatisticsCompressedContactSize@@YAXPEAVPxSimulationStatistics@physx@@I@Z 0000000180009d50 f i PxAutoGeneratedMetaDataObjects.obj
 0001:00008d60       ?setPxSimulationStatisticsNbAggregates@@YAXPEAVPxSimulationStatistics@physx@@I@Z 0000000180009d60 f i PxAutoGeneratedMetaDataObjects.obj
 0001:00008d70       ?setPxSimulationStatisticsNbArticulations@@YAXPEAVPxSimulationStatistics@physx@@I@Z 0000000180009d70 f i PxAutoGeneratedMetaDataObjects.obj
 0001:00008d80       ?setPxSimulationStatisticsNbAxisSolverConstraints@@YAXPEAVPxSimulationStatistics@physx@@I@Z 0000000180009d80 f i PxAutoGeneratedMetaDataObjects.obj
 0001:00008d90       ?setPxSimulationStatisticsNbBroadPhaseAdds@@YAXPEAVPxSimulationStatistics@physx@@I@Z 0000000180009d90 f i PxAutoGeneratedMetaDataObjects.obj
 0001:00008da0       ?setPxSimulationStatisticsNbBroadPhaseRemoves@@YAXPEAVPxSimulationStatistics@physx@@I@Z 0000000180009da0 f i PxAutoGeneratedMetaDataObjects.obj
 0001:00008db0       ?setPxSimulationStatisticsNbDiscreteContactPairsWithContacts@@YAXPEAVPxSimulationStatistics@physx@@I@Z 0000000180009db0 f i PxAutoGeneratedMetaDataObjects.obj
 0001:00008dc0       ?setPxSimulationStatisticsNbLostPairs@@YAXPEAVPxSimulationStatistics@physx@@I@Z 0000000180009dc0 f i PxAutoGeneratedMetaDataObjects.obj
 0001:00008dd0       ?setPxSimulationStatisticsNbLostTouches@@YAXPEAVPxSimulationStatistics@physx@@I@Z 0000000180009dd0 f i PxAutoGeneratedMetaDataObjects.obj
 0001:00008de0       ?setPxSimulationStatisticsNbNewPairs@@YAXPEAVPxSimulationStatistics@physx@@I@Z 0000000180009de0 f i PxAutoGeneratedMetaDataObjects.obj
 0001:00008df0       ?setPxSimulationStatisticsNbNewTouches@@YAXPEAVPxSimulationStatistics@physx@@I@Z 0000000180009df0 f i PxAutoGeneratedMetaDataObjects.obj
 0001:00008e00       ?setPxSimulationStatisticsNbPartitions@@YAXPEAVPxSimulationStatistics@physx@@I@Z 0000000180009e00 f i PxAutoGeneratedMetaDataObjects.obj
 0001:00008e10       ?setPxSimulationStatisticsRequiredContactConstraintMemory@@YAXPEAVPxSimulationStatistics@physx@@I@Z 0000000180009e10 f i PxAutoGeneratedMetaDataObjects.obj
 0001:00008e20       ?setPxTolerancesScaleLength@@YAXPEAVPxTolerancesScale@physx@@M@Z 0000000180009e20 f i PxAutoGeneratedMetaDataObjects.obj
 0001:00008e30       ?setPxTriangleMeshGeometryMeshFlags@@YAXPEAVPxTriangleMeshGeometry@physx@@V?$PxFlags@W4Enum@PxMeshGeometryFlag@physx@@E@2@@Z 0000000180009e30 f i PxAutoGeneratedMetaDataObjects.obj
 0001:00008e40       ??0NbCCDPairsProperty@physx@@QEAA@XZ 0000000180009e40 f   PxMetaDataObjects.obj
 0001:00008e70       ??0NbDiscreteContactPairsProperty@physx@@QEAA@XZ 0000000180009e70 f   PxMetaDataObjects.obj
 0001:00008ea0       ??0NbModifiedContactPairsProperty@physx@@QEAA@XZ 0000000180009ea0 f   PxMetaDataObjects.obj
 0001:00008ed0       ??0NbShapesProperty@physx@@QEAA@XZ 0000000180009ed0 f   PxMetaDataObjects.obj
 0001:00008f00       ??0NbTriggerPairsProperty@physx@@QEAA@XZ 0000000180009f00 f   PxMetaDataObjects.obj
 0001:00008f30       ??0PxFoundation@physx@@QEAA@AEBV01@@Z 0000000180009f30 f i PxMetaDataObjects.obj
 0001:00008f30       ??0PxFoundation@physx@@QEAA@XZ 0000000180009f30 f i PxMetaDataObjects.obj
 0001:00008f40       ??0SimulationStatisticsProperty@physx@@QEAA@XZ 0000000180009f40 f   PxMetaDataObjects.obj
 0001:00008f60       ??1PxFoundation@physx@@MEAA@XZ 0000000180009f60 f i PxMetaDataObjects.obj
 0001:00008f70       ??_EPxFoundation@physx@@MEAAPEAXI@Z 0000000180009f70 f i PxMetaDataObjects.obj
 0001:00009000       ??1ActorCore@Sc@physx@@QEAA@XZ 000000018000a000 f i SimulationController_static_64:ScActorCore.obj
 0001:00009000       ??1ArticulationCore@Sc@physx@@QEAA@XZ 000000018000a000 f i SimulationController_static_64:ScArticulationCore.obj
 0001:00009000       ??1ArticulationJointCore@Sc@physx@@QEAA@XZ 000000018000a000 f i SimulationController_static_64:ScArticulationJointCore.obj
 0001:00009000       ??1ConstraintCore@Sc@physx@@QEAA@XZ 000000018000a000 f i SimulationController_static_64:ScConstraintCore.obj
 0001:00009000       ??1ConstraintInteraction@Sc@physx@@QEAA@XZ 000000018000a000 f i SimulationController_static_64:ScConstraintInteraction.obj
 0001:00009000       ??1NpActor@physx@@IEAA@XZ  000000018000a000 f i NpActor.obj
 0001:00009000       ??1PxsContactManager@physx@@QEAA@XZ 000000018000a000 f i LowLevel_static_64:PxsContactManager.obj
 0001:00009000       ??1SapPairManager@Bp@physx@@QEAA@XZ 000000018000a000 f i LowLevelAABB_static_64:BpBroadPhaseSapAux.obj
 0001:00009000       ??_FAllocator@shdfnd@physx@@QEAAXXZ 000000018000a000 f i PxMetaDataObjects.obj
 0001:00009000       ?PxcClearContactCacheStats@@YAXXZ 000000018000a000 f i LowLevel_static_64:PxcContactCache.obj
 0001:00009000       ?PxcDisplayContactCacheStats@@YAXXZ 000000018000a000 f i LowLevel_static_64:PxcContactCache.obj
 0001:00009000       ?__empty_global_delete@@YAXPEAX_K@Z 000000018000a000 f i PxMetaDataObjects.obj
 0001:00009000       ?__global_array_delete@@YAXPEAX_K@Z 000000018000a000 f i PxMetaDataObjects.obj
 0001:00009000       ?__global_delete@@YAXPEAX_K@Z 000000018000a000 f i PxMetaDataObjects.obj
 0001:00009000       ?acquireContext@PxsNphaseImplementationContext@physx@@UEAAXXZ 000000018000a000 f i LowLevel_static_64:PxsNphaseImplementationContext.obj
 0001:00009000       ?addArticulation@SimulationController@Sc@physx@@UEAAXPEAVArticulationV@Dy@3@AEBVNodeIndex@IG@3@@Z 000000018000a000 f i SimulationController_static_64:ScSimulationController.obj
 0001:00009000       ?addDynamic@SimulationController@Sc@physx@@UEAAXPEAVPxsRigidBody@3@AEBVNodeIndex@IG@3@@Z 000000018000a000 f i SimulationController_static_64:ScSimulationController.obj
 0001:00009000       ?addDynamics@SimulationController@Sc@physx@@UEAAXPEAPEAVPxsRigidBody@3@PEBII@Z 000000018000a000 f i SimulationController_static_64:ScSimulationController.obj
 0001:00009000       ?addJoint@SimulationController@Sc@physx@@UEAAXIPEAUConstraint@Dy@3@AEAVIslandSim@IG@3@AEAV?$Array@IV?$ReflectionAllocator@I@shdfnd@physx@@@shdfnd@3@AEAV?$Array@UPxgSolverConstraintManagerConstants@physx@@VVirtualAllocator@shdfnd@2@@93@I@Z 000000018000a000 f i SimulationController_static_64:ScSimulationController.obj
 0001:00009000       ?addShape@SimulationController@Sc@physx@@UEAAXPEAUPxsShapeSim@3@I@Z 000000018000a000 f i SimulationController_static_64:ScSimulationController.obj
 0001:00009000       ?clear@SimulationController@Sc@physx@@UEAAXXZ 000000018000a000 f i SimulationController_static_64:ScSimulationController.obj
 0001:00009000       ?concludeContact@Dy@physx@@YAXAEBUPxSolverConstraintDesc@2@@Z 000000018000a000 f i LowLevelDynamics_static_64:DyTGSContactPrep.obj
 0001:00009000       ?concludeInternalConstraints@Articulation@Dy@physx@@UEAAX_N@Z 000000018000a000 f i LowLevelDynamics_static_64:DyArticulation.obj
 0001:00009000       ?copyInternalStateToCache@ArticulationV@Dy@physx@@UEAAXAEAVPxArticulationCache@3@V?$PxFlags@W4Enum@PxArticulationCache@physx@@E@3@@Z 000000018000a000 f i LowLevelDynamics_static_64:DyArticulation.obj
 0001:00009000       ?deletePairs@BroadPhaseABP@Bp@physx@@UEAAXXZ 000000018000a000 f i LowLevelAABB_static_64:BpBroadPhaseABP.obj
 0001:00009000       ?deletePairs@BroadPhaseMBP@Bp@physx@@UEAAXXZ 000000018000a000 f i LowLevelAABB_static_64:BpBroadPhaseMBP.obj
 0001:00009000       ?exportExtraData@?$PxSerializerDefaultAdapter@VNpArticulationJoint@physx@@@physx@@UEBAXAEAVPxBase@2@AEAVPxSerializationContext@2@@Z 000000018000a000 f i NpSerializerAdapter.obj
 0001:00009000       ?exportExtraData@?$PxSerializerDefaultAdapter@VNpArticulationJointReducedCoordinate@physx@@@physx@@UEBAXAEAVPxBase@2@AEAVPxSerializationContext@2@@Z 000000018000a000 f i NpSerializerAdapter.obj
 0001:00009000       ?exportExtraData@?$PxSerializerDefaultAdapter@VNpConstraint@physx@@@physx@@UEBAXAEAVPxBase@2@AEAVPxSerializationContext@2@@Z 000000018000a000 f i NpSerializerAdapter.obj
 0001:00009000       ?exportExtraData@?$PxSerializerDefaultAdapter@VNpMaterial@physx@@@physx@@UEBAXAEAVPxBase@2@AEAVPxSerializationContext@2@@Z 000000018000a000 f i NpSerializerAdapter.obj
 0001:00009000       ?fetchBroadPhaseResults@BroadPhaseABP@Bp@physx@@UEAAXPEAVPxBaseTask@3@@Z 000000018000a000 f i LowLevelAABB_static_64:BpBroadPhaseABP.obj
 0001:00009000       ?fetchBroadPhaseResults@BroadPhaseMBP@Bp@physx@@UEAAXPEAVPxBaseTask@3@@Z 000000018000a000 f i LowLevelAABB_static_64:BpBroadPhaseMBP.obj
 0001:00009000       ?fetchBroadPhaseResults@BroadPhaseSap@Bp@physx@@UEAAXPEAVPxBaseTask@3@@Z 000000018000a000 f i LowLevelAABB_static_64:BpBroadPhaseSap.obj
 0001:00009000       ?fetchUpdateContactManager@PxsNphaseImplementationContext@physx@@UEAAXXZ 000000018000a000 f i LowLevel_static_64:PxsNphaseImplementationContext.obj
 0001:00009000       ?finalizeQuery@?$PxHitCallback@UPxOverlapHit@physx@@@physx@@UEAAXXZ 000000018000a000 f i NpBatchQuery.obj
 0001:00009000       ?finalizeQuery@?$PxHitCallback@UPxRaycastHit@physx@@@physx@@UEAAXXZ 000000018000a000 f i NpBatchQuery.obj
 0001:00009000       ?finalizeQuery@?$PxHitCallback@UPxSweepHit@physx@@@physx@@UEAAXXZ 000000018000a000 f i NpBatchQuery.obj
 0001:00009000       ?frameEnd@NpScene@physx@@UEAAXXZ 000000018000a000 f i NpScene.obj
 0001:00009000       ?getCoefficientMatrix@ArticulationV@Dy@physx@@UEAAXMIPEBVPxContactJoint@3@IAEAVPxArticulationCache@3@@Z 000000018000a000 f i LowLevelDynamics_static_64:DyArticulation.obj
 0001:00009000       ?getCoefficientMatrixWithLoopJoints@ArticulationV@Dy@physx@@UEAAXPEAUArticulationLoopConstraint@23@IAEAVPxArticulationCache@3@@Z 000000018000a000 f i LowLevelDynamics_static_64:DyArticulation.obj
 0001:00009000       ?getCoriolisAndCentrifugalForce@ArticulationV@Dy@physx@@UEAAXAEAVPxArticulationCache@3@@Z 000000018000a000 f i LowLevelDynamics_static_64:DyArticulation.obj
 0001:00009000       ?getDataStreamBase@DynamicsContext@Dy@physx@@UEAAXAEAPEAX00@Z 000000018000a000 f i LowLevelDynamics_static_64:DyDynamics.obj
 0001:00009000       ?getDataStreamBase@DynamicsTGSContext@Dy@physx@@UEAAXAEAPEAX00@Z 000000018000a000 f i LowLevelDynamics_static_64:DyTGSDynamics.obj
 0001:00009000       ?getDenseJacobian@ArticulationV@Dy@physx@@UEAAXAEAVPxArticulationCache@3@AEAI1@Z 000000018000a000 f i LowLevelDynamics_static_64:DyArticulation.obj
 0001:00009000       ?getGeneralizedExternalForce@ArticulationV@Dy@physx@@UEAAXAEAVPxArticulationCache@3@@Z 000000018000a000 f i LowLevelDynamics_static_64:DyArticulation.obj
 0001:00009000       ?getGeneralizedGravityForce@ArticulationV@Dy@physx@@UEAAXAEBVPxVec3@3@AEAVPxArticulationCache@3@@Z 000000018000a000 f i LowLevelDynamics_static_64:DyArticulation.obj
 0001:00009000       ?getGeneralizedMassMatrix@ArticulationV@Dy@physx@@UEAAXAEAVPxArticulationCache@3@@Z 000000018000a000 f i LowLevelDynamics_static_64:DyArticulation.obj
 0001:00009000       ?getGeneralizedMassMatrixCRB@ArticulationV@Dy@physx@@UEAAXAEAVPxArticulationCache@3@@Z 000000018000a000 f i LowLevelDynamics_static_64:DyArticulation.obj
 0001:00009000       ?getJointAcceleration@ArticulationV@Dy@physx@@UEAAXAEBVPxVec3@3@AEAVPxArticulationCache@3@@Z 000000018000a000 f i LowLevelDynamics_static_64:DyArticulation.obj
 0001:00009000       ?getJointForce@ArticulationV@Dy@physx@@UEAAXAEAVPxArticulationCache@3@@Z 000000018000a000 f i LowLevelDynamics_static_64:DyArticulation.obj
 0001:00009000       ?gpuDmabackData@SimulationController@Sc@physx@@UEAAXAEAVPxsTransformCache@3@AEAVBoundsArray@Bp@3@AEAV?$BitMapBase@VVirtualAllocator@shdfnd@physx@@@Cm@3@@Z 000000018000a000 f i SimulationController_static_64:ScSimulationController.obj
 0001:00009000       ?initializeCommonData@ArticulationV@Dy@physx@@UEAAXXZ 000000018000a000 f i LowLevelDynamics_static_64:DyArticulation.obj
 0001:00009000       ?merge@BucketPruner@Sq@physx@@UEAAXPEBX@Z 000000018000a000 f i SceneQuery_static_64:SqBucketPruner.obj
 0001:00009000       ?mergeResults@DynamicsTGSContext@Dy@physx@@UEAAXXZ 000000018000a000 f i LowLevelDynamics_static_64:DyTGSDynamics.obj
 0001:00009000       ?onUpdateSolverDesc@ArticulationV@Dy@physx@@UEAAXXZ 000000018000a000 f i LowLevelDynamics_static_64:DyArticulation.obj
 0001:00009000       ?packJointData@ArticulationV@Dy@physx@@UEAAXPEBMPEAM@Z 000000018000a000 f i LowLevelDynamics_static_64:DyArticulation.obj
 0001:00009000       ?postActorFlagChange@ActorSim@Sc@physx@@UEAAXII@Z 000000018000a000 f i SimulationController_static_64:ScScene.obj
 0001:00009000       ?postBroadPhaseUpdateContactManager@PxsNphaseImplementationContext@physx@@UEAAXXZ 000000018000a000 f i LowLevel_static_64:PxsNphaseImplementationContext.obj
 0001:00009000       ?preallocateNewBuffers@PxsNphaseImplementationContext@physx@@UEAAXII@Z 000000018000a000 f i LowLevel_static_64:PxsNphaseImplementationContext.obj
 0001:00009000       ?prepareStaticConstraints@ArticulationV@Dy@physx@@UEAAXMMAEAVPxsContactManagerOutputIterator@3@AEAVThreadContext@23@MMMMMPEAUPxSolverBodyData@3@AEAVPxsConstraintBlockManager@3@PEAUConstraintWriteback@23@@Z 000000018000a000 f i LowLevelDynamics_static_64:DyArticulation.obj
 0001:00009000       ?prepareStaticConstraintsTGS@ArticulationV@Dy@physx@@UEAAXMMMMAEAVPxsContactManagerOutputIterator@3@AEAVThreadContext@23@MMMPEAUPxTGSSolverBodyData@3@PEAUPxTGSSolverBodyTxInertia@3@AEAVPxsConstraintBlockManager@3@PEAUConstraintWriteback@23@IM@Z 000000018000a000 f i LowLevelDynamics_static_64:DyArticulation.obj
 0001:00009000       ?processLostPatches@DynamicsContext@Dy@physx@@UEAAXAEAVSimpleIslandManager@IG@3@PEAPEAVPxsContactManager@3@IAEAVPxsContactManagerOutputIterator@3@@Z 000000018000a000 f i LowLevelDynamics_static_64:DyDynamics.obj
 0001:00009000       ?processLostPatches@DynamicsTGSContext@Dy@physx@@UEAAXAEAVSimpleIslandManager@IG@3@PEAPEAVPxsContactManager@3@IAEAVPxsContactManagerOutputIterator@3@@Z 000000018000a000 f i LowLevelDynamics_static_64:DyTGSDynamics.obj
 0001:00009000       ?registerMaterial@PxsNphaseImplementationContext@physx@@UEAAXAEBVPxsMaterialCore@2@@Z 000000018000a000 f i LowLevel_static_64:PxsNphaseImplementationContext.obj
 0001:00009000       ?registerShape@PxsNphaseImplementationContext@physx@@UEAAXAEBUPxsShapeCore@2@@Z 000000018000a000 f i LowLevel_static_64:PxsNphaseImplementationContext.obj
 0001:00009000       ?releaseArticulation@SimulationController@Sc@physx@@UEAAXPEAVArticulationV@Dy@3@AEBVNodeIndex@IG@3@@Z 000000018000a000 f i SimulationController_static_64:ScSimulationController.obj
 0001:00009000       ?releaseContext@PxsNphaseImplementationContext@physx@@UEAAXXZ 000000018000a000 f i LowLevel_static_64:PxsNphaseImplementationContext.obj
 0001:00009000       ?releaseDeferredArticulationIds@SimulationController@Sc@physx@@UEAAXXZ 000000018000a000 f i SimulationController_static_64:ScSimulationController.obj
 0001:00009000       ?removeJoint@SimulationController@Sc@physx@@UEAAXIPEAUConstraint@Dy@3@AEAV?$Array@IV?$ReflectionAllocator@I@shdfnd@physx@@@shdfnd@3@AEAVIslandSim@IG@3@@Z 000000018000a000 f i SimulationController_static_64:ScSimulationController.obj
 0001:00009000       ?removeShape@SimulationController@Sc@physx@@UEAAXI@Z 000000018000a000 f i SimulationController_static_64:ScSimulationController.obj
 0001:00009000       ?requiresObjects@NpArticulationJoint@physx@@UEAAXAEAVPxProcessPxBaseCallback@2@@Z 000000018000a000 f i NpArticulationJoint.obj
 0001:00009000       ?requiresObjects@NpArticulationJointReducedCoordinate@physx@@UEAAXAEAVPxProcessPxBaseCallback@2@@Z 000000018000a000 f i NpArticulationJointReducedCoordinate.obj
 0001:00009000       ?requiresObjects@NpConstraint@physx@@UEAAXAEAVPxProcessPxBaseCallback@2@@Z 000000018000a000 f i NpConstraint.obj
 0001:00009000       ?requiresObjects@NpMaterial@physx@@UEAAXAEAVPxProcessPxBaseCallback@2@@Z 000000018000a000 f i NpMaterial.obj
 0001:00009000       ?reserve@SimulationController@Sc@physx@@UEAAXI@Z 000000018000a000 f i SimulationController_static_64:ScSimulationController.obj
 0001:00009000       ?runInternal@DynamicsMergeTask@Dy@physx@@UEAAXXZ 000000018000a000 f i LowLevelDynamics_static_64:DyTGSDynamics.obj
 0001:00009000       ?runInternal@FanoutTask@Cm@physx@@UEAAXXZ 000000018000a000 f i SimulationController_static_64:ScScene.obj
 0001:00009000       ?runInternal@SceneCompletion@NpScene@physx@@UEAAXXZ 000000018000a000 f i NpScene.obj
 0001:00009000       ?saveVelocityTGS@FeatherstoneArticulation@Dy@physx@@SAXAEBUArticulationSolverDesc@23@M@Z 000000018000a000 f i LowLevelDynamics_static_64:DyFeatherstoneArticulation.obj
 0001:00009000       ?setBounds@SimulationController@Sc@physx@@UEAAXPEAVBoundsArray@Bp@3@@Z 000000018000a000 f i SimulationController_static_64:ScSimulationController.obj
 0001:00009000       ?shiftOrigin@BroadPhaseABP@Bp@physx@@UEAAXAEBVPxVec3@3@PEBVPxBounds3@3@PEBM@Z 000000018000a000 f i LowLevelAABB_static_64:BpBroadPhaseABP.obj
 0001:00009000       ?solveInternalConstraints@Articulation@Dy@physx@@UEAAXMMPEAUSpatialVectorF@Cm@3@0_N1M@Z 000000018000a000 f i LowLevelDynamics_static_64:DyArticulation.obj
 0001:00009000       ?startNarrowPhaseTasks@PxsNphaseImplementationContext@physx@@UEAAXXZ 000000018000a000 f i LowLevel_static_64:PxsNphaseImplementationContext.obj
 0001:00009000       ?stopSimulation@PxTaskMgr@physx@@UEAAXXZ 000000018000a000 f i PhysXTask_static_64:TaskManager.obj
 0001:00009000       ?switchFromNoSim@?$NpRigidActorTemplate@VPxArticulationLink@physx@@@physx@@UEAAXXZ 000000018000a000 f i NpArticulationLink.obj
 0001:00009000       ?switchFromNoSim@?$NpRigidActorTemplate@VPxRigidDynamic@physx@@@physx@@UEAAXXZ 000000018000a000 f i NpRigidDynamic.obj
 0001:00009000       ?switchFromNoSim@?$NpRigidActorTemplate@VPxRigidStatic@physx@@@physx@@UEAAXXZ 000000018000a000 f i NpRigidStatic.obj
 0001:00009000       ?switchToNoSim@?$NpRigidActorTemplate@VPxArticulationLink@physx@@@physx@@UEAAXXZ 000000018000a000 f i NpArticulationLink.obj
 0001:00009000       ?switchToNoSim@?$NpRigidActorTemplate@VPxRigidDynamic@physx@@@physx@@UEAAXXZ 000000018000a000 f i NpRigidDynamic.obj
 0001:00009000       ?switchToNoSim@?$NpRigidActorTemplate@VPxRigidStatic@physx@@@physx@@UEAAXXZ 000000018000a000 f i NpRigidStatic.obj
 0001:00009000       ?teleportRootLink@ArticulationV@Dy@physx@@UEAAXXZ 000000018000a000 f i LowLevelDynamics_static_64:DyArticulation.obj
 0001:00009000       ?unpackJointData@ArticulationV@Dy@physx@@UEAAXPEBMPEAM@Z 000000018000a000 f i LowLevelDynamics_static_64:DyArticulation.obj
 0001:00009000       ?unregisterMaterial@PxsNphaseImplementationContext@physx@@UEAAXAEBVPxsMaterialCore@2@@Z 000000018000a000 f i LowLevel_static_64:PxsNphaseImplementationContext.obj
 0001:00009000       ?unregisterShape@PxsNphaseImplementationContext@physx@@UEAAXAEBUPxsShapeCore@2@@Z 000000018000a000 f i LowLevel_static_64:PxsNphaseImplementationContext.obj
 0001:00009000       ?update@SimulationController@Sc@physx@@UEAAXI@Z 000000018000a000 f i SimulationController_static_64:ScSimulationController.obj
 0001:00009000       ?updateArticulation@SimulationController@Sc@physx@@UEAAXPEAVArticulationV@Dy@3@AEBVNodeIndex@IG@3@@Z 000000018000a000 f i SimulationController_static_64:ScSimulationController.obj
 0001:00009000       ?updateArticulationJoint@SimulationController@Sc@physx@@UEAAXPEAVArticulationV@Dy@3@AEBVNodeIndex@IG@3@@Z 000000018000a000 f i SimulationController_static_64:ScSimulationController.obj
 0001:00009000       ?updateBodies@SimulationController@Sc@physx@@UEAAXPEAPEAVPxsRigidBody@3@PEAII@Z 000000018000a000 f i SimulationController_static_64:ScSimulationController.obj
 0001:00009000       ?updateBodiesAndShapes@SimulationController@Sc@physx@@UEAAXPEAVPxBaseTask@3@@Z 000000018000a000 f i SimulationController_static_64:ScSimulationController.obj
 0001:00009000       ?updateBody@SimulationController@Sc@physx@@UEAAXPEAVPxsRigidBody@3@I@Z 000000018000a000 f i SimulationController_static_64:ScSimulationController.obj
 0001:00009000       ?updateBodyCore@DynamicsContext@Dy@physx@@UEAAXPEAVPxBaseTask@3@@Z 000000018000a000 f i LowLevelDynamics_static_64:DyDynamics.obj
 0001:00009000       ?updateBodyCore@DynamicsTGSContext@Dy@physx@@UEAAXPEAVPxBaseTask@3@@Z 000000018000a000 f i LowLevelDynamics_static_64:DyTGSDynamics.obj
 0001:00009000       ?updateDynamic@SimulationController@Sc@physx@@UEAAX_NAEBVNodeIndex@IG@3@@Z 000000018000a000 f i SimulationController_static_64:ScSimulationController.obj
 0001:00009000       ?updateJoint@SimulationController@Sc@physx@@UEAAXIPEAUConstraint@Dy@3@@Z 000000018000a000 f i SimulationController_static_64:ScSimulationController.obj
 0001:00009000       ?updateMaterial@PxsNphaseImplementationContext@physx@@UEAAXAEBVPxsMaterialCore@2@@Z 000000018000a000 f i LowLevel_static_64:PxsNphaseImplementationContext.obj
 0001:00009000       ?updateShapeContactOffset@PxsNphaseImplementationContext@physx@@UEAAXAEBUPxsShapeCore@2@@Z 000000018000a000 f i LowLevel_static_64:PxsNphaseImplementationContext.obj
 0001:00009000       ?updateShapeMaterial@PxsNphaseImplementationContext@physx@@UEAAXAEBUPxsShapeCore@2@@Z 000000018000a000 f i LowLevel_static_64:PxsNphaseImplementationContext.obj
 0001:00009000       ?visualize@BVHCompoundPruner@Sq@physx@@UEBAXAEAVRenderOutput@Cm@3@I@Z 000000018000a000 f i SceneQuery_static_64:SqCompoundPruner.obj
 0001:00009000       ?visualize@CompoundPruner@Sq@physx@@UEBAXAEAVRenderOutput@Cm@3@I@Z 000000018000a000 f i SceneQuery_static_64:SqCompoundPruner.obj
 0001:00009000       ?visualize@Pruner@Sq@physx@@UEBAXAEAVRenderOutput@Cm@3@I@Z 000000018000a000 f i SceneQuery_static_64:SqBucketPruner.obj
 0001:00009000       ?writebackInternalConstraints@Articulation@Dy@physx@@UEAAX_N@Z 000000018000a000 f i LowLevelDynamics_static_64:DyArticulation.obj
 0001:00009000       _guard_check_icall_nop     000000018000a000 f i MSVCRT:guard_support.obj
 0001:00009010       ?GetNbCCDPairs@@YAIPEBVPxSimulationStatistics@physx@@W4Enum@PxGeometryType@2@1@Z 000000018000a010 f i PxMetaDataObjects.obj
 0001:00009030       ?GetNbDiscreteContactPairs@@YAIPEBVPxSimulationStatistics@physx@@W4Enum@PxGeometryType@2@1@Z 000000018000a030 f i PxMetaDataObjects.obj
 0001:00009050       ?GetNbModifiedContactPairs@@YAIPEBVPxSimulationStatistics@physx@@W4Enum@PxGeometryType@2@1@Z 000000018000a050 f i PxMetaDataObjects.obj
 0001:00009070       ?GetNbShape@@YAIPEBVPxSimulationStatistics@physx@@W4Enum@PxGeometryType@2@@Z 000000018000a070 f i PxMetaDataObjects.obj
 0001:00009080       ?GetNbTriggerPairs@@YAIPEBVPxSimulationStatistics@physx@@W4Enum@PxGeometryType@2@1@Z 000000018000a080 f i PxMetaDataObjects.obj
 0001:000090a0       ?GetStats@@YA?AVPxSimulationStatistics@physx@@PEBVPxScene@2@@Z 000000018000a0a0 f i PxMetaDataObjects.obj
 0001:00009180       ?SetNbCCDPairs@@YAXPEAVPxSimulationStatistics@physx@@W4Enum@PxGeometryType@2@1I@Z 000000018000a180 f i PxMetaDataObjects.obj
 0001:000091a0       ?SetNbDiscreteContactPairs@@YAXPEAVPxSimulationStatistics@physx@@W4Enum@PxGeometryType@2@1I@Z 000000018000a1a0 f i PxMetaDataObjects.obj
 0001:000091c0       ?SetNbModifiedContactPairs@@YAXPEAVPxSimulationStatistics@physx@@W4Enum@PxGeometryType@2@1I@Z 000000018000a1c0 f i PxMetaDataObjects.obj
 0001:000091e0       ?SetNbShape@@YAXPEAVPxSimulationStatistics@physx@@W4Enum@PxGeometryType@2@I@Z 000000018000a1e0 f i PxMetaDataObjects.obj
 0001:000091f0       ?SetNbTriggerPairs@@YAXPEAVPxSimulationStatistics@physx@@W4Enum@PxGeometryType@2@1I@Z 000000018000a1f0 f i PxMetaDataObjects.obj
 0001:00009210       ?createLink@PxArticulationLinkCollectionPropHelper@physx@@QEBAPEAVPxArticulationLink@2@PEAVPxArticulation@2@PEAV32@AEBVPxTransform@2@@Z 000000018000a210 f   PxMetaDataObjects.obj
 0001:00009230       ?createShape@PxRigidActorShapeCollectionHelper@physx@@QEBAPEAVPxShape@2@PEAVPxRigidActor@2@AEBVPxGeometry@2@AEAVPxMaterial@2@V?$PxFlags@W4Enum@PxShapeFlag@physx@@E@2@@Z 000000018000a230 f   PxMetaDataObjects.obj
 0001:000092b0       ?createShape@PxRigidActorShapeCollectionHelper@physx@@QEBAPEAVPxShape@2@PEAVPxRigidActor@2@AEBVPxGeometry@2@PEBQEAVPxMaterial@2@GV?$PxFlags@W4Enum@PxShapeFlag@physx@@E@2@@Z 000000018000a2b0 f   PxMetaDataObjects.obj
 0001:00009340       ?getAllocator@Foundation@shdfnd@physx@@QEAAAEAVPxAllocatorCallback@3@XZ 000000018000a340 f i PxMetaDataObjects.obj
 0001:00009340       ?getImpl@?$NpArticulationTemplate@VPxArticulation@physx@@@physx@@UEAAPEAVPxArticulationImpl@2@XZ 000000018000a340 f i NpArticulation.obj
 0001:00009340       ?getImpl@?$NpArticulationTemplate@VPxArticulation@physx@@@physx@@UEBAPEBVPxArticulationImpl@2@XZ 000000018000a340 f i NpArticulation.obj
 0001:00009340       ?getImpl@?$NpArticulationTemplate@VPxArticulationReducedCoordinate@physx@@@physx@@UEAAPEAVPxArticulationImpl@2@XZ 000000018000a340 f i NpArticulationReducedCoordinate.obj
 0001:00009340       ?getImpl@?$NpArticulationTemplate@VPxArticulationReducedCoordinate@physx@@@physx@@UEBAPEBVPxArticulationImpl@2@XZ 000000018000a340 f i NpArticulationReducedCoordinate.obj
 0001:00009340       ?getTolerancesScale@NpPhysics@physx@@UEBAAEBVPxTolerancesScale@2@XZ 000000018000a340 f i NpPhysics.obj
 0001:00009350       ?getErrorLevel@Foundation@shdfnd@physx@@UEBA?AW4Enum@PxErrorCode@3@XZ 000000018000a350 f i PxMetaDataObjects.obj
 0001:00009360       ?getGeometry@PxShapeGeometryPropertyHelper@physx@@QEBA_NPEBVPxShape@2@AEAVPxBoxGeometry@2@@Z 000000018000a360 f   PxMetaDataObjects.obj
 0001:00009370       ?getGeometry@PxShapeGeometryPropertyHelper@physx@@QEBA_NPEBVPxShape@2@AEAVPxCapsuleGeometry@2@@Z 000000018000a370 f   PxMetaDataObjects.obj
 0001:00009380       ?exportExtraData@?$PxSerializerDefaultAdapter@VNpAggregate@physx@@@physx@@UEBAXAEAVPxBase@2@AEAVPxSerializationContext@2@@Z 000000018000a380 f   NpSerializerAdapter.obj
 0001:00009380       ?getGeometry@PxShapeGeometryPropertyHelper@physx@@QEBA_NPEBVPxShape@2@AEAVPxConvexMeshGeometry@2@@Z 000000018000a380 f   PxMetaDataObjects.obj
 0001:00009390       ?getGeometry@PxShapeGeometryPropertyHelper@physx@@QEBA_NPEBVPxShape@2@AEAVPxHeightFieldGeometry@2@@Z 000000018000a390 f   PxMetaDataObjects.obj
 0001:00009390       ?requiresObjects@?$PxSerializerDefaultAdapter@VConvexMesh@Gu@physx@@@physx@@UEBAXAEAVPxBase@2@AEAVPxProcessPxBaseCallback@2@@Z 000000018000a390 f   NpSerializerAdapter.obj
 0001:000093a0       ?getGeometry@PxShapeGeometryPropertyHelper@physx@@QEBA_NPEBVPxShape@2@AEAVPxPlaneGeometry@2@@Z 000000018000a3a0 f   PxMetaDataObjects.obj
 0001:000093b0       ?getGeometry@PxShapeGeometryPropertyHelper@physx@@QEBA_NPEBVPxShape@2@AEAVPxSphereGeometry@2@@Z 000000018000a3b0 f   PxMetaDataObjects.obj
 0001:000093c0       ?exportExtraData@?$PxSerializerDefaultAdapter@VConvexMesh@Gu@physx@@@physx@@UEBAXAEAVPxBase@2@AEAVPxSerializationContext@2@@Z 000000018000a3c0 f   NpSerializerAdapter.obj
 0001:000093c0       ?getGeometry@PxShapeGeometryPropertyHelper@physx@@QEBA_NPEBVPxShape@2@AEAVPxTriangleMeshGeometry@2@@Z 000000018000a3c0 f   PxMetaDataObjects.obj
 0001:000093c0       ?requiresObjects@?$PxSerializerDefaultAdapter@VNpAggregate@physx@@@physx@@UEBAXAEAVPxBase@2@AEAVPxProcessPxBaseCallback@2@@Z 000000018000a3c0 f   NpSerializerAdapter.obj
 0001:000093d0       ?getGeometryType@PxShapeGeometryPropertyHelper@physx@@QEBA?AW4Enum@PxGeometryType@2@PEBVPxShape@2@@Z 000000018000a3d0 f   PxMetaDataObjects.obj
 0001:000093e0       ?getInternalErrorCallback@Foundation@shdfnd@physx@@QEAAAEAVPxErrorCallback@3@XZ 000000018000a3e0 f i PxMetaDataObjects.obj
 0001:000093f0       ?getNamedAllocMap@Foundation@shdfnd@physx@@QEAAAEAV?$HashMap@PEBVNamedAllocator@shdfnd@physx@@PEBDU?$Hash@PEBVNamedAllocator@shdfnd@physx@@@23@VNonTrackingAllocator@23@@23@XZ 000000018000a3f0 f i PxMetaDataObjects.obj
 0001:00009400       ?getNamedAllocMutex@Foundation@shdfnd@physx@@QEAAAEAV?$MutexT@VAllocator@shdfnd@physx@@@23@XZ 000000018000a400 f i PxMetaDataObjects.obj
 0001:00009410       ?getReportAllocationNames@Foundation@shdfnd@physx@@UEBA_NXZ 000000018000a410 f i PxMetaDataObjects.obj
 0001:00009420       ?getTempAllocFreeTable@Foundation@shdfnd@physx@@QEAAAEAV?$Array@PEATTempAllocatorChunk@shdfnd@physx@@VAllocator@23@@23@XZ 000000018000a420 f i PxMetaDataObjects.obj
 0001:00009430       ?getTempAllocMutex@Foundation@shdfnd@physx@@QEAAAEAV?$MutexT@VAllocator@shdfnd@physx@@@23@XZ 000000018000a430 f i PxMetaDataObjects.obj
 0001:00009440       ?setErrorLevel@Foundation@shdfnd@physx@@UEAAXW4Enum@PxErrorCode@3@@Z 000000018000a440 f i PxMetaDataObjects.obj
 0001:00009450       ?setMaterials@PxShapeMaterialsPropertyHelper@physx@@QEBAXPEAVPxShape@2@PEBQEAVPxMaterial@2@G@Z 000000018000a450 f   PxMetaDataObjects.obj
 0001:00009470       ?setReportAllocationNames@Foundation@shdfnd@physx@@UEAAX_N@Z 000000018000a470 f i PxMetaDataObjects.obj
 0001:00009480       ??0NpActor@physx@@QEAA@PEBD@Z 000000018000a480 f   NpActor.obj
 0001:00009490       ??4FPUGuard@shdfnd@physx@@QEAAAEAV012@AEBV012@@Z 000000018000a490 f i NpActor.obj
 0001:000094b0       ?addConnector@NpActor@physx@@QEAAXW4Enum@NpConnectorType@2@PEAVPxBase@2@PEBD@Z 000000018000a4b0 f   NpActor.obj
 0001:00009600       ?addConstraintsToSceneInternal@NpActor@physx@@AEAAXXZ 000000018000a600 f   NpActor.obj
 0001:000096d0       ?allocate@?$Array@VNpConnector@physx@@V?$InlineAllocator@$0EA@V?$ReflectionAllocator@VNpConnector@physx@@@shdfnd@physx@@@shdfnd@2@@shdfnd@physx@@IEAAPEAVNpConnector@3@I@Z 000000018000a6d0 f i NpActor.obj
 0001:00009780       ?create@?$HashBase@PEAVBase@Scb@physx@@PEAV123@U?$Hash@PEAVBase@Scb@physx@@@shdfnd@3@UGetKey@?$HashSetBase@PEAVBase@Scb@physx@@U?$Hash@PEAVBase@Scb@physx@@@shdfnd@3@VNonTrackingAllocator@53@$00@internal@53@VNonTrackingAllocator@53@$00@internal@shdfnd@physx@@QEAAPEAPEAVBase@Scb@4@AEBQEAV564@AEA_N@Z 000000018000a780 f i ScbScene.obj
 0001:00009780       ?create@?$HashBase@PEAVPxAggregate@physx@@PEAV12@U?$Hash@PEAVPxAggregate@physx@@@shdfnd@2@UGetKey@?$HashSetBase@PEAVPxAggregate@physx@@U?$Hash@PEAVPxAggregate@physx@@@shdfnd@2@VNonTrackingAllocator@42@$00@internal@42@VNonTrackingAllocator@42@$00@internal@shdfnd@physx@@QEAAPEAPEAVPxAggregate@4@AEBQEAV54@AEA_N@Z 000000018000a780 f i NpScene.obj
 0001:00009780       ?create@?$HashBase@PEAVPxArticulationBase@physx@@PEAV12@U?$Hash@PEAVPxArticulationBase@physx@@@shdfnd@2@UGetKey@?$HashSetBase@PEAVPxArticulationBase@physx@@U?$Hash@PEAVPxArticulationBase@physx@@@shdfnd@2@VNonTrackingAllocator@42@$00@internal@42@VNonTrackingAllocator@42@$00@internal@shdfnd@physx@@QEAAPEAPEAVPxArticulationBase@4@AEBQEAV54@AEA_N@Z 000000018000a780 f i NpScene.obj
 0001:00009780       ?create@?$HashBase@PEAVPxConstraint@physx@@PEAV12@U?$Hash@PEAVPxConstraint@physx@@@shdfnd@2@UGetKey@?$HashSetBase@PEAVPxConstraint@physx@@U?$Hash@PEAVPxConstraint@physx@@@shdfnd@2@VNonTrackingAllocator@42@$00@internal@42@VNonTrackingAllocator@42@$00@internal@shdfnd@physx@@QEAAPEAPEAVPxConstraint@4@AEBQEAV54@AEA_N@Z 000000018000a780 f i NpActor.obj
 0001:00009780       ?create@?$HashBase@PEAVPxShape@physx@@PEAV12@U?$Hash@PEAVPxShape@physx@@@shdfnd@2@UGetKey@?$HashSetBase@PEAVPxShape@physx@@U?$Hash@PEAVPxShape@physx@@@shdfnd@2@VNonTrackingAllocator@42@$00@internal@42@VNonTrackingAllocator@42@$00@internal@shdfnd@physx@@QEAAPEAPEAVPxShape@4@AEBQEAV54@AEA_N@Z 000000018000a780 f i NpFactory.obj
 0001:00009910       ?erase@?$HashBase@PEAUConstraintGroupNode@Sc@physx@@PEAU123@U?$Hash@PEAUConstraintGroupNode@Sc@physx@@@shdfnd@3@UGetKey@?$HashSetBase@PEAUConstraintGroupNode@Sc@physx@@U?$Hash@PEAUConstraintGroupNode@Sc@physx@@@shdfnd@3@VNonTrackingAllocator@53@$00@internal@53@VNonTrackingAllocator@53@$00@internal@shdfnd@physx@@QEAA_NAEBQEAUConstraintGroupNode@Sc@4@@Z 000000018000a910 f i SimulationController_static_64:ScConstraintProjectionManager.obj
 0001:00009910       ?erase@?$HashBase@PEAVArticulationCore@Sc@physx@@PEAV123@U?$Hash@PEAVArticulationCore@Sc@physx@@@shdfnd@3@UGetKey@?$HashSetBase@PEAVArticulationCore@Sc@physx@@U?$Hash@PEAVArticulationCore@Sc@physx@@@shdfnd@3@VNonTrackingAllocator@53@$00@internal@53@VNonTrackingAllocator@53@$00@internal@shdfnd@physx@@QEAA_NAEBQEAVArticulationCore@Sc@4@@Z 000000018000a910 f i SimulationController_static_64:ScScene.obj
 0001:00009910       ?erase@?$HashBase@PEAVBase@Scb@physx@@PEAV123@U?$Hash@PEAVBase@Scb@physx@@@shdfnd@3@UGetKey@?$HashSetBase@PEAVBase@Scb@physx@@U?$Hash@PEAVBase@Scb@physx@@@shdfnd@3@VNonTrackingAllocator@53@$00@internal@53@VNonTrackingAllocator@53@$00@internal@shdfnd@physx@@QEAA_NAEBQEAVBase@Scb@4@@Z 000000018000a910 f i ScbScene.obj
 0001:00009910       ?erase@?$HashBase@PEAVBodyCore@Sc@physx@@PEAV123@U?$Hash@PEAVBodyCore@Sc@physx@@@shdfnd@3@UGetKey@?$HashSetBase@PEAVBodyCore@Sc@physx@@U?$Hash@PEAVBodyCore@Sc@physx@@@shdfnd@3@VNonTrackingAllocator@53@$00@internal@53@VNonTrackingAllocator@53@$00@internal@shdfnd@physx@@QEAA_NAEBQEAVBodyCore@Sc@4@@Z 000000018000a910 f i SimulationController_static_64:ScScene.obj
 0001:00009910       ?erase@?$HashBase@PEAVConstraintCore@Sc@physx@@PEAV123@U?$Hash@PEAVConstraintCore@Sc@physx@@@shdfnd@3@UGetKey@?$HashSetBase@PEAVConstraintCore@Sc@physx@@U?$Hash@PEAVConstraintCore@Sc@physx@@@shdfnd@3@VNonTrackingAllocator@53@$00@internal@53@VNonTrackingAllocator@53@$00@internal@shdfnd@physx@@QEAA_NAEBQEAVConstraintCore@Sc@4@@Z 000000018000a910 f i SimulationController_static_64:ScScene.obj
 0001:00009910       ?erase@?$HashBase@PEAVConstraintSim@Sc@physx@@PEAV123@U?$Hash@PEAVConstraintSim@Sc@physx@@@shdfnd@3@UGetKey@?$HashSetBase@PEAVConstraintSim@Sc@physx@@U?$Hash@PEAVConstraintSim@Sc@physx@@@shdfnd@3@VNonTrackingAllocator@53@$00@internal@53@VNonTrackingAllocator@53@$00@internal@shdfnd@physx@@QEAA_NAEBQEAVConstraintSim@Sc@4@@Z 000000018000a910 f i SimulationController_static_64:ScScene.obj
 0001:00009910       ?erase@?$HashBase@PEAVInteraction@Sc@physx@@PEAV123@U?$Hash@PEAVInteraction@Sc@physx@@@shdfnd@3@UGetKey@?$HashSetBase@PEAVInteraction@Sc@physx@@U?$Hash@PEAVInteraction@Sc@physx@@@shdfnd@3@VNonTrackingAllocator@53@$00@internal@53@VNonTrackingAllocator@53@$00@internal@shdfnd@physx@@QEAA_NAEBQEAVInteraction@Sc@4@@Z 000000018000a910 f i SimulationController_static_64:ScNPhaseCore.obj
 0001:00009910       ?erase@?$HashBase@PEAVPxAggregate@physx@@PEAV12@U?$Hash@PEAVPxAggregate@physx@@@shdfnd@2@UGetKey@?$HashSetBase@PEAVPxAggregate@physx@@U?$Hash@PEAVPxAggregate@physx@@@shdfnd@2@VNonTrackingAllocator@42@$00@internal@42@VNonTrackingAllocator@42@$00@internal@shdfnd@physx@@QEAA_NAEBQEAVPxAggregate@4@@Z 000000018000a910 f i NpAggregate.obj
 0001:00009910       ?erase@?$HashBase@PEAVPxArticulationBase@physx@@PEAV12@U?$Hash@PEAVPxArticulationBase@physx@@@shdfnd@2@UGetKey@?$HashSetBase@PEAVPxArticulationBase@physx@@U?$Hash@PEAVPxArticulationBase@physx@@@shdfnd@2@VNonTrackingAllocator@42@$00@internal@42@VNonTrackingAllocator@42@$00@internal@shdfnd@physx@@QEAA_NAEBQEAVPxArticulationBase@4@@Z 000000018000a910 f i NpArticulationReducedCoordinate.obj
 0001:00009910       ?erase@?$HashBase@PEAVPxConstraint@physx@@PEAV12@U?$Hash@PEAVPxConstraint@physx@@@shdfnd@2@UGetKey@?$HashSetBase@PEAVPxConstraint@physx@@U?$Hash@PEAVPxConstraint@physx@@@shdfnd@2@VNonTrackingAllocator@42@$00@internal@42@VNonTrackingAllocator@42@$00@internal@shdfnd@physx@@QEAA_NAEBQEAVPxConstraint@4@@Z 000000018000a910 f i NpActor.obj
 0001:00009910       ?erase@?$HashBase@PEAVPxShape@physx@@PEAV12@U?$Hash@PEAVPxShape@physx@@@shdfnd@2@UGetKey@?$HashSetBase@PEAVPxShape@physx@@U?$Hash@PEAVPxShape@physx@@@shdfnd@2@VNonTrackingAllocator@42@$00@internal@42@VNonTrackingAllocator@42@$00@internal@shdfnd@physx@@QEAA_NAEBQEAVPxShape@4@@Z 000000018000a910 f i NpFactory.obj
 0001:00009910       ?erase@?$HashBase@PEBVBodySim@Sc@physx@@PEBV123@U?$Hash@PEBVBodySim@Sc@physx@@@shdfnd@3@UGetKey@?$HashSetBase@PEBVBodySim@Sc@physx@@U?$Hash@PEBVBodySim@Sc@physx@@@shdfnd@3@VNonTrackingAllocator@53@$00@internal@53@VNonTrackingAllocator@53@$00@internal@shdfnd@physx@@QEAA_NAEBQEBVBodySim@Sc@4@@Z 000000018000a910 f i SimulationController_static_64:ScScene.obj
 0001:00009a90       ?exportExtraData@NpActor@physx@@QEAAXAEAVPxSerializationContext@2@@Z 000000018000aa90 f   NpActor.obj
 0001:00009c70       ?findConnector@NpActor@physx@@QEBAIW4Enum@NpConnectorType@2@PEAVPxBase@2@@Z 000000018000ac70 f   NpActor.obj
 0001:00009cc0       ?getAPIScene@NpActor@physx@@SAPEAVNpScene@2@AEBVPxActor@2@@Z 000000018000acc0 f   NpActor.obj
 0001:00009cf0       ?getAggregate@NpActor@physx@@QEBAPEAVPxAggregate@2@XZ 000000018000acf0 f   NpActor.obj
 0001:00009d30       ?getGlobalPose@NpActor@physx@@SAXAEAVPxTransform@2@AEBVShape@Scb@2@AEBVActor@52@@Z 000000018000ad30 f   NpActor.obj
 0001:0000a210       ?getNbConnectors@NpActor@physx@@QEBAIW4Enum@NpConnectorType@2@@Z 000000018000b210 f   NpActor.obj
 0001:0000a250       ?getNpAggregate@NpActor@physx@@QEBAPEAVNpAggregate@2@AEAI@Z 000000018000b250 f   NpActor.obj
 0001:0000a290       ?getOwnerScene@NpActor@physx@@SAPEAVNpScene@2@AEBVPxActor@2@@Z 000000018000b290 f   NpActor.obj
 0001:0000a2b0       ?getShapeManager@NpActor@physx@@SAPEAVNpShapeManager@2@AEAVPxRigidActor@2@@Z 000000018000b2b0 f   NpActor.obj
 0001:0000a2b0       ?getShapeManager@NpActor@physx@@SAPEBVNpShapeManager@2@AEBVPxRigidActor@2@@Z 000000018000b2b0 f   NpActor.obj
 0001:0000a2e0       ?growAndPushBack@?$Array@VNpConnector@physx@@V?$InlineAllocator@$0EA@V?$ReflectionAllocator@VNpConnector@physx@@@shdfnd@physx@@@shdfnd@2@@shdfnd@physx@@IEAAAEAVNpConnector@3@AEBV43@@Z 000000018000b2e0 f i NpActor.obj
 0001:0000a3c0       ?importExtraData@NpActor@physx@@QEAAXAEAVPxDeserializationContext@2@@Z 000000018000b3c0 f   NpActor.obj
 0001:0000a460       ?onActorRelease@NpActor@physx@@SAXPEAVPxActor@2@@Z 000000018000b460 f   NpActor.obj
 0001:0000a470       ?recreate@?$Array@VNpConnector@physx@@V?$InlineAllocator@$0EA@V?$ReflectionAllocator@VNpConnector@physx@@@shdfnd@physx@@@shdfnd@2@@shdfnd@physx@@IEAAXI@Z 000000018000b470 f i NpActor.obj
 0001:0000a510       ?release@NpActor@physx@@QEAAXAEAVPxActor@2@@Z 000000018000b510 f   NpActor.obj
 0001:0000a530       ?releaseConstraints@NpActor@physx@@QEAAXAEAVPxRigidActor@2@@Z 000000018000b530 f   NpActor.obj
 0001:0000a650       ?removeConnector@NpActor@physx@@AEAAXAEAVPxActor@2@I@Z 000000018000b650 f   NpActor.obj
 0001:0000a6b0       ?removeConnector@NpActor@physx@@QEAAXAEAVPxActor@2@W4Enum@NpConnectorType@2@PEAVPxBase@2@PEBD@Z 000000018000b6b0 f   NpActor.obj
 0001:0000a760       ?removeConstraintsFromScene@NpActor@physx@@QEAAXXZ 000000018000b760 f   NpActor.obj
 0001:0000a810       ?reserveInternal@?$HashBase@PEAVBase@Scb@physx@@PEAV123@U?$Hash@PEAVBase@Scb@physx@@@shdfnd@3@UGetKey@?$HashSetBase@PEAVBase@Scb@physx@@U?$Hash@PEAVBase@Scb@physx@@@shdfnd@3@VNonTrackingAllocator@53@$00@internal@53@VNonTrackingAllocator@53@$00@internal@shdfnd@physx@@AEAAXI@Z 000000018000b810 f i ScbScene.obj
 0001:0000a810       ?reserveInternal@?$HashBase@PEAVPxAggregate@physx@@PEAV12@U?$Hash@PEAVPxAggregate@physx@@@shdfnd@2@UGetKey@?$HashSetBase@PEAVPxAggregate@physx@@U?$Hash@PEAVPxAggregate@physx@@@shdfnd@2@VNonTrackingAllocator@42@$00@internal@42@VNonTrackingAllocator@42@$00@internal@shdfnd@physx@@AEAAXI@Z 000000018000b810 f i NpScene.obj
 0001:0000a810       ?reserveInternal@?$HashBase@PEAVPxArticulationBase@physx@@PEAV12@U?$Hash@PEAVPxArticulationBase@physx@@@shdfnd@2@UGetKey@?$HashSetBase@PEAVPxArticulationBase@physx@@U?$Hash@PEAVPxArticulationBase@physx@@@shdfnd@2@VNonTrackingAllocator@42@$00@internal@42@VNonTrackingAllocator@42@$00@internal@shdfnd@physx@@AEAAXI@Z 000000018000b810 f i NpScene.obj
 0001:0000a810       ?reserveInternal@?$HashBase@PEAVPxConstraint@physx@@PEAV12@U?$Hash@PEAVPxConstraint@physx@@@shdfnd@2@UGetKey@?$HashSetBase@PEAVPxConstraint@physx@@U?$Hash@PEAVPxConstraint@physx@@@shdfnd@2@VNonTrackingAllocator@42@$00@internal@42@VNonTrackingAllocator@42@$00@internal@shdfnd@physx@@AEAAXI@Z 000000018000b810 f i NpActor.obj
 0001:0000a810       ?reserveInternal@?$HashBase@PEAVPxShape@physx@@PEAV12@U?$Hash@PEAVPxShape@physx@@@shdfnd@2@UGetKey@?$HashSetBase@PEAVPxShape@physx@@U?$Hash@PEAVPxShape@physx@@@shdfnd@2@VNonTrackingAllocator@42@$00@internal@42@VNonTrackingAllocator@42@$00@internal@shdfnd@physx@@AEAAXI@Z 000000018000b810 f i NpFactory.obj
 0001:0000a9e0       ?resizeUninitialized@?$Array@VNpConnector@physx@@V?$InlineAllocator@$0EA@V?$ReflectionAllocator@VNpConnector@physx@@@shdfnd@physx@@@shdfnd@2@@shdfnd@physx@@QEAAXI@Z 000000018000b9e0 f i NpActor.obj
 0001:0000aa20       ?resolveReferences@NpActor@physx@@QEAAXAEAVPxDeserializationContext@2@@Z 000000018000ba20 f   NpActor.obj
 0001:0000aab0       ?setAggregate@NpActor@physx@@QEAAXPEAVNpAggregate@2@AEAVPxActor@2@@Z 000000018000bab0 f   NpActor.obj
 0001:0000ac60       ??0NpAggregate@physx@@QEAA@I_N@Z 000000018000bc60 f   NpAggregate.obj
 0001:0000ad00       ??_ENpAggregate@physx@@UEAAPEAXI@Z 000000018000bd00 f i NpAggregate.obj
 0001:0000ad00       ??_GNpAggregate@physx@@UEAAPEAXI@Z 000000018000bd00 f i NpAggregate.obj
 0001:0000adb0       ??_EPxBase@physx@@MEAAPEAXI@Z 000000018000bdb0 f i NpAggregate.obj
 0001:0000adb0       ??_GPxBase@physx@@MEAAPEAXI@Z 000000018000bdb0 f i NpAggregate.obj
 0001:0000ade0       ?addActor@NpAggregate@physx@@UEAA_NAEAVPxActor@2@PEBVPxBVHStructure@2@@Z 000000018000bde0 f   NpAggregate.obj
 0001:0000b000       ?addActorInternal@NpAggregate@physx@@QEAAXAEAVPxActor@2@AEAVNpScene@2@PEBVPxBVHStructure@2@@Z 000000018000c000 f   NpAggregate.obj
 0001:0000b0e0       ?addArticulation@NpAggregate@physx@@UEAA_NAEAVPxArticulationBase@2@@Z 000000018000c0e0 f   NpAggregate.obj
 0001:0000b2a0       ?createObject@NpAggregate@physx@@SAPEAV12@AEAPEAEAEAVPxDeserializationContext@2@@Z 000000018000c2a0 f   NpAggregate.obj
 0001:0000b400       ?exportExtraData@NpAggregate@physx@@UEAAXAEAVPxSerializationContext@2@@Z 000000018000c400 f   NpAggregate.obj
 0001:0000b450       ?getAPIScene@NpAggregate@physx@@QEBAPEAVNpScene@2@XZ 000000018000c450 f   NpAggregate.obj
 0001:0000b450       ?getScene@NpAggregate@physx@@UEAAPEAVPxScene@2@XZ 000000018000c450 f   NpAggregate.obj
 0001:0000b480       ?getActors@NpAggregate@physx@@UEBAIPEAPEAVPxActor@2@II@Z 000000018000c480 f   NpAggregate.obj
 0001:0000b4d0       ?getConcreteTypeName@PxAggregate@physx@@UEBAPEBDXZ 000000018000c4d0 f i NpAggregate.obj
 0001:0000b4e0       ?getSelfCollision@NpAggregate@physx@@UEBA_NXZ 000000018000c4e0 f   NpAggregate.obj
 0001:0000b4f0       ?isKindOf@PxAggregate@physx@@MEBA_NPEBD@Z 000000018000c4f0 f i NpAggregate.obj
 0001:0000b540       ?isKindOf@PxBase@physx@@MEBA_NPEBD@Z 000000018000c540 f i NpAggregate.obj
 0001:0000b570       ?isReleasable@PxBase@physx@@UEBA_NXZ 000000018000c570 f i NpAggregate.obj
 0001:0000b580       ?preExportDataReset@NpAggregate@physx@@QEAAXXZ 000000018000c580 f   NpAggregate.obj
 0001:0000b590       ?release@NpAggregate@physx@@UEAAXXZ 000000018000c590 f   NpAggregate.obj
 0001:0000b710       ?removeActor@NpAggregate@physx@@UEAA_NAEAVPxActor@2@@Z 000000018000c710 f   NpAggregate.obj
 0001:0000b920       ?removeActorAndReinsert@NpAggregate@physx@@QEAA_NAEAVPxActor@2@_N@Z 000000018000c920 f   NpAggregate.obj
 0001:0000ba00       ?removeArticulation@NpAggregate@physx@@UEAA_NAEAVPxArticulationBase@2@@Z 000000018000ca00 f   NpAggregate.obj
 0001:0000bb40       ?removeArticulationAndReinsert@NpAggregate@physx@@QEAA_NAEAVPxArticulationBase@2@_N@Z 000000018000cb40 f   NpAggregate.obj
 0001:0000bc80       ?requiresObjects@NpAggregate@physx@@UEAAXAEAVPxProcessPxBaseCallback@2@@Z 000000018000cc80 f   NpAggregate.obj
 0001:0000bcf0       ??0NpArticulationReducedCoordinate@physx@@QEAA@XZ 000000018000ccf0 f   NpArticulationReducedCoordinate.obj
 0001:0000bda0       ??1PxArticulationImpl@physx@@QEAA@XZ 000000018000cda0 f i NpArticulationReducedCoordinate.obj
 0001:0000be10       ??_E?$NpArticulationTemplate@VPxArticulationReducedCoordinate@physx@@@physx@@UEAAPEAXI@Z 000000018000ce10 f i NpArticulationReducedCoordinate.obj
 0001:0000be10       ??_G?$NpArticulationTemplate@VPxArticulationReducedCoordinate@physx@@@physx@@UEAAPEAXI@Z 000000018000ce10 f i NpArticulationReducedCoordinate.obj
 0001:0000bea0       ??_ENpArticulationReducedCoordinate@physx@@UEAAPEAXI@Z 000000018000cea0 f i NpArticulationReducedCoordinate.obj
 0001:0000bea0       ??_GNpArticulationReducedCoordinate@physx@@UEAAPEAXI@Z 000000018000cea0 f i NpArticulationReducedCoordinate.obj
 0001:0000bf80       ?addLoopJoint@NpArticulationReducedCoordinate@physx@@UEAAXPEAVPxJoint@2@@Z 000000018000cf80 f   NpArticulationReducedCoordinate.obj
 0001:0000c030       ?allocate@?$Array@PEAVNpArticulationLink@physx@@V?$InlineAllocator@$0CA@V?$ReflectionAllocator@PEAVNpArticulationLink@physx@@@shdfnd@physx@@@shdfnd@2@@shdfnd@physx@@IEAAPEAPEAVNpArticulationLink@3@I@Z 000000018000d030 f i NpArticulationReducedCoordinate.obj
 0001:0000c0f0       ?allocate@?$Array@PEAVPxJoint@physx@@V?$ReflectionAllocator@PEAVPxJoint@physx@@@shdfnd@2@@shdfnd@physx@@IEAAPEAPEAVPxJoint@3@I@Z 000000018000d0f0 f i NpArticulationReducedCoordinate.obj
 0001:0000c190       ?applyCache@NpArticulationReducedCoordinate@physx@@UEAAXAEAVPxArticulationCache@2@V?$PxFlags@W4Enum@PxArticulationCache@physx@@E@2@_N@Z 000000018000d190 f   NpArticulationReducedCoordinate.obj
 0001:0000c4f0       ?commonInit@NpArticulationReducedCoordinate@physx@@UEBAXXZ 000000018000d4f0 f   NpArticulationReducedCoordinate.obj
 0001:0000c500       ?computeCoefficientMatrix@NpArticulationReducedCoordinate@physx@@UEBAXAEAVPxArticulationCache@2@@Z 000000018000d500 f   NpArticulationReducedCoordinate.obj
 0001:0000c570       ?computeCoriolisAndCentrifugalForce@NpArticulationReducedCoordinate@physx@@UEBAXAEAVPxArticulationCache@2@@Z 000000018000d570 f   NpArticulationReducedCoordinate.obj
 0001:0000c580       ?computeDenseJacobian@NpArticulationReducedCoordinate@physx@@UEBAXAEAVPxArticulationCache@2@AEAI1@Z 000000018000d580 f   NpArticulationReducedCoordinate.obj
 0001:0000c590       ?computeGeneralizedExternalForce@NpArticulationReducedCoordinate@physx@@UEBAXAEAVPxArticulationCache@2@@Z 000000018000d590 f   NpArticulationReducedCoordinate.obj
 0001:0000c5a0       ?computeGeneralizedGravityForce@NpArticulationReducedCoordinate@physx@@UEBAXAEAVPxArticulationCache@2@@Z 000000018000d5a0 f   NpArticulationReducedCoordinate.obj
 0001:0000c5b0       ?computeGeneralizedMassMatrix@NpArticulationReducedCoordinate@physx@@UEBAXAEAVPxArticulationCache@2@@Z 000000018000d5b0 f   NpArticulationReducedCoordinate.obj
 0001:0000c5c0       ?computeJointAcceleration@NpArticulationReducedCoordinate@physx@@UEBAXAEAVPxArticulationCache@2@@Z 000000018000d5c0 f   NpArticulationReducedCoordinate.obj
 0001:0000c5d0       ?computeJointForce@NpArticulationReducedCoordinate@physx@@UEBAXAEAVPxArticulationCache@2@@Z 000000018000d5d0 f   NpArticulationReducedCoordinate.obj
 0001:0000c5e0       ?computeLambda@NpArticulationReducedCoordinate@physx@@UEBA_NAEAVPxArticulationCache@2@0QEBMI@Z 000000018000d5e0 f   NpArticulationReducedCoordinate.obj
 0001:0000c6d0       ?copyInternalStateToCache@NpArticulationReducedCoordinate@physx@@UEBAXAEAVPxArticulationCache@2@V?$PxFlags@W4Enum@PxArticulationCache@physx@@E@2@@Z 000000018000d6d0 f   NpArticulationReducedCoordinate.obj
 0001:0000c6f0       ?createArticulationJoint@NpArticulationReducedCoordinate@physx@@UEAAPEAVPxArticulationJointBase@2@AEAVPxArticulationLink@2@AEBVPxTransform@2@01@Z 000000018000d6f0 f   NpArticulationReducedCoordinate.obj
 0001:0000c700       ?createCache@NpArticulationReducedCoordinate@physx@@UEBAPEAVPxArticulationCache@2@XZ 000000018000d700 f   NpArticulationReducedCoordinate.obj
 0001:0000c730       ?createLink@?$NpArticulationTemplate@VPxArticulation@physx@@@physx@@UEAAPEAVPxArticulationLink@2@PEAV32@AEBVPxTransform@2@@Z 000000018000d730 f i NpArticulation.obj
 0001:0000c730       ?createLink@?$NpArticulationTemplate@VPxArticulationReducedCoordinate@physx@@@physx@@UEAAPEAVPxArticulationLink@2@PEAV32@AEBVPxTransform@2@@Z 000000018000d730 f i NpArticulationReducedCoordinate.obj
 0001:0000c930       ?createObject@NpArticulationReducedCoordinate@physx@@SAPEAV12@AEAPEAEAEAVPxDeserializationContext@2@@Z 000000018000d930 f   NpArticulationReducedCoordinate.obj
 0001:0000cab0       ?exportExtraData@?$NpArticulationTemplate@VPxArticulation@physx@@@physx@@UEAAXAEAVPxSerializationContext@2@@Z 000000018000dab0 f i NpArticulation.obj
 0001:0000cab0       ?exportExtraData@?$NpArticulationTemplate@VPxArticulationReducedCoordinate@physx@@@physx@@UEAAXAEAVPxSerializationContext@2@@Z 000000018000dab0 f i NpArticulationReducedCoordinate.obj
 0001:0000cb20       ?getArticulationFlags@NpArticulationReducedCoordinate@physx@@UEBA?AV?$PxFlags@W4Enum@PxArticulationFlag@physx@@E@2@XZ 000000018000db20 f   NpArticulationReducedCoordinate.obj
 0001:0000cb30       ?getCacheDataSize@NpArticulationReducedCoordinate@physx@@UEBAIXZ 000000018000db30 f   NpArticulationReducedCoordinate.obj
 0001:0000cb40       ?getCoefficientMatrixSize@NpArticulationReducedCoordinate@physx@@UEBAIXZ 000000018000db40 f   NpArticulationReducedCoordinate.obj
 0001:0000cb50       ?getConcreteTypeName@NpArticulationReducedCoordinate@physx@@UEBAPEBDXZ 000000018000db50 f i NpArticulationReducedCoordinate.obj
 0001:0000cb60       ?getDofs@NpArticulationReducedCoordinate@physx@@UEBAIXZ 000000018000db60 f   NpArticulationReducedCoordinate.obj
 0001:0000cb70       ?getLinkAcceleration@NpArticulationReducedCoordinate@physx@@UEAA?AUPxSpatialVelocity@2@I@Z 000000018000db70 f   NpArticulationReducedCoordinate.obj
 0001:0000cb90       ?getLinkVelocity@NpArticulationReducedCoordinate@physx@@UEAA?AUPxSpatialVelocity@2@I@Z 000000018000db90 f   NpArticulationReducedCoordinate.obj
 0001:0000cbb0       ?getLinks@?$NpArticulationTemplate@VPxArticulation@physx@@@physx@@UEBAIPEAPEAVPxArticulationLink@2@II@Z 000000018000dbb0 f i NpArticulation.obj
 0001:0000cbb0       ?getLinks@?$NpArticulationTemplate@VPxArticulationReducedCoordinate@physx@@@physx@@UEBAIPEAPEAVPxArticulationLink@2@II@Z 000000018000dbb0 f i NpArticulationReducedCoordinate.obj
 0001:0000cc10       ?getLoopJoints@NpArticulationReducedCoordinate@physx@@UEBAIPEAPEAVPxJoint@2@II@Z 000000018000dc10 f   NpArticulationReducedCoordinate.obj
 0001:0000cc70       ?getGeometryType@NpShape@physx@@UEBA?AW4Enum@PxGeometryType@2@XZ 000000018000dc70 f i NpShape.obj
 0001:0000cc70       ?getNbLinks@?$NpArticulationTemplate@VPxArticulation@physx@@@physx@@UEBAIXZ 000000018000dc70 f i NpArticulation.obj
 0001:0000cc70       ?getNbLinks@?$NpArticulationTemplate@VPxArticulationReducedCoordinate@physx@@@physx@@UEBAIXZ 000000018000dc70 f i NpArticulationReducedCoordinate.obj
 0001:0000cc80       ?getNbLoopJoints@NpArticulationReducedCoordinate@physx@@UEBAIXZ 000000018000dc80 f   NpArticulationReducedCoordinate.obj
 0001:0000cc90       ?getScene@?$NpArticulationTemplate@VPxArticulation@physx@@@physx@@UEBAPEAVPxScene@2@XZ 000000018000dc90 f i NpArticulation.obj
 0001:0000cc90       ?getScene@?$NpArticulationTemplate@VPxArticulationReducedCoordinate@physx@@@physx@@UEBAPEAVPxScene@2@XZ 000000018000dc90 f i NpArticulationReducedCoordinate.obj
 0001:0000ccc0       ?getSleepThreshold@?$NpArticulationTemplate@VPxArticulation@physx@@@physx@@UEBAMXZ 000000018000dcc0 f i NpArticulation.obj
 0001:0000ccc0       ?getSleepThreshold@?$NpArticulationTemplate@VPxArticulationReducedCoordinate@physx@@@physx@@UEBAMXZ 000000018000dcc0 f i NpArticulationReducedCoordinate.obj
 0001:0000cce0       ?getSolverIterationCounts@?$NpArticulationTemplate@VPxArticulation@physx@@@physx@@UEBAXAEAI0@Z 000000018000dce0 f i NpArticulation.obj
 0001:0000cce0       ?getSolverIterationCounts@?$NpArticulationTemplate@VPxArticulationReducedCoordinate@physx@@@physx@@UEBAXAEAI0@Z 000000018000dce0 f i NpArticulationReducedCoordinate.obj
 0001:0000cd20       ?getStabilizationThreshold@?$NpArticulationTemplate@VPxArticulation@physx@@@physx@@UEBAMXZ 000000018000dd20 f i NpArticulation.obj
 0001:0000cd20       ?getStabilizationThreshold@?$NpArticulationTemplate@VPxArticulationReducedCoordinate@physx@@@physx@@UEBAMXZ 000000018000dd20 f i NpArticulationReducedCoordinate.obj
 0001:0000cd40       ?getWakeCounter@?$NpArticulationTemplate@VPxArticulation@physx@@@physx@@UEBAMXZ 000000018000dd40 f i NpArticulation.obj
 0001:0000cd40       ?getWakeCounter@?$NpArticulationTemplate@VPxArticulationReducedCoordinate@physx@@@physx@@UEBAMXZ 000000018000dd40 f i NpArticulationReducedCoordinate.obj
 0001:0000cd50       ?getWorldBounds@?$NpArticulationTemplate@VPxArticulation@physx@@@physx@@UEBA?AVPxBounds3@2@M@Z 000000018000dd50 f i NpArticulation.obj
 0001:0000cd50       ?getWorldBounds@?$NpArticulationTemplate@VPxArticulationReducedCoordinate@physx@@@physx@@UEBA?AVPxBounds3@2@M@Z 000000018000dd50 f i NpArticulationReducedCoordinate.obj
 0001:0000cf70       ?growAndPushBack@?$Array@PEAVNpArticulationLink@physx@@V?$InlineAllocator@$0CA@V?$ReflectionAllocator@PEAVNpArticulationLink@physx@@@shdfnd@physx@@@shdfnd@2@@shdfnd@physx@@IEAAAEAPEAVNpArticulationLink@3@AEBQEAV43@@Z 000000018000df70 f i NpArticulationReducedCoordinate.obj
 0001:0000d040       ?growAndPushBack@?$Array@PEAVPxJoint@physx@@V?$ReflectionAllocator@PEAVPxJoint@physx@@@shdfnd@2@@shdfnd@physx@@IEAAAEAPEAVPxJoint@3@AEBQEAV43@@Z 000000018000e040 f i NpArticulationReducedCoordinate.obj
 0001:0000d100       ?isKindOf@NpArticulationReducedCoordinate@physx@@UEBA_NPEBD@Z 000000018000e100 f i NpArticulationReducedCoordinate.obj
 0001:0000d150       ?isSleeping@?$NpArticulationTemplate@VPxArticulation@physx@@@physx@@UEBA_NXZ 000000018000e150 f i NpArticulation.obj
 0001:0000d150       ?isSleeping@?$NpArticulationTemplate@VPxArticulationReducedCoordinate@physx@@@physx@@UEBA_NXZ 000000018000e150 f i NpArticulationReducedCoordinate.obj
 0001:0000d160       ?packJointData@NpArticulationReducedCoordinate@physx@@UEBAXPEBMPEAM@Z 000000018000e160 f   NpArticulationReducedCoordinate.obj
 0001:0000d170       ?preExportDataReset@NpArticulationReducedCoordinate@physx@@QEAAXXZ 000000018000e170 f   NpArticulationReducedCoordinate.obj
 0001:0000d190       ?putToSleep@?$NpArticulationTemplate@VPxArticulationReducedCoordinate@physx@@@physx@@UEAAXXZ 000000018000e190 f i NpArticulationReducedCoordinate.obj
 0001:0000d2f0       ?recomputeLinkIDs@PxArticulationImpl@physx@@QEAAXXZ 000000018000e2f0 f   NpArticulationReducedCoordinate.obj
 0001:0000d3a0       ?recreate@?$Array@PEAVPxJoint@physx@@V?$ReflectionAllocator@PEAVPxJoint@physx@@@shdfnd@2@@shdfnd@physx@@IEAAXI@Z 000000018000e3a0 f i NpArticulationReducedCoordinate.obj
 0001:0000d440       ?release@?$NpArticulationTemplate@VPxArticulation@physx@@@physx@@UEAAXXZ 000000018000e440 f i NpArticulation.obj
 0001:0000d440       ?release@?$NpArticulationTemplate@VPxArticulationReducedCoordinate@physx@@@physx@@UEAAXXZ 000000018000e440 f i NpArticulationReducedCoordinate.obj
 0001:0000d540       ?releaseArticulationJoint@NpArticulationReducedCoordinate@physx@@UEAAXPEAVPxArticulationJointBase@2@@Z 000000018000e540 f   NpArticulationReducedCoordinate.obj
 0001:0000d550       ?releaseCache@NpArticulationReducedCoordinate@physx@@UEBAXAEAVPxArticulationCache@2@@Z 000000018000e550 f   NpArticulationReducedCoordinate.obj
 0001:0000d560       ?removeLoopJoint@NpArticulationReducedCoordinate@physx@@UEAAXPEAVPxJoint@2@@Z 000000018000e560 f   NpArticulationReducedCoordinate.obj
 0001:0000d5d0       ?requiresObjects@?$NpArticulationTemplate@VPxArticulation@physx@@@physx@@UEAAXAEAVPxProcessPxBaseCallback@2@@Z 000000018000e5d0 f i NpArticulation.obj
 0001:0000d5d0       ?requiresObjects@?$NpArticulationTemplate@VPxArticulationReducedCoordinate@physx@@@physx@@UEAAXAEAVPxProcessPxBaseCallback@2@@Z 000000018000e5d0 f i NpArticulationReducedCoordinate.obj
 0001:0000d640       ?setAngularVelocity@Body@Scb@physx@@QEAAXAEBVPxVec3@3@@Z 000000018000e640 f i NpArticulationReducedCoordinate.obj
 0001:0000d6b0       ?setArticulationFlag@NpArticulationReducedCoordinate@physx@@UEAAXW4Enum@PxArticulationFlag@2@_N@Z 000000018000e6b0 f   NpArticulationReducedCoordinate.obj
 0001:0000d720       ?setArticulationFlags@NpArticulationReducedCoordinate@physx@@UEAAXV?$PxFlags@W4Enum@PxArticulationFlag@physx@@E@2@@Z 000000018000e720 f   NpArticulationReducedCoordinate.obj
 0001:0000d780       ?setLinearVelocity@Body@Scb@physx@@QEAAXAEBVPxVec3@3@@Z 000000018000e780 f i NpArticulationReducedCoordinate.obj
 0001:0000d7f0       ?setSleepThreshold@?$NpArticulationTemplate@VPxArticulation@physx@@@physx@@UEAAXM@Z 000000018000e7f0 f i NpArticulation.obj
 0001:0000d7f0       ?setSleepThreshold@?$NpArticulationTemplate@VPxArticulationReducedCoordinate@physx@@@physx@@UEAAXM@Z 000000018000e7f0 f i NpArticulationReducedCoordinate.obj
 0001:0000d870       ?setSolverIterationCounts@?$NpArticulationTemplate@VPxArticulation@physx@@@physx@@UEAAXII@Z 000000018000e870 f i NpArticulation.obj
 0001:0000d870       ?setSolverIterationCounts@?$NpArticulationTemplate@VPxArticulationReducedCoordinate@physx@@@physx@@UEAAXII@Z 000000018000e870 f i NpArticulationReducedCoordinate.obj
 0001:0000d900       ?setStabilizationThreshold@?$NpArticulationTemplate@VPxArticulation@physx@@@physx@@UEAAXM@Z 000000018000e900 f i NpArticulation.obj
 0001:0000d900       ?setStabilizationThreshold@?$NpArticulationTemplate@VPxArticulationReducedCoordinate@physx@@@physx@@UEAAXM@Z 000000018000e900 f i NpArticulationReducedCoordinate.obj
 0001:0000d980       ?setWakeCounter@?$NpArticulationTemplate@VPxArticulation@physx@@@physx@@UEAAXM@Z 000000018000e980 f i NpArticulation.obj
 0001:0000d980       ?setWakeCounter@?$NpArticulationTemplate@VPxArticulationReducedCoordinate@physx@@@physx@@UEAAXM@Z 000000018000e980 f i NpArticulationReducedCoordinate.obj
 0001:0000d990       ?setWakeCounter@PxArticulationImpl@physx@@QEAAXM@Z 000000018000e990 f i NpArticulationReducedCoordinate.obj
 0001:0000db60       ?teleportRootLink@NpArticulationReducedCoordinate@physx@@UEAAXAEBVPxTransform@2@_N@Z 000000018000eb60 f   NpArticulationReducedCoordinate.obj
 0001:0000db70       ?unpackJointData@NpArticulationReducedCoordinate@physx@@UEBAXPEBMPEAM@Z 000000018000eb70 f   NpArticulationReducedCoordinate.obj
 0001:0000db80       ?wakeUp@?$NpArticulationTemplate@VPxArticulationReducedCoordinate@physx@@@physx@@UEAAXXZ 000000018000eb80 f i NpArticulationReducedCoordinate.obj
 0001:0000dce0       ?wakeUpInternal@PxArticulationImpl@physx@@QEAAX_N0@Z 000000018000ece0 f i NpArticulationReducedCoordinate.obj
 0001:0000de70       ?zeroCache@NpArticulationReducedCoordinate@physx@@UEAAXAEAVPxArticulationCache@2@@Z 000000018000ee70 f   NpArticulationReducedCoordinate.obj
 0001:0000de80       ??0NpArticulation@physx@@QEAA@XZ 000000018000ee80 f   NpArticulation.obj
 0001:0000df20       ??_E?$NpArticulationTemplate@VPxArticulation@physx@@@physx@@UEAAPEAXI@Z 000000018000ef20 f i NpArticulation.obj
 0001:0000df20       ??_G?$NpArticulationTemplate@VPxArticulation@physx@@@physx@@UEAAPEAXI@Z 000000018000ef20 f i NpArticulation.obj
 0001:0000dfb0       ??_ENpArticulation@physx@@UEAAPEAXI@Z 000000018000efb0 f i NpArticulation.obj
 0001:0000dfb0       ??_GNpArticulation@physx@@UEAAPEAXI@Z 000000018000efb0 f i NpArticulation.obj
 0001:0000e050       ?NpArticulationGetRootFromScb@physx@@YAPEAVBody@Scb@1@AEAVArticulation@31@@Z 000000018000f050 f   NpArticulation.obj
 0001:0000e080       ?NpSetArticulationOnJoint@physx@@YAXAEAVPxArticulationJointBase@1@AEAVPxArticulationImpl@1@@Z 000000018000f080 f   NpArticulation.obj
 0001:0000e0a0       ?applyImpulse@NpArticulation@physx@@UEAAXPEAVPxArticulationLink@2@AEBVPxArticulationDriveCache@2@AEBVPxVec3@2@2@Z 000000018000f0a0 f   NpArticulation.obj
 0001:0000e1c0       ?computeImpulseResponse@NpArticulation@physx@@UEBAXPEAVPxArticulationLink@2@AEAVPxVec3@2@1AEBVPxArticulationDriveCache@2@AEBV42@3@Z 000000018000f1c0 f   NpArticulation.obj
 0001:0000e1d0       ?createArticulationJoint@NpArticulation@physx@@EEAAPEAVPxArticulationJointBase@2@AEAVPxArticulationLink@2@AEBVPxTransform@2@01@Z 000000018000f1d0 f   NpArticulation.obj
 0001:0000e1e0       ?createDriveCache@NpArticulation@physx@@UEBAPEAVPxArticulationDriveCache@2@MI@Z 000000018000f1e0 f   NpArticulation.obj
 0001:0000e1f0       ?createObject@NpArticulation@physx@@SAPEAV12@AEAPEAEAEAVPxDeserializationContext@2@@Z 000000018000f1f0 f   NpArticulation.obj
 0001:0000e370       ?getConcreteTypeName@NpArticulation@physx@@UEBAPEBDXZ 000000018000f370 f i NpArticulation.obj
 0001:0000e380       ?getExternalDriveIterations@NpArticulation@physx@@UEBAIXZ 000000018000f380 f   NpArticulation.obj
 0001:0000e3a0       ?getInternalDriveIterations@NpArticulation@physx@@UEBAIXZ 000000018000f3a0 f   NpArticulation.obj
 0001:0000e3c0       ?getMaxProjectionIterations@NpArticulation@physx@@UEBAIXZ 000000018000f3c0 f   NpArticulation.obj
 0001:0000e3e0       ?getSeparationTolerance@NpArticulation@physx@@UEBAMXZ 000000018000f3e0 f   NpArticulation.obj
 0001:0000e400       ?isKindOf@NpArticulation@physx@@UEBA_NPEBD@Z 000000018000f400 f i NpArticulation.obj
 0001:0000e450       ?putToSleep@?$NpArticulationTemplate@VPxArticulation@physx@@@physx@@UEAAXXZ 000000018000f450 f i NpArticulation.obj
 0001:0000e460       ?putToSleep@PxArticulationImpl@physx@@QEAAXXZ 000000018000f460 f i NpArticulation.obj
 0001:0000e650       ?releaseArticulationJoint@NpArticulation@physx@@EEAAXPEAVPxArticulationJointBase@2@@Z 000000018000f650 f   NpArticulation.obj
 0001:0000e660       ?releaseDriveCache@NpArticulation@physx@@UEBAXAEAVPxArticulationDriveCache@2@@Z 000000018000f660 f   NpArticulation.obj
 0001:0000e670       ?setExternalDriveIterations@NpArticulation@physx@@UEAAXI@Z 000000018000f670 f   NpArticulation.obj
 0001:0000e6f0       ?setInternalDriveIterations@NpArticulation@physx@@UEAAXI@Z 000000018000f6f0 f   NpArticulation.obj
 0001:0000e770       ?setMaxProjectionIterations@NpArticulation@physx@@UEAAXI@Z 000000018000f770 f   NpArticulation.obj
 0001:0000e7f0       ?setSeparationTolerance@NpArticulation@physx@@UEAAXM@Z 000000018000f7f0 f   NpArticulation.obj
 0001:0000e870       ?updateDriveCache@NpArticulation@physx@@UEBAXAEAVPxArticulationDriveCache@2@MI@Z 000000018000f870 f   NpArticulation.obj
 0001:0000e880       ?wakeUp@?$NpArticulationTemplate@VPxArticulation@physx@@@physx@@UEAAXXZ 000000018000f880 f i NpArticulation.obj
 0001:0000e890       ?wakeUp@PxArticulationImpl@physx@@QEAAXXZ 000000018000f890 f i NpArticulation.obj
 0001:0000e9f0       ??0NpArticulationJoint@physx@@QEAA@AEAVNpArticulationLink@1@AEBVPxTransform@1@01@Z 000000018000f9f0 f   NpArticulationJoint.obj
 0001:0000eaa0       ??DPxQuat@physx@@QEBA?AV01@AEBV01@@Z 000000018000faa0 f i NpArticulationJoint.obj
 0001:0000ebe0       ??_E?$NpArticulationJointTemplate@VPxArticulationJoint@physx@@@physx@@UEAAPEAXI@Z 000000018000fbe0 f i NpArticulationJoint.obj
 0001:0000ebe0       ??_ENpArticulationJoint@physx@@UEAAPEAXI@Z 000000018000fbe0 f i NpArticulationJoint.obj
 0001:0000ebe0       ??_G?$NpArticulationJointTemplate@VPxArticulationJoint@physx@@@physx@@UEAAPEAXI@Z 000000018000fbe0 f i NpArticulationJoint.obj
 0001:0000ebe0       ??_GNpArticulationJoint@physx@@UEAAPEAXI@Z 000000018000fbe0 f i NpArticulationJoint.obj
 0001:0000ec60       ?NpArticulationJointGetBodiesFromScb@physx@@YAXAEAVArticulationJoint@Scb@1@AEAPEAVBody@31@1@Z 000000018000fc60 f   NpArticulationJoint.obj
 0001:0000ec80       ?createObject@NpArticulationJoint@physx@@SAPEAV12@AEAPEAEAEAVPxDeserializationContext@2@@Z 000000018000fc80 f   NpArticulationJoint.obj
 0001:0000ed00       ?getChildArticulationLink@?$NpArticulationJointTemplate@VPxArticulationJoint@physx@@@physx@@UEBAAEAVPxArticulationLink@2@XZ 000000018000fd00 f i NpArticulationJoint.obj
 0001:0000ed00       ?getChildArticulationLink@?$NpArticulationJointTemplate@VPxArticulationJointReducedCoordinate@physx@@@physx@@UEBAAEAVPxArticulationLink@2@XZ 000000018000fd00 f i NpArticulationJointReducedCoordinate.obj
 0001:0000ed10       ?getChildPose@?$NpArticulationJointTemplate@VPxArticulationJoint@physx@@@physx@@UEBA?AVPxTransform@2@XZ 000000018000fd10 f i NpArticulationJoint.obj
 0001:0000ed10       ?getChildPose@?$NpArticulationJointTemplate@VPxArticulationJointReducedCoordinate@physx@@@physx@@UEBA?AVPxTransform@2@XZ 000000018000fd10 f i NpArticulationJointReducedCoordinate.obj
 0001:0000ed30       ?getChildPose@PxArticulationJointImpl@physx@@QEBA?AVPxTransform@2@XZ 000000018000fd30 f i NpArticulationJoint.obj
 0001:0000ef20       ?getConcreteTypeName@PxArticulationJoint@physx@@UEBAPEBDXZ 000000018000ff20 f i NpArticulationJoint.obj
 0001:0000ef30       ?getDamping@NpArticulationJoint@physx@@UEBAMXZ 000000018000ff30 f   NpArticulationJoint.obj
 0001:0000ef50       ?getDriveType@NpArticulationJoint@physx@@UEBA?AW4Enum@PxArticulationJointDriveType@2@XZ 000000018000ff50 f   NpArticulationJoint.obj
 0001:0000ef70       ?getExternalCompliance@NpArticulationJoint@physx@@UEBAMXZ 000000018000ff70 f   NpArticulationJoint.obj
 0001:0000ef90       ?getFrictionCoefficient@NpArticulationJoint@physx@@UEBAMXZ 000000018000ff90 f   NpArticulationJoint.obj
 0001:0000ef90       ?getFrictionCoefficient@NpArticulationJointReducedCoordinate@physx@@UEBAMXZ 000000018000ff90 f   NpArticulationJointReducedCoordinate.obj
 0001:0000efb0       ?getImpl@?$NpArticulationJointTemplate@VPxArticulationJoint@physx@@@physx@@UEAAPEAVPxArticulationJointImpl@2@XZ 000000018000ffb0 f i NpArticulationJoint.obj
 0001:0000efb0       ?getImpl@?$NpArticulationJointTemplate@VPxArticulationJoint@physx@@@physx@@UEBAPEBVPxArticulationJointImpl@2@XZ 000000018000ffb0 f i NpArticulationJoint.obj
 0001:0000efb0       ?getImpl@?$NpArticulationJointTemplate@VPxArticulationJointReducedCoordinate@physx@@@physx@@UEAAPEAVPxArticulationJointImpl@2@XZ 000000018000ffb0 f i NpArticulationJointReducedCoordinate.obj
 0001:0000efb0       ?getImpl@?$NpArticulationJointTemplate@VPxArticulationJointReducedCoordinate@physx@@@physx@@UEBAPEBVPxArticulationJointImpl@2@XZ 000000018000ffb0 f i NpArticulationJointReducedCoordinate.obj
 0001:0000efc0       ?getInternalCompliance@NpArticulationJoint@physx@@UEBAMXZ 000000018000ffc0 f   NpArticulationJoint.obj
 0001:0000efe0       ?getJointType@NpArticulationJoint@physx@@UEBA?AW4Enum@PxArticulationJointType@2@XZ 000000018000ffe0 f   NpArticulationJoint.obj
 0001:0000efe0       ?getJointType@NpArticulationJointReducedCoordinate@physx@@UEBA?AW4Enum@PxArticulationJointType@2@XZ 000000018000ffe0 f   NpArticulationJointReducedCoordinate.obj
 0001:0000f000       ?getMotion@NpArticulationJoint@physx@@UEBA?AW4Enum@PxArticulationMotion@2@W43PxArticulationAxis@2@@Z 0000000180010000 f   NpArticulationJoint.obj
 0001:0000f000       ?getMotion@NpArticulationJointReducedCoordinate@physx@@UEBA?AW4Enum@PxArticulationMotion@2@W43PxArticulationAxis@2@@Z 0000000180010000 f   NpArticulationJointReducedCoordinate.obj
 0001:0000f030       ?getCreatedPairs@BroadPhaseSap@Bp@physx@@UEAAPEAUBroadPhasePair@23@XZ 0000000180010030 f i LowLevelAABB_static_64:BpBroadPhaseSap.obj
 0001:0000f030       ?getParentArticulationLink@?$NpArticulationJointTemplate@VPxArticulationJoint@physx@@@physx@@UEBAAEAVPxArticulationLink@2@XZ 0000000180010030 f i NpArticulationJoint.obj
 0001:0000f030       ?getParentArticulationLink@?$NpArticulationJointTemplate@VPxArticulationJointReducedCoordinate@physx@@@physx@@UEBAAEAVPxArticulationLink@2@XZ 0000000180010030 f i NpArticulationJointReducedCoordinate.obj
 0001:0000f040       ?getParentPose@?$NpArticulationJointTemplate@VPxArticulationJoint@physx@@@physx@@UEBA?AVPxTransform@2@XZ 0000000180010040 f i NpArticulationJoint.obj
 0001:0000f040       ?getParentPose@?$NpArticulationJointTemplate@VPxArticulationJointReducedCoordinate@physx@@@physx@@UEBA?AVPxTransform@2@XZ 0000000180010040 f i NpArticulationJointReducedCoordinate.obj
 0001:0000f060       ?getParentPose@PxArticulationJointImpl@physx@@QEBA?AVPxTransform@2@XZ 0000000180010060 f i NpArticulationJoint.obj
 0001:0000f240       ?getStiffness@NpArticulationJoint@physx@@UEBAMXZ 0000000180010240 f   NpArticulationJoint.obj
 0001:0000f260       ?getSwingLimit@NpArticulationJoint@physx@@UEBAXAEAM0@Z 0000000180010260 f   NpArticulationJoint.obj
 0001:0000f2a0       ?getSwingLimitContactDistance@NpArticulationJoint@physx@@UEBAMXZ 00000001800102a0 f   NpArticulationJoint.obj
 0001:0000f2c0       ?getSwingLimitEnabled@NpArticulationJoint@physx@@UEBA_NXZ 00000001800102c0 f   NpArticulationJoint.obj
 0001:0000f2e0       ?getTangentialDamping@NpArticulationJoint@physx@@UEBAMXZ 00000001800102e0 f   NpArticulationJoint.obj
 0001:0000f300       ?getTangentialStiffness@NpArticulationJoint@physx@@UEBAMXZ 0000000180010300 f   NpArticulationJoint.obj
 0001:0000f320       ?getTargetOrientation@NpArticulationJoint@physx@@UEBA?AVPxQuat@2@XZ 0000000180010320 f   NpArticulationJoint.obj
 0001:0000f360       ?getTargetVelocity@NpArticulationJoint@physx@@UEBA?AVPxVec3@2@XZ 0000000180010360 f   NpArticulationJoint.obj
 0001:0000f3a0       ?getTwistLimit@NpArticulationJoint@physx@@UEBAXAEAM0@Z 00000001800103a0 f   NpArticulationJoint.obj
 0001:0000f3e0       ?getTwistLimitContactDistance@NpArticulationJoint@physx@@UEBAMXZ 00000001800103e0 f   NpArticulationJoint.obj
 0001:0000f400       ?getTwistLimitEnabled@NpArticulationJoint@physx@@UEBA_NXZ 0000000180010400 f   NpArticulationJoint.obj
 0001:0000f420       ?isKindOf@PxArticulationJoint@physx@@MEBA_NPEBD@Z 0000000180010420 f i NpArticulationJoint.obj
 0001:0000f490       ?isSubordinate@?$PxSerializerDefaultAdapter@VNpArticulationJoint@physx@@@physx@@UEBA_NXZ 0000000180010490 f i NpSerializerAdapter.obj
 0001:0000f490       ?isSubordinate@?$PxSerializerDefaultAdapter@VNpArticulationLink@physx@@@physx@@UEBA_NXZ 0000000180010490 f i NpSerializerAdapter.obj
 0001:0000f490       ?isSubordinate@?$PxSerializerDefaultAdapter@VNpConstraint@physx@@@physx@@UEBA_NXZ 0000000180010490 f i NpSerializerAdapter.obj
 0001:0000f490       ?isSubordinate@NpArticulationJoint@physx@@UEBA_NXZ 0000000180010490 f i NpArticulationJoint.obj
 0001:0000f490       ?isSubordinate@NpArticulationJointReducedCoordinate@physx@@UEBA_NXZ 0000000180010490 f i NpArticulationJointReducedCoordinate.obj
 0001:0000f490       ?isSubordinate@NpArticulationLink@physx@@UEBA_NXZ 0000000180010490 f i NpArticulationLink.obj
 0001:0000f490       ?isSubordinate@NpConstraint@physx@@UEBA_NXZ 0000000180010490 f i NpConstraint.obj
 0001:0000f490       ?willStoreStaticConstraint@FeatherstoneArticulation@Dy@physx@@UEAA_NXZ 0000000180010490 f i NpImmediateMode.obj
 0001:0000f490       __acrt_initialize          0000000180010490 f i MSVCRT:ucrt_stubs.obj
 0001:0000f490       __acrt_thread_attach       0000000180010490 f i MSVCRT:ucrt_stubs.obj
 0001:0000f490       __acrt_thread_detach       0000000180010490 f i MSVCRT:ucrt_stubs.obj
 0001:0000f490       __acrt_uninitialize        0000000180010490 f i MSVCRT:ucrt_stubs.obj
 0001:0000f490       __acrt_uninitialize_critical 0000000180010490 f i MSVCRT:ucrt_stubs.obj
 0001:0000f490       __scrt_stub_for_acrt_initialize 0000000180010490 f i MSVCRT:ucrt_stubs.obj
 0001:0000f490       __scrt_stub_for_acrt_thread_attach 0000000180010490 f i MSVCRT:ucrt_stubs.obj
 0001:0000f490       __scrt_stub_for_acrt_thread_detach 0000000180010490 f i MSVCRT:ucrt_stubs.obj
 0001:0000f490       __scrt_stub_for_acrt_uninitialize 0000000180010490 f i MSVCRT:ucrt_stubs.obj
 0001:0000f490       __scrt_stub_for_acrt_uninitialize_critical 0000000180010490 f i MSVCRT:ucrt_stubs.obj
 0001:0000f490       __vcrt_initialize          0000000180010490 f i MSVCRT:ucrt_stubs.obj
 0001:0000f490       __vcrt_thread_attach       0000000180010490 f i MSVCRT:ucrt_stubs.obj
 0001:0000f490       __vcrt_thread_detach       0000000180010490 f i MSVCRT:ucrt_stubs.obj
 0001:0000f490       __vcrt_uninitialize        0000000180010490 f i MSVCRT:ucrt_stubs.obj
 0001:0000f490       __vcrt_uninitialize_critical 0000000180010490 f i MSVCRT:ucrt_stubs.obj
 0001:0000f4a0       ?release@?$NpArticulationJointTemplate@VPxArticulationJoint@physx@@@physx@@UEAAXXZ 00000001800104a0 f i NpArticulationJoint.obj
 0001:0000f4a0       ?release@?$NpArticulationJointTemplate@VPxArticulationJointReducedCoordinate@physx@@@physx@@UEAAXXZ 00000001800104a0 f i NpArticulationJointReducedCoordinate.obj
 0001:0000f500       ?resolveReferences@NpArticulationJoint@physx@@UEAAXAEAVPxDeserializationContext@2@@Z 0000000180010500 f   NpArticulationJoint.obj
 0001:0000f500       ?resolveReferences@NpArticulationJointReducedCoordinate@physx@@UEAAXAEAVPxDeserializationContext@2@@Z 0000000180010500 f   NpArticulationJointReducedCoordinate.obj
 0001:0000f570       ?resolveReferences@PxArticulationJointImpl@physx@@QEAAXAEAVPxDeserializationContext@2@AEAVPxArticulationJointBase@2@@Z 0000000180010570 f i NpArticulationJoint.obj
 0001:0000f5e0       ?setChildPose@?$NpArticulationJointTemplate@VPxArticulationJoint@physx@@@physx@@UEAAXAEBVPxTransform@2@@Z 00000001800105e0 f i NpArticulationJoint.obj
 0001:0000f5e0       ?setChildPose@?$NpArticulationJointTemplate@VPxArticulationJointReducedCoordinate@physx@@@physx@@UEAAXAEBVPxTransform@2@@Z 00000001800105e0 f i NpArticulationJointReducedCoordinate.obj
 0001:0000f5f0       ?setChildPose@PxArticulationJointImpl@physx@@QEAAXAEBVPxTransform@2@@Z 00000001800105f0 f i NpArticulationJoint.obj
 0001:0000f950       ?setDamping@NpArticulationJoint@physx@@UEAAXM@Z 0000000180010950 f   NpArticulationJoint.obj
 0001:0000f9d0       ?setDriveType@NpArticulationJoint@physx@@UEAAXW4Enum@PxArticulationJointDriveType@2@@Z 00000001800109d0 f   NpArticulationJoint.obj
 0001:0000fa60       ?setExternalCompliance@NpArticulationJoint@physx@@UEAAXM@Z 0000000180010a60 f   NpArticulationJoint.obj
 0001:0000fae0       ?setFrictionCoefficient@NpArticulationJoint@physx@@UEAAXM@Z 0000000180010ae0 f   NpArticulationJoint.obj
 0001:0000fae0       ?setFrictionCoefficient@NpArticulationJointReducedCoordinate@physx@@UEAAXM@Z 0000000180010ae0 f   NpArticulationJointReducedCoordinate.obj
 0001:0000fb60       ?setInternalCompliance@NpArticulationJoint@physx@@UEAAXM@Z 0000000180010b60 f   NpArticulationJoint.obj
 0001:0000fbe0       ?setJointType@NpArticulationJoint@physx@@UEAAXW4Enum@PxArticulationJointType@2@@Z 0000000180010be0 f   NpArticulationJoint.obj
 0001:0000fbe0       ?setJointType@NpArticulationJointReducedCoordinate@physx@@UEAAXW4Enum@PxArticulationJointType@2@@Z 0000000180010be0 f   NpArticulationJointReducedCoordinate.obj
 0001:0000fc70       ?setMotion@ArticulationJoint@Scb@physx@@QEAAXW4Enum@PxArticulationAxis@3@W44PxArticulationMotion@3@@Z 0000000180010c70 f i NpArticulationJoint.obj
 0001:0000fdc0       ?setMotion@NpArticulationJoint@physx@@UEAAXW4Enum@PxArticulationAxis@2@W43PxArticulationMotion@2@@Z 0000000180010dc0 f   NpArticulationJoint.obj
 0001:0000fdc0       ?setMotion@NpArticulationJointReducedCoordinate@physx@@UEAAXW4Enum@PxArticulationAxis@2@W43PxArticulationMotion@2@@Z 0000000180010dc0 f   NpArticulationJointReducedCoordinate.obj
 0001:0000fe00       ?setParentPose@?$NpArticulationJointTemplate@VPxArticulationJoint@physx@@@physx@@UEAAXAEBVPxTransform@2@@Z 0000000180010e00 f i NpArticulationJoint.obj
 0001:0000fe00       ?setParentPose@?$NpArticulationJointTemplate@VPxArticulationJointReducedCoordinate@physx@@@physx@@UEAAXAEBVPxTransform@2@@Z 0000000180010e00 f i NpArticulationJointReducedCoordinate.obj
 0001:0000fe10       ?setParentPose@PxArticulationJointImpl@physx@@QEAAXAEBVPxTransform@2@@Z 0000000180010e10 f i NpArticulationJoint.obj
 0001:000101b0       ?setStiffness@NpArticulationJoint@physx@@UEAAXM@Z 00000001800111b0 f   NpArticulationJoint.obj
 0001:00010230       ?setSwingLimit@NpArticulationJoint@physx@@UEAAXMM@Z 0000000180011230 f   NpArticulationJoint.obj
 0001:000102f0       ?setSwingLimitContactDistance@NpArticulationJoint@physx@@UEAAXM@Z 00000001800112f0 f   NpArticulationJoint.obj
 0001:00010370       ?setSwingLimitEnabled@NpArticulationJoint@physx@@UEAAX_N@Z 0000000180011370 f   NpArticulationJoint.obj
 0001:00010400       ?setTangentialDamping@NpArticulationJoint@physx@@UEAAXM@Z 0000000180011400 f   NpArticulationJoint.obj
 0001:00010480       ?setTangentialStiffness@NpArticulationJoint@physx@@UEAAXM@Z 0000000180011480 f   NpArticulationJoint.obj
 0001:00010500       ?setTargetOrientation@NpArticulationJoint@physx@@UEAAXAEBVPxQuat@2@@Z 0000000180011500 f   NpArticulationJoint.obj
 0001:000105a0       ?setTargetVelocity@NpArticulationJoint@physx@@UEAAXAEBVPxVec3@2@@Z 00000001800115a0 f   NpArticulationJoint.obj
 0001:00010630       ?setTwistLimit@NpArticulationJoint@physx@@UEAAXMM@Z 0000000180011630 f   NpArticulationJoint.obj
 0001:000106f0       ?setTwistLimitContactDistance@NpArticulationJoint@physx@@UEAAXM@Z 00000001800116f0 f   NpArticulationJoint.obj
 0001:00010770       ?setTwistLimitEnabled@NpArticulationJoint@physx@@UEAAX_N@Z 0000000180011770 f   NpArticulationJoint.obj
 0001:00010800       ??0NpArticulationJointReducedCoordinate@physx@@QEAA@AEAVNpArticulationLink@1@AEBVPxTransform@1@01@Z 0000000180011800 f   NpArticulationJointReducedCoordinate.obj
 0001:000108b0       ??_E?$NpArticulationJointTemplate@VPxArticulationJointReducedCoordinate@physx@@@physx@@UEAAPEAXI@Z 00000001800118b0 f i NpArticulationJointReducedCoordinate.obj
 0001:000108b0       ??_ENpArticulationJointReducedCoordinate@physx@@UEAAPEAXI@Z 00000001800118b0 f i NpArticulationJointReducedCoordinate.obj
 0001:000108b0       ??_G?$NpArticulationJointTemplate@VPxArticulationJointReducedCoordinate@physx@@@physx@@UEAAPEAXI@Z 00000001800118b0 f i NpArticulationJointReducedCoordinate.obj
 0001:000108b0       ??_GNpArticulationJointReducedCoordinate@physx@@UEAAPEAXI@Z 00000001800118b0 f i NpArticulationJointReducedCoordinate.obj
 0001:00010930       ?createObject@NpArticulationJointReducedCoordinate@physx@@SAPEAV12@AEAPEAEAEAVPxDeserializationContext@2@@Z 0000000180011930 f   NpArticulationJointReducedCoordinate.obj
 0001:000109b0       ?getConcreteTypeName@PxArticulationJointReducedCoordinate@physx@@UEBAPEBDXZ 00000001800119b0 f i NpArticulationJointReducedCoordinate.obj
 0001:000109c0       ?getDrive@NpArticulationJointReducedCoordinate@physx@@UEAAXW4Enum@PxArticulationAxis@2@AEAM11AEAW43PxArticulationDriveType@2@@Z 00000001800119c0 f   NpArticulationJointReducedCoordinate.obj
 0001:00010a50       ?getDriveTarget@NpArticulationJointReducedCoordinate@physx@@UEAAMW4Enum@PxArticulationAxis@2@@Z 0000000180011a50 f   NpArticulationJointReducedCoordinate.obj
 0001:00010a80       ?getDriveVelocity@NpArticulationJointReducedCoordinate@physx@@UEAAMW4Enum@PxArticulationAxis@2@@Z 0000000180011a80 f   NpArticulationJointReducedCoordinate.obj
 0001:00010ab0       ?getLimit@NpArticulationJointReducedCoordinate@physx@@UEAAXW4Enum@PxArticulationAxis@2@AEAM1@Z 0000000180011ab0 f   NpArticulationJointReducedCoordinate.obj
 0001:00010b00       ?getMaxJointVelocity@NpArticulationJointReducedCoordinate@physx@@UEBAMXZ 0000000180011b00 f   NpArticulationJointReducedCoordinate.obj
 0001:00010b20       ?isKindOf@PxArticulationJointReducedCoordinate@physx@@MEBA_NPEBD@Z 0000000180011b20 f i NpArticulationJointReducedCoordinate.obj
 0001:00010b70       ?setDrive@ArticulationJoint@Scb@physx@@QEAAXW4Enum@PxArticulationAxis@3@MMMW44PxArticulationDriveType@3@@Z 0000000180011b70 f i NpArticulationJointReducedCoordinate.obj
 0001:00010e00       ?setDrive@NpArticulationJointReducedCoordinate@physx@@UEAAXW4Enum@PxArticulationAxis@2@MMMW43PxArticulationDriveType@2@@Z 0000000180011e00 f   NpArticulationJointReducedCoordinate.obj
 0001:00010e10       ?setDriveTarget@ArticulationJoint@Scb@physx@@QEAAXW4Enum@PxArticulationAxis@3@M@Z 0000000180011e10 f i NpArticulationJointReducedCoordinate.obj
 0001:00010fa0       ?setDriveTarget@NpArticulationJointReducedCoordinate@physx@@UEAAXW4Enum@PxArticulationAxis@2@M@Z 0000000180011fa0 f   NpArticulationJointReducedCoordinate.obj
 0001:00010fb0       ?setDriveVelocity@ArticulationJoint@Scb@physx@@QEAAXW4Enum@PxArticulationAxis@3@M@Z 0000000180011fb0 f i NpArticulationJointReducedCoordinate.obj
 0001:00011140       ?setDriveVelocity@NpArticulationJointReducedCoordinate@physx@@UEAAXW4Enum@PxArticulationAxis@2@M@Z 0000000180012140 f   NpArticulationJointReducedCoordinate.obj
 0001:00011150       ?setLimit@ArticulationJoint@Scb@physx@@QEAAXW4Enum@PxArticulationAxis@3@MM@Z 0000000180012150 f i NpArticulationJointReducedCoordinate.obj
 0001:000112b0       ?setLimit@NpArticulationJointReducedCoordinate@physx@@UEAAXW4Enum@PxArticulationAxis@2@MM@Z 00000001800122b0 f   NpArticulationJointReducedCoordinate.obj
 0001:000112c0       ?setMaxJointVelocity@NpArticulationJointReducedCoordinate@physx@@UEAAXM@Z 00000001800122c0 f   NpArticulationJointReducedCoordinate.obj
 0001:000113a0       ??0NpArticulationLink@physx@@QEAA@AEBVPxTransform@1@AEAVPxArticulationBase@1@PEAV01@@Z 00000001800123a0 f   NpArticulationLink.obj
 0001:000115a0       ??_E?$NpActorTemplate@VPxArticulationLink@physx@@@physx@@UEAAPEAXI@Z 00000001800125a0 f i NpArticulationLink.obj
 0001:000115a0       ??_G?$NpActorTemplate@VPxArticulationLink@physx@@@physx@@UEAAPEAXI@Z 00000001800125a0 f i NpArticulationLink.obj
 0001:00011620       ??_E?$NpRigidActorTemplate@VPxArticulationLink@physx@@@physx@@UEAAPEAXI@Z 0000000180012620 f i NpArticulationLink.obj
 0001:00011620       ??_G?$NpRigidActorTemplate@VPxArticulationLink@physx@@@physx@@UEAAPEAXI@Z 0000000180012620 f i NpArticulationLink.obj
 0001:000116b0       ??_E?$NpRigidBodyTemplate@VPxArticulationLink@physx@@@physx@@UEAAPEAXI@Z 00000001800126b0 f i NpArticulationLink.obj
 0001:000116b0       ??_G?$NpRigidBodyTemplate@VPxArticulationLink@physx@@@physx@@UEAAPEAXI@Z 00000001800126b0 f i NpArticulationLink.obj
 0001:00011760       ??_EConstraintImmediateVisualizer@Cm@physx@@UEAAPEAXI@Z 0000000180012760 f i NpArticulationLink.obj
 0001:00011760       ??_GConstraintImmediateVisualizer@Cm@physx@@UEAAPEAXI@Z 0000000180012760 f i NpArticulationLink.obj
 0001:00011790       ??_ENpArticulationLink@physx@@UEAAPEAXI@Z 0000000180012790 f i NpArticulationLink.obj
 0001:00011790       ??_GNpArticulationLink@physx@@UEAAPEAXI@Z 0000000180012790 f i NpArticulationLink.obj
 0001:00011890       ??_EPxArticulationLink@physx@@MEAAPEAXI@Z 0000000180012890 f i NpArticulationLink.obj
 0001:00011890       ??_EPxMaterial@physx@@MEAAPEAXI@Z 0000000180012890 f i NpMaterial.obj
 0001:00011890       ??_EPxRigidDynamic@physx@@MEAAPEAXI@Z 0000000180012890 f i NpRigidDynamic.obj
 0001:00011890       ??_EPxRigidStatic@physx@@MEAAPEAXI@Z 0000000180012890 f i NpRigidStatic.obj
 0001:00011890       ??_EPxShape@physx@@MEAAPEAXI@Z 0000000180012890 f i NpShape.obj
 0001:00011890       ??_GPxArticulationLink@physx@@MEAAPEAXI@Z 0000000180012890 f i NpArticulationLink.obj
 0001:00011890       ??_GPxMaterial@physx@@MEAAPEAXI@Z 0000000180012890 f i NpMaterial.obj
 0001:00011890       ??_GPxRigidDynamic@physx@@MEAAPEAXI@Z 0000000180012890 f i NpRigidDynamic.obj
 0001:00011890       ??_GPxRigidStatic@physx@@MEAAPEAXI@Z 0000000180012890 f i NpRigidStatic.obj
 0001:00011890       ??_GPxShape@physx@@MEAAPEAXI@Z 0000000180012890 f i NpShape.obj
 0001:000118c0       ??_EPxConstraintVisualizer@physx@@MEAAPEAXI@Z 00000001800128c0 f i NpArticulationLink.obj
 0001:000118c0       ??_GPxConstraintVisualizer@physx@@MEAAPEAXI@Z 00000001800128c0 f i NpArticulationLink.obj
 0001:000118f0       ?addForce@NpArticulationLink@physx@@UEAAXAEBVPxVec3@2@W4Enum@PxForceMode@2@_N@Z 00000001800128f0 f   NpArticulationLink.obj
 0001:00011980       ?addSpatialAcceleration@Body@Scb@physx@@QEAAXPEBVPxVec3@3@0@Z 0000000180012980 f i NpArticulationLink.obj
 0001:00011ac0       ?addSpatialForce@?$NpRigidBodyTemplate@VPxArticulationLink@physx@@@physx@@IEAAXPEBVPxVec3@2@0W4Enum@PxForceMode@2@@Z 0000000180012ac0 f i NpArticulationLink.obj
 0001:00011ac0       ?addSpatialForce@?$NpRigidBodyTemplate@VPxRigidDynamic@physx@@@physx@@IEAAXPEBVPxVec3@2@0W4Enum@PxForceMode@2@@Z 0000000180012ac0 f i NpRigidDynamic.obj
 0001:00011d20       ?addSpatialVelocity@Body@Scb@physx@@QEAAXPEBVPxVec3@3@0@Z 0000000180012d20 f i NpArticulationLink.obj
 0001:00011e60       ?addTorque@NpArticulationLink@physx@@UEAAXAEBVPxVec3@2@W4Enum@PxForceMode@2@_N@Z 0000000180012e60 f   NpArticulationLink.obj
 0001:00011ef0       ?allocate@?$Array@UPxDebugLine@physx@@V?$ReflectionAllocator@UPxDebugLine@physx@@@shdfnd@2@@shdfnd@physx@@IEAAPEAUPxDebugLine@3@I@Z 0000000180012ef0 f i NpArticulationLink.obj
 0001:00011f90       ?attachShape@?$NpRigidActorTemplate@VPxArticulationLink@physx@@@physx@@UEAA_NAEAVPxShape@2@@Z 0000000180012f90 f i NpArticulationLink.obj
 0001:00011f90       ?attachShape@?$NpRigidActorTemplate@VPxRigidDynamic@physx@@@physx@@UEAA_NAEAVPxShape@2@@Z 0000000180012f90 f i NpRigidDynamic.obj
 0001:00011f90       ?attachShape@?$NpRigidActorTemplate@VPxRigidStatic@physx@@@physx@@UEAA_NAEAVPxShape@2@@Z 0000000180012f90 f i NpRigidStatic.obj
 0001:00011f90       ?attachShape@?$NpRigidBodyTemplate@VPxArticulationLink@physx@@@physx@@UEAA_NAEAVPxShape@2@@Z 0000000180012f90 f i NpArticulationLink.obj
 0001:00011f90       ?attachShape@?$NpRigidBodyTemplate@VPxRigidDynamic@physx@@@physx@@UEAA_NAEAVPxShape@2@@Z 0000000180012f90 f i NpRigidDynamic.obj
 0001:00012030       ?clearForce@NpArticulationLink@physx@@UEAAXW4Enum@PxForceMode@2@@Z 0000000180013030 f   NpArticulationLink.obj
 0001:00012060       ?clearSpatialForce@?$NpRigidBodyTemplate@VPxArticulationLink@physx@@@physx@@IEAAXW4Enum@PxForceMode@2@_N1@Z 0000000180013060 f i NpArticulationLink.obj
 0001:00012060       ?clearSpatialForce@?$NpRigidBodyTemplate@VPxRigidDynamic@physx@@@physx@@IEAAXW4Enum@PxForceMode@2@_N1@Z 0000000180013060 f i NpRigidDynamic.obj
 0001:00012200       ?clearTorque@NpArticulationLink@physx@@UEAAXW4Enum@PxForceMode@2@@Z 0000000180013200 f   NpArticulationLink.obj
 0001:00012230       ?copy@?$Array@UPxDebugLine@physx@@V?$ReflectionAllocator@UPxDebugLine@physx@@@shdfnd@2@@shdfnd@physx@@KAXPEAUPxDebugLine@3@0PEBU43@@Z 0000000180013230 f i NpArticulationLink.obj
 0001:00012230       ?copy@?$Array@VSpatialVector@Cm@physx@@V?$ReflectionAllocator@VSpatialVector@Cm@physx@@@shdfnd@3@@shdfnd@physx@@KAXPEAVSpatialVector@Cm@3@0PEBV453@@Z 0000000180013230 f i LowLevelDynamics_static_64:DyTGSDynamics.obj
 0001:000123e0       ?createObject@NpArticulationLink@physx@@SAPEAV12@AEAPEAEAEAVPxDeserializationContext@2@@Z 00000001800133e0 f   NpArticulationLink.obj
 0001:00012500       ?detachShape@?$NpRigidActorTemplate@VPxArticulationLink@physx@@@physx@@UEAAXAEAVPxShape@2@_N@Z 0000000180013500 f i NpArticulationLink.obj
 0001:00012500       ?detachShape@?$NpRigidActorTemplate@VPxRigidDynamic@physx@@@physx@@UEAAXAEAVPxShape@2@_N@Z 0000000180013500 f i NpRigidDynamic.obj
 0001:00012500       ?detachShape@?$NpRigidActorTemplate@VPxRigidStatic@physx@@@physx@@UEAAXAEAVPxShape@2@_N@Z 0000000180013500 f i NpRigidStatic.obj
 0001:000125b0       ?exportExtraData@?$NpActorTemplate@VPxArticulationLink@physx@@@physx@@UEAAXAEAVPxSerializationContext@2@@Z 00000001800135b0 f i NpArticulationLink.obj
 0001:000125b0       ?exportExtraData@?$NpActorTemplate@VPxRigidDynamic@physx@@@physx@@UEAAXAEAVPxSerializationContext@2@@Z 00000001800135b0 f i NpRigidDynamic.obj
 0001:000125b0       ?exportExtraData@?$NpActorTemplate@VPxRigidStatic@physx@@@physx@@UEAAXAEAVPxSerializationContext@2@@Z 00000001800135b0 f i NpRigidStatic.obj
 0001:000125c0       ?exportExtraData@?$NpRigidActorTemplate@VPxArticulationLink@physx@@@physx@@UEAAXAEAVPxSerializationContext@2@@Z 00000001800135c0 f i NpArticulationLink.obj
 0001:000125c0       ?exportExtraData@?$NpRigidActorTemplate@VPxRigidDynamic@physx@@@physx@@UEAAXAEAVPxSerializationContext@2@@Z 00000001800135c0 f i NpRigidDynamic.obj
 0001:000125c0       ?exportExtraData@?$NpRigidActorTemplate@VPxRigidStatic@physx@@@physx@@UEAAXAEAVPxSerializationContext@2@@Z 00000001800135c0 f i NpRigidStatic.obj
 0001:000125f0       ?exportExtraData@NpArticulationLink@physx@@UEAAXAEAVPxSerializationContext@2@@Z 00000001800135f0 f   NpArticulationLink.obj
 0001:00012660       ?getActorFlags@?$NpActorTemplate@VPxArticulationLink@physx@@@physx@@UEBA?AV?$PxFlags@W4Enum@PxActorFlag@physx@@E@2@XZ 0000000180013660 f i NpArticulationLink.obj
 0001:00012660       ?getActorFlags@?$NpActorTemplate@VPxRigidDynamic@physx@@@physx@@UEBA?AV?$PxFlags@W4Enum@PxActorFlag@physx@@E@2@XZ 0000000180013660 f i NpRigidDynamic.obj
 0001:00012660       ?getActorFlags@?$NpActorTemplate@VPxRigidStatic@physx@@@physx@@UEBA?AV?$PxFlags@W4Enum@PxActorFlag@physx@@E@2@XZ 0000000180013660 f i NpRigidStatic.obj
 0001:000126b0       ?getAggregate@?$NpActorTemplate@VPxArticulationLink@physx@@@physx@@UEBAPEAVPxAggregate@2@XZ 00000001800136b0 f i NpArticulationLink.obj
 0001:000126b0       ?getAggregate@?$NpActorTemplate@VPxRigidDynamic@physx@@@physx@@UEBAPEAVPxAggregate@2@XZ 00000001800136b0 f i NpRigidDynamic.obj
 0001:000126b0       ?getAggregate@?$NpActorTemplate@VPxRigidStatic@physx@@@physx@@UEBAPEAVPxAggregate@2@XZ 00000001800136b0 f i NpRigidStatic.obj
 0001:000126c0       ?getAngularDamping@NpArticulationLink@physx@@UEBAMXZ 00000001800136c0 f   NpArticulationLink.obj
 0001:000126c0       ?getAngularDamping@NpRigidDynamic@physx@@UEBAMXZ 00000001800136c0 f   NpRigidDynamic.obj
 0001:000126e0       ?getAngularVelocity@?$NpRigidBodyTemplate@VPxArticulationLink@physx@@@physx@@UEBA?AVPxVec3@2@XZ 00000001800136e0 f i NpArticulationLink.obj
 0001:000126e0       ?getAngularVelocity@?$NpRigidBodyTemplate@VPxRigidDynamic@physx@@@physx@@UEBA?AVPxVec3@2@XZ 00000001800136e0 f i NpRigidDynamic.obj
 0001:00012700       ?getArticulation@NpArticulationLink@physx@@UEBAAEAVPxArticulationBase@2@XZ 0000000180013700 f   NpArticulationLink.obj
 0001:00012710       ?getCMassLocalPose@?$NpRigidBodyTemplate@VPxArticulationLink@physx@@@physx@@UEBA?AVPxTransform@2@XZ 0000000180013710 f i NpArticulationLink.obj
 0001:00012710       ?getCMassLocalPose@?$NpRigidBodyTemplate@VPxRigidDynamic@physx@@@physx@@UEBA?AVPxTransform@2@XZ 0000000180013710 f i NpRigidDynamic.obj
 0001:00012760       ?getChildren@NpArticulationLink@physx@@UEBAIPEAPEAVPxArticulationLink@2@II@Z 0000000180013760 f   NpArticulationLink.obj
 0001:000127c0       ?getConcreteTypeName@PxArticulationLink@physx@@UEBAPEBDXZ 00000001800137c0 f i NpArticulationLink.obj
 0001:000127d0       ?getConstraints@?$NpRigidActorTemplate@VPxArticulationLink@physx@@@physx@@UEBAIPEAPEAVPxConstraint@2@II@Z 00000001800137d0 f i NpArticulationLink.obj
 0001:000127d0       ?getConstraints@?$NpRigidActorTemplate@VPxRigidDynamic@physx@@@physx@@UEBAIPEAPEAVPxConstraint@2@II@Z 00000001800137d0 f i NpRigidDynamic.obj
 0001:000127d0       ?getConstraints@?$NpRigidActorTemplate@VPxRigidStatic@physx@@@physx@@UEBAIPEAPEAVPxConstraint@2@II@Z 00000001800137d0 f i NpRigidStatic.obj
 0001:00012860       ?getDominanceGroup@?$NpActorTemplate@VPxArticulationLink@physx@@@physx@@UEBAEXZ 0000000180013860 f i NpArticulationLink.obj
 0001:00012860       ?getDominanceGroup@?$NpActorTemplate@VPxRigidDynamic@physx@@@physx@@UEBAEXZ 0000000180013860 f i NpRigidDynamic.obj
 0001:00012860       ?getDominanceGroup@?$NpActorTemplate@VPxRigidStatic@physx@@@physx@@UEBAEXZ 0000000180013860 f i NpRigidStatic.obj
 0001:000128a0       ?getGlobalInertiaTensorInverse@Body@Scb@physx@@QEBA?AVPxMat33@3@XZ 00000001800138a0 f i NpArticulationLink.obj
 0001:00012b20       ?getGlobalPose@NpArticulationLink@physx@@UEBA?AVPxTransform@2@XZ 0000000180013b20 f   NpArticulationLink.obj
 0001:00012e30       ?getBroadPhasePairs@BroadPhaseSap@Bp@physx@@UEBAPEAUBroadPhasePair@23@XZ 0000000180013e30 f   LowLevelAABB_static_64:BpBroadPhaseSap.obj
 0001:00012e30       ?getInboundJoint@NpArticulationLink@physx@@UEBAPEAVPxArticulationJointBase@2@XZ 0000000180013e30 f   NpArticulationLink.obj
 0001:00012e30       ?getName@ProcessAggPairsParallelTask@Bp@physx@@UEBAPEBDXZ 0000000180013e30 f   LowLevelAABB_static_64:BpAABBManager.obj
 0001:00012e40       ?getInboundJointDof@NpArticulationLink@physx@@UEBAIXZ 0000000180013e40 f   NpArticulationLink.obj
 0001:00012e50       ?getInternalIslandNodeIndex@?$NpRigidBodyTemplate@VPxArticulationLink@physx@@@physx@@UEBAIXZ 0000000180013e50 f i NpArticulationLink.obj
 0001:00012e50       ?getInternalIslandNodeIndex@?$NpRigidBodyTemplate@VPxRigidDynamic@physx@@@physx@@UEBAIXZ 0000000180013e50 f i NpRigidDynamic.obj
 0001:00012e60       ?getInvMass@?$NpRigidBodyTemplate@VPxArticulationLink@physx@@@physx@@UEBAMXZ 0000000180013e60 f i NpArticulationLink.obj
 0001:00012e60       ?getInvMass@?$NpRigidBodyTemplate@VPxRigidDynamic@physx@@@physx@@UEBAMXZ 0000000180013e60 f i NpRigidDynamic.obj
 0001:00012e80       ?getLinearDamping@NpArticulationLink@physx@@UEBAMXZ 0000000180013e80 f   NpArticulationLink.obj
 0001:00012e80       ?getLinearDamping@NpRigidDynamic@physx@@UEBAMXZ 0000000180013e80 f   NpRigidDynamic.obj
 0001:00012ea0       ?getLinearVelocity@?$NpRigidBodyTemplate@VPxArticulationLink@physx@@@physx@@UEBA?AVPxVec3@2@XZ 0000000180013ea0 f i NpArticulationLink.obj
 0001:00012ea0       ?getLinearVelocity@?$NpRigidBodyTemplate@VPxRigidDynamic@physx@@@physx@@UEBA?AVPxVec3@2@XZ 0000000180013ea0 f i NpRigidDynamic.obj
 0001:00012ec0       ?getLinkIndex@NpArticulationLink@physx@@UEBAIXZ 0000000180013ec0 f   NpArticulationLink.obj
 0001:00012ed0       ?getMass@?$NpRigidBodyTemplate@VPxArticulationLink@physx@@@physx@@UEBAMXZ 0000000180013ed0 f i NpArticulationLink.obj
 0001:00012ed0       ?getMass@?$NpRigidBodyTemplate@VPxRigidDynamic@physx@@@physx@@UEBAMXZ 0000000180013ed0 f i NpRigidDynamic.obj
 0001:00012f10       ?getMassSpaceInertiaTensor@?$NpRigidBodyTemplate@VPxArticulationLink@physx@@@physx@@UEBA?AVPxVec3@2@XZ 0000000180013f10 f i NpArticulationLink.obj
 0001:00012f10       ?getMassSpaceInertiaTensor@?$NpRigidBodyTemplate@VPxRigidDynamic@physx@@@physx@@UEBA?AVPxVec3@2@XZ 0000000180013f10 f i NpRigidDynamic.obj
 0001:00012fa0       ?getMassSpaceInvInertiaTensor@?$NpRigidBodyTemplate@VPxArticulationLink@physx@@@physx@@UEBA?AVPxVec3@2@XZ 0000000180013fa0 f i NpArticulationLink.obj
 0001:00012fa0       ?getMassSpaceInvInertiaTensor@?$NpRigidBodyTemplate@VPxRigidDynamic@physx@@@physx@@UEBA?AVPxVec3@2@XZ 0000000180013fa0 f i NpRigidDynamic.obj
 0001:00012fe0       ?getMaxAngularVelocity@NpArticulationLink@physx@@UEBAMXZ 0000000180013fe0 f   NpArticulationLink.obj
 0001:00012fe0       ?getMaxAngularVelocity@NpRigidDynamic@physx@@UEBAMXZ 0000000180013fe0 f   NpRigidDynamic.obj
 0001:00013010       ?getMaxContactImpulse@?$NpRigidBodyTemplate@VPxArticulationLink@physx@@@physx@@UEBAMXZ 0000000180014010 f i NpArticulationLink.obj
 0001:00013010       ?getMaxContactImpulse@?$NpRigidBodyTemplate@VPxRigidDynamic@physx@@@physx@@UEBAMXZ 0000000180014010 f i NpRigidDynamic.obj
 0001:00013040       ?getMaxDepenetrationVelocity@?$NpRigidBodyTemplate@VPxArticulationLink@physx@@@physx@@UEBAMXZ 0000000180014040 f i NpArticulationLink.obj
 0001:00013040       ?getMaxDepenetrationVelocity@?$NpRigidBodyTemplate@VPxRigidDynamic@physx@@@physx@@UEBAMXZ 0000000180014040 f i NpRigidDynamic.obj
 0001:00013070       ?getMaxLinearVelocity@NpArticulationLink@physx@@UEBAMXZ 0000000180014070 f   NpArticulationLink.obj
 0001:00013070       ?getMaxLinearVelocity@NpRigidDynamic@physx@@UEBAMXZ 0000000180014070 f   NpRigidDynamic.obj
 0001:000130a0       ?getMinCCDAdvanceCoefficient@?$NpRigidBodyTemplate@VPxArticulationLink@physx@@@physx@@UEBAMXZ 00000001800140a0 f i NpArticulationLink.obj
 0001:000130a0       ?getMinCCDAdvanceCoefficient@?$NpRigidBodyTemplate@VPxRigidDynamic@physx@@@physx@@UEBAMXZ 00000001800140a0 f i NpRigidDynamic.obj
 0001:000130c0       ?getNbChildren@NpArticulationLink@physx@@UEBAIXZ 00000001800140c0 f   NpArticulationLink.obj
 0001:000130d0       ?getNbConstraints@?$NpRigidActorTemplate@VPxArticulationLink@physx@@@physx@@UEBAIXZ 00000001800140d0 f i NpArticulationLink.obj
 0001:000130d0       ?getNbConstraints@?$NpRigidActorTemplate@VPxRigidDynamic@physx@@@physx@@UEBAIXZ 00000001800140d0 f i NpRigidDynamic.obj
 0001:000130d0       ?getNbConstraints@?$NpRigidActorTemplate@VPxRigidStatic@physx@@@physx@@UEBAIXZ 00000001800140d0 f i NpRigidStatic.obj
 0001:000130e0       ?getNbShapes@?$NpRigidActorTemplate@VPxArticulationLink@physx@@@physx@@UEBAIXZ 00000001800140e0 f i NpArticulationLink.obj
 0001:000130e0       ?getNbShapes@?$NpRigidActorTemplate@VPxRigidDynamic@physx@@@physx@@UEBAIXZ 00000001800140e0 f i NpRigidDynamic.obj
 0001:000130e0       ?getNbShapes@?$NpRigidActorTemplate@VPxRigidStatic@physx@@@physx@@UEBAIXZ 00000001800140e0 f i NpRigidStatic.obj
 0001:000130f0       ?getOwnerClient@?$NpActorTemplate@VPxArticulationLink@physx@@@physx@@UEBAEXZ 00000001800140f0 f i NpArticulationLink.obj
 0001:000130f0       ?getOwnerClient@?$NpActorTemplate@VPxRigidDynamic@physx@@@physx@@UEBAEXZ 00000001800140f0 f i NpRigidDynamic.obj
 0001:000130f0       ?getOwnerClient@?$NpActorTemplate@VPxRigidStatic@physx@@@physx@@UEBAEXZ 00000001800140f0 f i NpRigidStatic.obj
 0001:00013120       ?getRigidBodyFlags@?$NpRigidBodyTemplate@VPxArticulationLink@physx@@@physx@@UEBA?AV?$PxFlags@W4Enum@PxRigidBodyFlag@physx@@G@2@XZ 0000000180014120 f i NpArticulationLink.obj
 0001:00013120       ?getRigidBodyFlags@?$NpRigidBodyTemplate@VPxRigidDynamic@physx@@@physx@@UEBA?AV?$PxFlags@W4Enum@PxRigidBodyFlag@physx@@G@2@XZ 0000000180014120 f i NpRigidDynamic.obj
 0001:00013160       ?getScene@?$NpActorTemplate@VPxArticulationLink@physx@@@physx@@UEBAPEAVPxScene@2@XZ 0000000180014160 f i NpArticulationLink.obj
 0001:00013160       ?getScene@?$NpActorTemplate@VPxRigidDynamic@physx@@@physx@@UEBAPEAVPxScene@2@XZ 0000000180014160 f i NpRigidDynamic.obj
 0001:00013160       ?getScene@?$NpActorTemplate@VPxRigidStatic@physx@@@physx@@UEBAPEAVPxScene@2@XZ 0000000180014160 f i NpRigidStatic.obj
 0001:00013170       ?getShapes@?$NpRigidActorTemplate@VPxArticulationLink@physx@@@physx@@UEBAIPEAPEAVPxShape@2@II@Z 0000000180014170 f i NpArticulationLink.obj
 0001:00013170       ?getShapes@?$NpRigidActorTemplate@VPxRigidDynamic@physx@@@physx@@UEBAIPEAPEAVPxShape@2@II@Z 0000000180014170 f i NpRigidDynamic.obj
 0001:00013170       ?getShapes@?$NpRigidActorTemplate@VPxRigidStatic@physx@@@physx@@UEBAIPEAPEAVPxShape@2@II@Z 0000000180014170 f i NpRigidStatic.obj
 0001:00013180       ?getType@BroadPhaseABP@Bp@physx@@UEBA?AW4Enum@PxBroadPhaseType@3@XZ 0000000180014180 f i LowLevelAABB_static_64:BpBroadPhaseABP.obj
 0001:00013180       ?getType@NpArticulationLink@physx@@UEBA?AW4Enum@PxActorType@2@XZ 0000000180014180 f i NpArticulationLink.obj
 0001:00013190       ?getWorldBounds@?$NpRigidActorTemplate@VPxArticulationLink@physx@@@physx@@UEBA?AVPxBounds3@2@M@Z 0000000180014190 f i NpArticulationLink.obj
 0001:00013190       ?getWorldBounds@?$NpRigidActorTemplate@VPxRigidDynamic@physx@@@physx@@UEBA?AVPxBounds3@2@M@Z 0000000180014190 f i NpRigidDynamic.obj
 0001:00013190       ?getWorldBounds@?$NpRigidActorTemplate@VPxRigidStatic@physx@@@physx@@UEBA?AVPxBounds3@2@M@Z 0000000180014190 f i NpRigidStatic.obj
 0001:000132f0       ?importExtraData@?$NpActorTemplate@VPxArticulationLink@physx@@@physx@@UEAAXAEAVPxDeserializationContext@2@@Z 00000001800142f0 f i NpArticulationLink.obj
 0001:000132f0       ?importExtraData@?$NpActorTemplate@VPxRigidDynamic@physx@@@physx@@UEAAXAEAVPxDeserializationContext@2@@Z 00000001800142f0 f i NpRigidDynamic.obj
 0001:000132f0       ?importExtraData@?$NpActorTemplate@VPxRigidStatic@physx@@@physx@@UEAAXAEAVPxDeserializationContext@2@@Z 00000001800142f0 f i NpRigidStatic.obj
 0001:00013300       ?importExtraData@?$NpRigidActorTemplate@VPxArticulationLink@physx@@@physx@@UEAAXAEAVPxDeserializationContext@2@@Z 0000000180014300 f i NpArticulationLink.obj
 0001:00013300       ?importExtraData@?$NpRigidActorTemplate@VPxRigidDynamic@physx@@@physx@@UEAAXAEAVPxDeserializationContext@2@@Z 0000000180014300 f i NpRigidDynamic.obj
 0001:00013300       ?importExtraData@?$NpRigidActorTemplate@VPxRigidStatic@physx@@@physx@@UEAAXAEAVPxDeserializationContext@2@@Z 0000000180014300 f i NpRigidStatic.obj
 0001:00013330       ?importExtraData@NpArticulationLink@physx@@UEAAXAEAVPxDeserializationContext@2@@Z 0000000180014330 f   NpArticulationLink.obj
 0001:000133b0       ?isKindOf@PxArticulationLink@physx@@MEBA_NPEBD@Z 00000001800143b0 f i NpArticulationLink.obj
 0001:00013400       ?isKindOf@PxRigidActor@physx@@MEBA_NPEBD@Z 0000000180014400 f i NpArticulationLink.obj
 0001:00013490       ?isKindOf@PxRigidBody@physx@@MEBA_NPEBD@Z 0000000180014490 f i NpArticulationLink.obj
 0001:00013520       ?putToSleepInternal@Body@Scb@physx@@QEAAXXZ 0000000180014520 f i NpArticulationLink.obj
 0001:000135f0       ?recreate@?$Array@UPxDebugLine@physx@@V?$ReflectionAllocator@UPxDebugLine@physx@@@shdfnd@2@@shdfnd@physx@@IEAAXI@Z 00000001800145f0 f i NpArticulationLink.obj
 0001:00013670       ?release@?$NpActorTemplate@VPxArticulationLink@physx@@@physx@@UEAAXXZ 0000000180014670 f i NpArticulationLink.obj
 0001:00013670       ?release@?$NpActorTemplate@VPxRigidDynamic@physx@@@physx@@UEAAXXZ 0000000180014670 f i NpRigidDynamic.obj
 0001:00013670       ?release@?$NpActorTemplate@VPxRigidStatic@physx@@@physx@@UEAAXXZ 0000000180014670 f i NpRigidStatic.obj
 0001:00013680       ?release@?$NpRigidActorTemplate@VPxArticulationLink@physx@@@physx@@UEAAXXZ 0000000180014680 f i NpArticulationLink.obj
 0001:00013680       ?release@?$NpRigidActorTemplate@VPxRigidDynamic@physx@@@physx@@UEAAXXZ 0000000180014680 f i NpRigidDynamic.obj
 0001:00013680       ?release@?$NpRigidActorTemplate@VPxRigidStatic@physx@@@physx@@UEAAXXZ 0000000180014680 f i NpRigidStatic.obj
 0001:00013720       ?release@NpArticulationLink@physx@@UEAAXXZ 0000000180014720 f   NpArticulationLink.obj
 0001:000137c0       ?releaseInternal@NpArticulationLink@physx@@QEAAXXZ 00000001800147c0 f   NpArticulationLink.obj
 0001:00013950       ?requiresObjects@?$NpRigidActorTemplate@VPxArticulationLink@physx@@@physx@@UEAAXAEAVPxProcessPxBaseCallback@2@@Z 0000000180014950 f i NpArticulationLink.obj
 0001:00013950       ?requiresObjects@?$NpRigidActorTemplate@VPxRigidDynamic@physx@@@physx@@UEAAXAEAVPxProcessPxBaseCallback@2@@Z 0000000180014950 f i NpRigidDynamic.obj
 0001:00013950       ?requiresObjects@?$NpRigidActorTemplate@VPxRigidStatic@physx@@@physx@@UEAAXAEAVPxProcessPxBaseCallback@2@@Z 0000000180014950 f i NpRigidStatic.obj
 0001:00013950       ?requiresObjects@NpRigidDynamic@physx@@UEAAXAEAVPxProcessPxBaseCallback@2@@Z 0000000180014950 f i NpRigidDynamic.obj
 0001:00013950       ?requiresObjects@NpRigidStatic@physx@@UEAAXAEAVPxProcessPxBaseCallback@2@@Z 0000000180014950 f i NpRigidStatic.obj
 0001:000139c0       ?requiresObjects@NpArticulationLink@physx@@UEAAXAEAVPxProcessPxBaseCallback@2@@Z 00000001800149c0 f   NpArticulationLink.obj
 0001:00013a50       ?resolveReferences@?$NpActorTemplate@VPxArticulationLink@physx@@@physx@@UEAAXAEAVPxDeserializationContext@2@@Z 0000000180014a50 f i NpArticulationLink.obj
 0001:00013a50       ?resolveReferences@?$NpActorTemplate@VPxRigidDynamic@physx@@@physx@@UEAAXAEAVPxDeserializationContext@2@@Z 0000000180014a50 f i NpRigidDynamic.obj
 0001:00013a50       ?resolveReferences@?$NpActorTemplate@VPxRigidStatic@physx@@@physx@@UEAAXAEAVPxDeserializationContext@2@@Z 0000000180014a50 f i NpRigidStatic.obj
 0001:00013a60       ?resolveReferences@?$NpRigidActorTemplate@VPxArticulationLink@physx@@@physx@@UEAAXAEAVPxDeserializationContext@2@@Z 0000000180014a60 f i NpArticulationLink.obj
 0001:00013a60       ?resolveReferences@?$NpRigidActorTemplate@VPxRigidDynamic@physx@@@physx@@UEAAXAEAVPxDeserializationContext@2@@Z 0000000180014a60 f i NpRigidDynamic.obj
 0001:00013a60       ?resolveReferences@?$NpRigidActorTemplate@VPxRigidStatic@physx@@@physx@@UEAAXAEAVPxDeserializationContext@2@@Z 0000000180014a60 f i NpRigidStatic.obj
 0001:00013af0       ?resolveReferences@NpArticulationLink@physx@@UEAAXAEAVPxDeserializationContext@2@@Z 0000000180014af0 f   NpArticulationLink.obj
 0001:00013c20       ?setActorFlag@?$NpActorTemplate@VPxArticulationLink@physx@@@physx@@UEAAXW4Enum@PxActorFlag@2@_N@Z 0000000180014c20 f i NpArticulationLink.obj
 0001:00013c20       ?setActorFlag@?$NpActorTemplate@VPxRigidDynamic@physx@@@physx@@UEAAXW4Enum@PxActorFlag@2@_N@Z 0000000180014c20 f i NpRigidDynamic.obj
 0001:00013c20       ?setActorFlag@?$NpActorTemplate@VPxRigidStatic@physx@@@physx@@UEAAXW4Enum@PxActorFlag@2@_N@Z 0000000180014c20 f i NpRigidStatic.obj
 0001:00013ce0       ?setActorFlag@?$NpRigidActorTemplate@VPxArticulationLink@physx@@@physx@@UEAAXW4Enum@PxActorFlag@2@_N@Z 0000000180014ce0 f i NpArticulationLink.obj
 0001:00013e80       ?setActorFlags@?$NpActorTemplate@VPxArticulationLink@physx@@@physx@@UEAAXV?$PxFlags@W4Enum@PxActorFlag@physx@@E@2@@Z 0000000180014e80 f i NpArticulationLink.obj
 0001:00013e80       ?setActorFlags@?$NpActorTemplate@VPxRigidDynamic@physx@@@physx@@UEAAXV?$PxFlags@W4Enum@PxActorFlag@physx@@E@2@@Z 0000000180014e80 f i NpRigidDynamic.obj
 0001:00013e80       ?setActorFlags@?$NpActorTemplate@VPxRigidStatic@physx@@@physx@@UEAAXV?$PxFlags@W4Enum@PxActorFlag@physx@@E@2@@Z 0000000180014e80 f i NpRigidStatic.obj
 0001:00013eb0       ?setActorFlags@?$NpRigidActorTemplate@VPxArticulationLink@physx@@@physx@@UEAAXV?$PxFlags@W4Enum@PxActorFlag@physx@@E@2@@Z 0000000180014eb0 f i NpArticulationLink.obj
 0001:00013fe0       ?setActorFlags@Actor@Scb@physx@@QEAAXV?$PxFlags@W4Enum@PxActorFlag@physx@@E@3@@Z 0000000180014fe0 f i NpArticulationLink.obj
 0001:00014080       ?setAngularDamping@NpArticulationLink@physx@@UEAAXM@Z 0000000180015080 f   NpArticulationLink.obj
 0001:00014080       ?setAngularDamping@NpRigidDynamic@physx@@UEAAXM@Z 0000000180015080 f   NpRigidDynamic.obj
 0001:00014110       ?setAngularVelocity@NpArticulationLink@physx@@UEAAXAEBVPxVec3@2@_N@Z 0000000180015110 f   NpArticulationLink.obj
 0001:000141a0       ?setCMassLocalPose@NpArticulationLink@physx@@UEAAXAEBVPxTransform@2@@Z 00000001800151a0 f   NpArticulationLink.obj
 0001:000148b0       ?setCMassLocalPoseInternal@?$NpRigidBodyTemplate@VPxArticulationLink@physx@@@physx@@IEAAXAEBVPxTransform@2@@Z 00000001800158b0 f i NpArticulationLink.obj
 0001:000148b0       ?setCMassLocalPoseInternal@?$NpRigidBodyTemplate@VPxRigidDynamic@physx@@@physx@@IEAAXAEBVPxTransform@2@@Z 00000001800158b0 f i NpRigidDynamic.obj
 0001:00014c20       ?setChildPose@ArticulationJoint@Scb@physx@@QEAAXAEBVPxTransform@3@@Z 0000000180015c20 f i NpArticulationLink.obj
 0001:00014cd0       ?setDominanceGroup@?$NpActorTemplate@VPxArticulationLink@physx@@@physx@@UEAAXE@Z 0000000180015cd0 f i NpArticulationLink.obj
 0001:00014cd0       ?setDominanceGroup@?$NpActorTemplate@VPxRigidDynamic@physx@@@physx@@UEAAXE@Z 0000000180015cd0 f i NpRigidDynamic.obj
 0001:00014cd0       ?setDominanceGroup@?$NpActorTemplate@VPxRigidStatic@physx@@@physx@@UEAAXE@Z 0000000180015cd0 f i NpRigidStatic.obj
 0001:00014d70       ?setFlags@Body@Scb@physx@@QEAAXV?$PxFlags@W4Enum@PxRigidBodyFlag@physx@@G@3@@Z 0000000180015d70 f i NpArticulationLink.obj
 0001:00014ea0       ?setForceAndTorque@NpArticulationLink@physx@@UEAAXAEBVPxVec3@2@0W4Enum@PxForceMode@2@@Z 0000000180015ea0 f   NpArticulationLink.obj
 0001:00014f30       ?setGlobalPose@NpArticulationLink@physx@@UEAAXAEBVPxTransform@2@_N@Z 0000000180015f30 f   NpArticulationLink.obj
 0001:00014f40       ?setGlobalPoseInternal@NpArticulationLink@physx@@QEAAXAEBVPxTransform@2@_N@Z 0000000180015f40 f   NpArticulationLink.obj
 0001:00015380       ?setKinematicLink@NpArticulationLink@physx@@QEAAX_N@Z 0000000180016380 f   NpArticulationLink.obj
 0001:00015390       ?setLinearDamping@NpArticulationLink@physx@@UEAAXM@Z 0000000180016390 f   NpArticulationLink.obj
 0001:00015390       ?setLinearDamping@NpRigidDynamic@physx@@UEAAXM@Z 0000000180016390 f   NpRigidDynamic.obj
 0001:00015420       ?setLinearVelocity@NpArticulationLink@physx@@UEAAXAEBVPxVec3@2@_N@Z 0000000180016420 f   NpArticulationLink.obj
 0001:000154b0       ?setMass@?$NpRigidBodyTemplate@VPxArticulationLink@physx@@@physx@@UEAAXM@Z 00000001800164b0 f i NpArticulationLink.obj
 0001:000154b0       ?setMass@?$NpRigidBodyTemplate@VPxRigidDynamic@physx@@@physx@@UEAAXM@Z 00000001800164b0 f i NpRigidDynamic.obj
 0001:00015550       ?setMassSpaceInertiaTensor@?$NpRigidBodyTemplate@VPxArticulationLink@physx@@@physx@@UEAAXAEBVPxVec3@2@@Z 0000000180016550 f i NpArticulationLink.obj
 0001:00015550       ?setMassSpaceInertiaTensor@?$NpRigidBodyTemplate@VPxRigidDynamic@physx@@@physx@@UEAAXAEBVPxVec3@2@@Z 0000000180016550 f i NpRigidDynamic.obj
 0001:00015650       ?setMaxAngularVelocity@NpArticulationLink@physx@@UEAAXM@Z 0000000180016650 f   NpArticulationLink.obj
 0001:00015650       ?setMaxAngularVelocity@NpRigidDynamic@physx@@UEAAXM@Z 0000000180016650 f   NpRigidDynamic.obj
 0001:000156e0       ?setMaxContactImpulse@?$NpRigidBodyTemplate@VPxArticulationLink@physx@@@physx@@UEAAXM@Z 00000001800166e0 f i NpArticulationLink.obj
 0001:000156e0       ?setMaxContactImpulse@?$NpRigidBodyTemplate@VPxRigidDynamic@physx@@@physx@@UEAAXM@Z 00000001800166e0 f i NpRigidDynamic.obj
 0001:00015770       ?setMaxDepenetrationVelocity@?$NpRigidBodyTemplate@VPxArticulationLink@physx@@@physx@@UEAAXM@Z 0000000180016770 f i NpArticulationLink.obj
 0001:00015770       ?setMaxDepenetrationVelocity@?$NpRigidBodyTemplate@VPxRigidDynamic@physx@@@physx@@UEAAXM@Z 0000000180016770 f i NpRigidDynamic.obj
 0001:00015800       ?setMaxLinearVelocity@NpArticulationLink@physx@@UEAAXM@Z 0000000180016800 f   NpArticulationLink.obj
 0001:00015800       ?setMaxLinearVelocity@NpRigidDynamic@physx@@UEAAXM@Z 0000000180016800 f   NpRigidDynamic.obj
 0001:00015890       ?setMinCCDAdvanceCoefficient@?$NpRigidBodyTemplate@VPxArticulationLink@physx@@@physx@@UEAAXM@Z 0000000180016890 f i NpArticulationLink.obj
 0001:00015890       ?setMinCCDAdvanceCoefficient@?$NpRigidBodyTemplate@VPxRigidDynamic@physx@@@physx@@UEAAXM@Z 0000000180016890 f i NpRigidDynamic.obj
 0001:00015920       ?setOwnerClient@?$NpActorTemplate@VPxArticulationLink@physx@@@physx@@UEAAXE@Z 0000000180016920 f i NpArticulationLink.obj
 0001:00015920       ?setOwnerClient@?$NpActorTemplate@VPxRigidDynamic@physx@@@physx@@UEAAXE@Z 0000000180016920 f i NpRigidDynamic.obj
 0001:00015920       ?setOwnerClient@?$NpActorTemplate@VPxRigidStatic@physx@@@physx@@UEAAXE@Z 0000000180016920 f i NpRigidStatic.obj
 0001:000159f0       ?setRigidBodyFlag@?$NpRigidBodyTemplate@VPxArticulationLink@physx@@@physx@@UEAAXW4Enum@PxRigidBodyFlag@2@_N@Z 00000001800169f0 f i NpArticulationLink.obj
 0001:000159f0       ?setRigidBodyFlag@?$NpRigidBodyTemplate@VPxRigidDynamic@physx@@@physx@@UEAAXW4Enum@PxRigidBodyFlag@2@_N@Z 00000001800169f0 f i NpRigidDynamic.obj
 0001:00015ef0       ?setRigidBodyFlags@?$NpRigidBodyTemplate@VPxArticulationLink@physx@@@physx@@UEAAXV?$PxFlags@W4Enum@PxRigidBodyFlag@physx@@G@2@@Z 0000000180016ef0 f i NpArticulationLink.obj
 0001:00015ef0       ?setRigidBodyFlags@?$NpRigidBodyTemplate@VPxRigidDynamic@physx@@@physx@@UEAAXV?$PxFlags@W4Enum@PxRigidBodyFlag@physx@@G@2@@Z 0000000180016ef0 f i NpRigidDynamic.obj
 0001:000163e0       ?setSpatialAcceleration@Body@Scb@physx@@QEAAXPEBVPxVec3@3@0@Z 00000001800173e0 f i NpArticulationLink.obj
 0001:00016500       ?setSpatialForce@?$NpRigidBodyTemplate@VPxArticulationLink@physx@@@physx@@IEAAXPEBVPxVec3@2@0W4Enum@PxForceMode@2@@Z 0000000180017500 f i NpArticulationLink.obj
 0001:00016500       ?setSpatialForce@?$NpRigidBodyTemplate@VPxRigidDynamic@physx@@@physx@@IEAAXPEBVPxVec3@2@0W4Enum@PxForceMode@2@@Z 0000000180017500 f i NpRigidDynamic.obj
 0001:00016760       ?visualize@?$NpRigidBodyTemplate@VPxArticulationLink@physx@@@physx@@QEAAXAEAVRenderOutput@Cm@2@PEAVNpScene@2@@Z 0000000180017760 f i NpArticulationLink.obj
 0001:00016760       ?visualize@?$NpRigidBodyTemplate@VPxRigidDynamic@physx@@@physx@@QEAAXAEAVRenderOutput@Cm@2@PEAVNpScene@2@@Z 0000000180017760 f i NpRigidDynamic.obj
 0001:00016b90       ?visualize@NpArticulationLink@physx@@QEAAXAEAVRenderOutput@Cm@2@PEAVNpScene@2@@Z 0000000180017b90 f   NpArticulationLink.obj
 0001:00016eb0       ?visualizeAngularLimit@ConstraintImmediateVisualizer@Cm@physx@@UEAAXAEBVPxTransform@3@MM_N@Z 0000000180017eb0 f i NpArticulationLink.obj
 0001:00016ee0       ?visualizeDoubleCone@ConstraintImmediateVisualizer@Cm@physx@@UEAAXAEBVPxTransform@3@M_N@Z 0000000180017ee0 f i NpArticulationLink.obj
 0001:00016f10       ?visualizeJoint@NpArticulationLink@physx@@QEAAXAEAVPxConstraintVisualizer@2@@Z 0000000180017f10 f   NpArticulationLink.obj
 0001:000181a0       ?visualizeJointFrames@ConstraintImmediateVisualizer@Cm@physx@@UEAAXAEBVPxTransform@3@0@Z 00000001800191a0 f i NpArticulationLink.obj
 0001:000181c0       ?visualizeLimitCone@ConstraintImmediateVisualizer@Cm@physx@@UEAAXAEBVPxTransform@3@MM_N@Z 00000001800191c0 f i NpArticulationLink.obj
 0001:000181f0       ?visualizeLine@ConstraintImmediateVisualizer@Cm@physx@@UEAAXAEBVPxVec3@3@0I@Z 00000001800191f0 f i NpArticulationLink.obj
 0001:00018270       ?visualizeLinearLimit@ConstraintImmediateVisualizer@Cm@physx@@UEAAXAEBVPxTransform@3@0M_N@Z 0000000180019270 f i NpArticulationLink.obj
 0001:000182a0       ??0NpBatchQuery@physx@@QEAA@AEAVNpScene@1@AEBVPxBatchQueryDesc@1@@Z 00000001800192a0 f   NpBatchQuery.obj
 0001:000183d0       ??_E?$PxHitBuffer@UPxRaycastHit@physx@@@physx@@UEAAPEAXI@Z 00000001800193d0 f i NpBatchQuery.obj
 0001:000183d0       ??_E?$PxHitBuffer@UPxSweepHit@physx@@@physx@@UEAAPEAXI@Z 00000001800193d0 f i NpBatchQuery.obj
 0001:000183d0       ??_E?$PxHitCallback@UPxRaycastHit@physx@@@physx@@UEAAPEAXI@Z 00000001800193d0 f i NpBatchQuery.obj
 0001:000183d0       ??_E?$PxHitCallback@UPxSweepHit@physx@@@physx@@UEAAPEAXI@Z 00000001800193d0 f i NpBatchQuery.obj
 0001:000183d0       ??_G?$PxHitBuffer@UPxRaycastHit@physx@@@physx@@UEAAPEAXI@Z 00000001800193d0 f i NpBatchQuery.obj
 0001:000183d0       ??_G?$PxHitBuffer@UPxSweepHit@physx@@@physx@@UEAAPEAXI@Z 00000001800193d0 f i NpBatchQuery.obj
 0001:000183d0       ??_G?$PxHitCallback@UPxRaycastHit@physx@@@physx@@UEAAPEAXI@Z 00000001800193d0 f i NpBatchQuery.obj
 0001:000183d0       ??_G?$PxHitCallback@UPxSweepHit@physx@@@physx@@UEAAPEAXI@Z 00000001800193d0 f i NpBatchQuery.obj
 0001:00018400       ??_E?$PxHitCallback@UPxOverlapHit@physx@@@physx@@UEAAPEAXI@Z 0000000180019400 f i NpBatchQuery.obj
 0001:00018400       ??_G?$PxHitCallback@UPxOverlapHit@physx@@@physx@@UEAAPEAXI@Z 0000000180019400 f i NpBatchQuery.obj
 0001:00018430       ??_E?$PxOverflowBuffer@UPxOverlapHit@physx@@@@UEAAPEAXI@Z 0000000180019430 f i NpBatchQuery.obj
 0001:00018430       ??_G?$PxOverflowBuffer@UPxOverlapHit@physx@@@@UEAAPEAXI@Z 0000000180019430 f i NpBatchQuery.obj
 0001:00018460       ??_E?$PxOverflowBuffer@UPxRaycastHit@physx@@@@UEAAPEAXI@Z 0000000180019460 f i NpBatchQuery.obj
 0001:00018460       ??_E?$PxOverflowBuffer@UPxSweepHit@physx@@@@UEAAPEAXI@Z 0000000180019460 f i NpBatchQuery.obj
 0001:00018460       ??_G?$PxOverflowBuffer@UPxRaycastHit@physx@@@@UEAAPEAXI@Z 0000000180019460 f i NpBatchQuery.obj
 0001:00018460       ??_G?$PxOverflowBuffer@UPxSweepHit@physx@@@@UEAAPEAXI@Z 0000000180019460 f i NpBatchQuery.obj
 0001:00018490       ??_ENpBatchQuery@physx@@UEAAPEAXI@Z 0000000180019490 f i NpBatchQuery.obj
 0001:00018490       ??_GNpBatchQuery@physx@@UEAAPEAXI@Z 0000000180019490 f i NpBatchQuery.obj
 0001:00018560       ??_EPxBatchQuery@physx@@MEAAPEAXI@Z 0000000180019560 f i NpBatchQuery.obj
 0001:00018560       ??_GPxBatchQuery@physx@@MEAAPEAXI@Z 0000000180019560 f i NpBatchQuery.obj
 0001:00018590       ?execute@NpBatchQuery@physx@@UEAAXXZ 0000000180019590 f   NpBatchQuery.obj
 0001:00018e30       ?finalizeQuery@?$PxOverflowBuffer@UPxOverlapHit@physx@@@@UEAAXXZ 0000000180019e30 f i NpBatchQuery.obj
 0001:00018e50       ?finalizeQuery@?$PxOverflowBuffer@UPxRaycastHit@physx@@@@UEAAXXZ 0000000180019e50 f i NpBatchQuery.obj
 0001:00018e50       ?finalizeQuery@?$PxOverflowBuffer@UPxSweepHit@physx@@@@UEAAXXZ 0000000180019e50 f i NpBatchQuery.obj
 0001:00018e80       ?getDesc@NpBatchQuery@physx@@UEBAAEBVPxBatchQueryDesc@2@XZ 0000000180019e80 f i NpBatchQuery.obj
 0001:00018e90       ?getPreFilterShader@NpBatchQuery@physx@@UEBAP6A?AW4Enum@PxQueryHitType@2@UPxFilterData@2@0PEBXIAEAV?$PxFlags@W4Enum@PxHitFlag@physx@@G@2@@ZXZ 0000000180019e90 f   NpBatchQuery.obj
 0001:00018ea0       ?getUserMemory@NpBatchQuery@physx@@UEAAAEBUPxBatchQueryMemory@2@XZ 0000000180019ea0 f   NpBatchQuery.obj
 0001:00018eb0       ?overlap@NpBatchQuery@physx@@UEAAXAEBVPxGeometry@2@AEBVPxTransform@2@GAEBUPxQueryFilterData@2@PEAXPEBUPxQueryCache@2@@Z 0000000180019eb0 f   NpBatchQuery.obj
 0001:00019000       ?applyCache@ArticulationV@Dy@physx@@UEAA_NAEAVPxArticulationCache@3@V?$PxFlags@W4Enum@PxArticulationCache@physx@@E@3@@Z 000000018001a000 f i LowLevelDynamics_static_64:DyArticulation.obj
 0001:00019000       ?getLambda@ArticulationV@Dy@physx@@UEAA_NPEAUArticulationLoopConstraint@23@IAEAVPxArticulationCache@3@1PEBMAEBVPxVec3@3@I@Z 000000018001a000 f i LowLevelDynamics_static_64:DyArticulation.obj
 0001:00019000       ?isSubordinate@?$PxSerializerDefaultAdapter@VBV4TriangleMesh@Gu@physx@@@physx@@UEBA_NXZ 000000018001a000 f i NpSerializerAdapter.obj
 0001:00019000       ?isSubordinate@?$PxSerializerDefaultAdapter@VConvexMesh@Gu@physx@@@physx@@UEBA_NXZ 000000018001a000 f i NpSerializerAdapter.obj
 0001:00019000       ?isSubordinate@?$PxSerializerDefaultAdapter@VHeightField@Gu@physx@@@physx@@UEBA_NXZ 000000018001a000 f i NpSerializerAdapter.obj
 0001:00019000       ?isSubordinate@?$PxSerializerDefaultAdapter@VNpAggregate@physx@@@physx@@UEBA_NXZ 000000018001a000 f i NpSerializerAdapter.obj
 0001:00019000       ?isSubordinate@?$PxSerializerDefaultAdapter@VNpArticulation@physx@@@physx@@UEBA_NXZ 000000018001a000 f i NpSerializerAdapter.obj
 0001:00019000       ?isSubordinate@?$PxSerializerDefaultAdapter@VNpArticulationJointReducedCoordinate@physx@@@physx@@UEBA_NXZ 000000018001a000 f i NpSerializerAdapter.obj
 0001:00019000       ?isSubordinate@?$PxSerializerDefaultAdapter@VNpArticulationReducedCoordinate@physx@@@physx@@UEBA_NXZ 000000018001a000 f i NpSerializerAdapter.obj
 0001:00019000       ?isSubordinate@?$PxSerializerDefaultAdapter@VNpMaterial@physx@@@physx@@UEBA_NXZ 000000018001a000 f i NpSerializerAdapter.obj
 0001:00019000       ?isSubordinate@?$PxSerializerDefaultAdapter@VNpRigidDynamic@physx@@@physx@@UEBA_NXZ 000000018001a000 f i NpSerializerAdapter.obj
 0001:00019000       ?isSubordinate@?$PxSerializerDefaultAdapter@VNpRigidStatic@physx@@@physx@@UEBA_NXZ 000000018001a000 f i NpSerializerAdapter.obj
 0001:00019000       ?isSubordinate@?$PxSerializerDefaultAdapter@VNpShape@physx@@@physx@@UEBA_NXZ 000000018001a000 f i NpSerializerAdapter.obj
 0001:00019000       ?isSubordinate@?$PxSerializerDefaultAdapter@VPruningStructure@Sq@physx@@@physx@@UEBA_NXZ 000000018001a000 f i NpSerializerAdapter.obj
 0001:00019000       ?isSubordinate@?$PxSerializerDefaultAdapter@VRTreeTriangleMesh@Gu@physx@@@physx@@UEBA_NXZ 000000018001a000 f i NpSerializerAdapter.obj
 0001:00019000       ?processTouches@?$PxHitBuffer@UPxRaycastHit@physx@@@physx@@MEAA_NPEBUPxRaycastHit@2@I@Z 000000018001a000 f i NpBatchQuery.obj
 0001:00019000       ?processTouches@?$PxHitBuffer@UPxSweepHit@physx@@@physx@@MEAA_NPEBUPxSweepHit@2@I@Z 000000018001a000 f i NpBatchQuery.obj
 0001:00019000       ?removeRegion@BroadPhaseBase@Bp@physx@@UEAA_NI@Z 000000018001a000 f i LowLevelAABB_static_64:BpBroadPhaseSap.obj
 0001:00019000       ?storeStaticConstraint@ArticulationV@Dy@physx@@UEAA_NAEBUPxSolverConstraintDesc@3@@Z 000000018001a000 f i LowLevelDynamics_static_64:DyArticulation.obj
 0001:00019000       ?update@PersistentPairs@Bp@physx@@UEAA_NAEAVAABBManager@23@PEAUBpCacheData@23@@Z 000000018001a000 f i LowLevelAABB_static_64:BpAABBManager.obj
 0001:00019000       ?willStoreStaticConstraint@ArticulationV@Dy@physx@@UEAA_NXZ 000000018001a000 f i LowLevelDynamics_static_64:DyArticulation.obj
 0001:00019010       ?processTouches@?$PxOverflowBuffer@UPxOverlapHit@physx@@@@UEAA_NPEBUPxOverlapHit@physx@@I@Z 000000018001a010 f i NpBatchQuery.obj
 0001:00019040       ?processTouches@?$PxOverflowBuffer@UPxRaycastHit@physx@@@@UEAA_NPEBUPxRaycastHit@physx@@I@Z 000000018001a040 f i NpBatchQuery.obj
 0001:00019040       ?processTouches@?$PxOverflowBuffer@UPxSweepHit@physx@@@@UEAA_NPEBUPxSweepHit@physx@@I@Z 000000018001a040 f i NpBatchQuery.obj
 0001:00019080       ?raycast@NpBatchQuery@physx@@UEAAXAEBVPxVec3@2@0MGV?$PxFlags@W4Enum@PxHitFlag@physx@@G@2@AEBUPxQueryFilterData@2@PEAXPEBUPxQueryCache@2@@Z 000000018001a080 f   NpBatchQuery.obj
 0001:000191f0       ?recreate@?$Array@DV?$ReflectionAllocator@D@shdfnd@physx@@@shdfnd@physx@@IEAAXI@Z 000000018001a1f0 f i NpBatchQuery.obj
 0001:000192f0       ?release@NpBatchQuery@physx@@UEAAXXZ 000000018001a2f0 f   NpBatchQuery.obj
 0001:00019350       ?resizeUninitialized@?$Array@DV?$ReflectionAllocator@D@shdfnd@physx@@@shdfnd@physx@@QEAAXI@Z 000000018001a350 f i NpBatchQuery.obj
 0001:00019390       ?setUserMemory@NpBatchQuery@physx@@UEAAXAEBUPxBatchQueryMemory@2@@Z 000000018001a390 f   NpBatchQuery.obj
 0001:00019430       ?sweep@NpBatchQuery@physx@@UEAAXAEBVPxGeometry@2@AEBVPxTransform@2@AEBVPxVec3@2@MGV?$PxFlags@W4Enum@PxHitFlag@physx@@G@2@AEBUPxQueryFilterData@2@PEAXPEBUPxQueryCache@2@M@Z 000000018001a430 f   NpBatchQuery.obj
 0001:000196b0       ?writeBatchHeader@NpBatchQuery@physx@@AEAAXAEBUBatchStreamHeader@2@@Z 000000018001a6b0 f   NpBatchQuery.obj
 0001:00019af0       ??0NpConstraint@physx@@QEAA@PEAVPxRigidActor@1@0AEAVPxConstraintConnector@1@AEBUPxConstraintShaderTable@1@I@Z 000000018001aaf0 f   NpConstraint.obj
 0001:00019cf0       ??_ENpConstraint@physx@@UEAAPEAXI@Z 000000018001acf0 f i NpConstraint.obj
 0001:00019cf0       ??_GNpConstraint@physx@@UEAAPEAXI@Z 000000018001acf0 f i NpConstraint.obj
 0001:00019d90       ?NpConstraintGetRigidObjectsFromScb@physx@@YAXAEBVConstraint@Scb@1@AEAPEAVRigidObject@31@1@Z 000000018001ad90 f   NpConstraint.obj
 0001:00019e00       ?actorDeleted@NpConstraint@physx@@QEAAXPEAVPxRigidActor@2@@Z 000000018001ae00 f   NpConstraint.obj
 0001:00019e20       ?comShift@NpConstraint@physx@@QEAAXPEAVPxRigidActor@2@@Z 000000018001ae20 f   NpConstraint.obj
 0001:00019e70       ?createObject@NpConstraint@physx@@SAPEAV12@AEAPEAEAEAVPxDeserializationContext@2@@Z 000000018001ae70 f   NpConstraint.obj
 0001:00019f10       ?getActors@NpConstraint@physx@@UEBAXAEAPEAVPxRigidActor@2@0@Z 000000018001af10 f   NpConstraint.obj
 0001:00019f20       ?getBreakForce@NpConstraint@physx@@UEBAXAEAM0@Z 000000018001af20 f   NpConstraint.obj
 0001:00019f90       ?getConcreteTypeName@PxConstraint@physx@@UEBAPEBDXZ 000000018001af90 f i NpConstraint.obj
 0001:00019fa0       ?getExternalReference@NpConstraint@physx@@UEAAPEAXAEAI@Z 000000018001afa0 f   NpConstraint.obj
 0001:00019fb0       ?getFlags@NpConstraint@physx@@UEBA?AV?$PxFlags@W4Enum@PxConstraintFlag@physx@@G@2@XZ 000000018001afb0 f   NpConstraint.obj
 0001:00019ff0       ?getForce@NpConstraint@physx@@UEBAXAEAVPxVec3@2@0@Z 000000018001aff0 f   NpConstraint.obj
 0001:0001a030       ?getMinResponseThreshold@NpConstraint@physx@@UEBAMXZ 000000018001b030 f   NpConstraint.obj
 0001:0001a080       ?getNpScene@NpConstraint@physx@@QEBAPEAVNpScene@2@XZ 000000018001b080 f   NpConstraint.obj
 0001:0001a080       ?getScene@NpConstraint@physx@@UEBAPEAVPxScene@2@XZ 000000018001b080 f   NpConstraint.obj
 0001:0001a0b0       ?getSceneFromActors@NpConstraint@physx@@QEBAPEAVNpScene@2@XZ 000000018001b0b0 f   NpConstraint.obj
 0001:0001a150       ?isKindOf@PxConstraint@physx@@MEBA_NPEBD@Z 000000018001b150 f i NpConstraint.obj
 0001:0001a1a0       ?isValid@NpConstraint@physx@@UEBA_NXZ 000000018001b1a0 f   NpConstraint.obj
 0001:0001a1f0       ?markDirty@NpConstraint@physx@@UEAAXXZ 000000018001b1f0 f   NpConstraint.obj
 0001:0001a200       ?release@NpConstraint@physx@@UEAAXXZ 000000018001b200 f   NpConstraint.obj
 0001:0001a310       ?setActors@NpConstraint@physx@@UEAAXPEAVPxRigidActor@2@0@Z 000000018001b310 f   NpConstraint.obj
 0001:0001a580       ?setBodies@Constraint@Scb@physx@@QEAAXPEAVRigidObject@23@0@Z 000000018001b580 f i NpConstraint.obj
 0001:0001a670       ?setBreakForce@NpConstraint@physx@@UEAAXMM@Z 000000018001b670 f   NpConstraint.obj
 0001:0001a730       ?setConstraintFunctions@NpConstraint@physx@@UEAAXAEAVPxConstraintConnector@2@AEBUPxConstraintShaderTable@2@@Z 000000018001b730 f   NpConstraint.obj
 0001:0001a910       ?setFlag@NpConstraint@physx@@UEAAXW4Enum@PxConstraintFlag@2@_N@Z 000000018001b910 f   NpConstraint.obj
 0001:0001a9c0       ?setFlags@Constraint@Scb@physx@@QEAAXV?$PxFlags@W4Enum@PxConstraintFlag@physx@@G@3@@Z 000000018001b9c0 f i NpConstraint.obj
 0001:0001aa50       ?setFlags@NpConstraint@physx@@UEAAXV?$PxFlags@W4Enum@PxConstraintFlag@physx@@G@2@@Z 000000018001ba50 f   NpConstraint.obj
 0001:0001aaa0       ?setMinResponseThreshold@NpConstraint@physx@@UEAAXM@Z 000000018001baa0 f   NpConstraint.obj
 0001:0001ab50       ?updateConstants@NpConstraint@physx@@QEAAXXZ 000000018001bb50 f   NpConstraint.obj
 0001:0001b110       ??$sort@PEAXU?$Less@PEAX@shdfnd@physx@@V?$ReflectionAllocator@V?$PtrBlock@$03@NpPtrTableStorageManager@physx@@@23@@shdfnd@physx@@YAXPEAPEAXIAEBU?$Less@PEAX@01@AEBV?$ReflectionAllocator@V?$PtrBlock@$03@NpPtrTableStorageManager@physx@@@01@I@Z 000000018001c110 f i NpFactory.obj
 0001:0001b570       ??$sort@PEAXU?$Less@PEAX@shdfnd@physx@@V?$ReflectionAllocator@V?$PtrBlock@$0BA@@NpPtrTableStorageManager@physx@@@23@@shdfnd@physx@@YAXPEAPEAXIAEBU?$Less@PEAX@01@AEBV?$ReflectionAllocator@V?$PtrBlock@$0BA@@NpPtrTableStorageManager@physx@@@01@I@Z 000000018001c570 f i NpFactory.obj
 0001:0001b9d0       ??$sort@PEAXU?$Less@PEAX@shdfnd@physx@@V?$ReflectionAllocator@V?$PtrBlock@$0EA@@NpPtrTableStorageManager@physx@@@23@@shdfnd@physx@@YAXPEAPEAXIAEBU?$Less@PEAX@01@AEBV?$ReflectionAllocator@V?$PtrBlock@$0EA@@NpPtrTableStorageManager@physx@@@01@I@Z 000000018001c9d0 f i NpFactory.obj
 0001:0001be30       ??$sort@PEAXU?$Less@PEAX@shdfnd@physx@@V?$ReflectionAllocator@VNpAggregate@physx@@@23@@shdfnd@physx@@YAXPEAPEAXIAEBU?$Less@PEAX@01@AEBV?$ReflectionAllocator@VNpAggregate@physx@@@01@I@Z 000000018001ce30 f i NpFactory.obj
 0001:0001c290       ??$sort@PEAXU?$Less@PEAX@shdfnd@physx@@V?$ReflectionAllocator@VNpArticulation@physx@@@23@@shdfnd@physx@@YAXPEAPEAXIAEBU?$Less@PEAX@01@AEBV?$ReflectionAllocator@VNpArticulation@physx@@@01@I@Z 000000018001d290 f i NpFactory.obj
 0001:0001c6f0       ??$sort@PEAXU?$Less@PEAX@shdfnd@physx@@V?$ReflectionAllocator@VNpArticulationJoint@physx@@@23@@shdfnd@physx@@YAXPEAPEAXIAEBU?$Less@PEAX@01@AEBV?$ReflectionAllocator@VNpArticulationJoint@physx@@@01@I@Z 000000018001d6f0 f i NpFactory.obj
 0001:0001cb50       ??$sort@PEAXU?$Less@PEAX@shdfnd@physx@@V?$ReflectionAllocator@VNpArticulationJointReducedCoordinate@physx@@@23@@shdfnd@physx@@YAXPEAPEAXIAEBU?$Less@PEAX@01@AEBV?$ReflectionAllocator@VNpArticulationJointReducedCoordinate@physx@@@01@I@Z 000000018001db50 f i NpFactory.obj
 0001:0001cfb0       ??$sort@PEAXU?$Less@PEAX@shdfnd@physx@@V?$ReflectionAllocator@VNpArticulationLink@physx@@@23@@shdfnd@physx@@YAXPEAPEAXIAEBU?$Less@PEAX@01@AEBV?$ReflectionAllocator@VNpArticulationLink@physx@@@01@I@Z 000000018001dfb0 f i NpFactory.obj
 0001:0001d410       ??$sort@PEAXU?$Less@PEAX@shdfnd@physx@@V?$ReflectionAllocator@VNpArticulationReducedCoordinate@physx@@@23@@shdfnd@physx@@YAXPEAPEAXIAEBU?$Less@PEAX@01@AEBV?$ReflectionAllocator@VNpArticulationReducedCoordinate@physx@@@01@I@Z 000000018001e410 f i NpFactory.obj
 0001:0001d870       ??$sort@PEAXU?$Less@PEAX@shdfnd@physx@@V?$ReflectionAllocator@VNpConnectorArray@physx@@@23@@shdfnd@physx@@YAXPEAPEAXIAEBU?$Less@PEAX@01@AEBV?$ReflectionAllocator@VNpConnectorArray@physx@@@01@I@Z 000000018001e870 f i NpFactory.obj
 0001:0001dcd0       ??$sort@PEAXU?$Less@PEAX@shdfnd@physx@@V?$ReflectionAllocator@VNpConstraint@physx@@@23@@shdfnd@physx@@YAXPEAPEAXIAEBU?$Less@PEAX@01@AEBV?$ReflectionAllocator@VNpConstraint@physx@@@01@I@Z 000000018001ecd0 f i NpFactory.obj
 0001:0001e130       ??$sort@PEAXU?$Less@PEAX@shdfnd@physx@@V?$ReflectionAllocator@VNpMaterial@physx@@@23@@shdfnd@physx@@YAXPEAPEAXIAEBU?$Less@PEAX@01@AEBV?$ReflectionAllocator@VNpMaterial@physx@@@01@I@Z 000000018001f130 f i NpFactory.obj
 0001:0001e590       ??$sort@PEAXU?$Less@PEAX@shdfnd@physx@@V?$ReflectionAllocator@VNpRigidDynamic@physx@@@23@@shdfnd@physx@@YAXPEAPEAXIAEBU?$Less@PEAX@01@AEBV?$ReflectionAllocator@VNpRigidDynamic@physx@@@01@I@Z 000000018001f590 f i NpFactory.obj
 0001:0001e9f0       ??$sort@PEAXU?$Less@PEAX@shdfnd@physx@@V?$ReflectionAllocator@VNpRigidStatic@physx@@@23@@shdfnd@physx@@YAXPEAPEAXIAEBU?$Less@PEAX@01@AEBV?$ReflectionAllocator@VNpRigidStatic@physx@@@01@I@Z 000000018001f9f0 f i NpFactory.obj
 0001:0001ee50       ??$sort@PEAXU?$Less@PEAX@shdfnd@physx@@V?$ReflectionAllocator@VNpShape@physx@@@23@@shdfnd@physx@@YAXPEAPEAXIAEBU?$Less@PEAX@01@AEBV?$ReflectionAllocator@VNpShape@physx@@@01@I@Z 000000018001fe50 f i NpFactory.obj
 0001:0001f2b0       ??0?$MutexT@V?$ReflectionAllocator@VMutexImpl@shdfnd@physx@@@shdfnd@physx@@@shdfnd@physx@@QEAA@AEBV?$ReflectionAllocator@VMutexImpl@shdfnd@physx@@@12@@Z 00000001800202b0 f i NpFactory.obj
 0001:0001f350       ??0NpFactory@physx@@QEAA@XZ 0000000180020350 f   NpFactory.obj
 0001:0001fe50       ??1?$Array@PEAVShapeSim@Sc@physx@@V?$InlineAllocator@$0CAA@V?$ReflectionAllocator@PEAVShapeSim@Sc@physx@@@shdfnd@physx@@@shdfnd@3@@shdfnd@physx@@QEAA@XZ 0000000180020e50 f i NpScene.obj
 0001:0001fe50       ??1?$Array@PEAXV?$InlineAllocator@$0CAA@V?$ReflectionAllocator@V?$PtrBlock@$03@NpPtrTableStorageManager@physx@@@shdfnd@physx@@@shdfnd@physx@@@shdfnd@physx@@QEAA@XZ 0000000180020e50 f i NpFactory.obj
 0001:0001fe50       ??1?$Array@PEAXV?$InlineAllocator@$0CAA@V?$ReflectionAllocator@V?$PtrBlock@$0BA@@NpPtrTableStorageManager@physx@@@shdfnd@physx@@@shdfnd@physx@@@shdfnd@physx@@QEAA@XZ 0000000180020e50 f i NpFactory.obj
 0001:0001fe50       ??1?$Array@PEAXV?$InlineAllocator@$0CAA@V?$ReflectionAllocator@V?$PtrBlock@$0EA@@NpPtrTableStorageManager@physx@@@shdfnd@physx@@@shdfnd@physx@@@shdfnd@physx@@QEAA@XZ 0000000180020e50 f i NpFactory.obj
 0001:0001fe50       ??1?$Array@PEAXV?$InlineAllocator@$0CAA@V?$ReflectionAllocator@VNpAggregate@physx@@@shdfnd@physx@@@shdfnd@physx@@@shdfnd@physx@@QEAA@XZ 0000000180020e50 f i NpFactory.obj
 0001:0001fe50       ??1?$Array@PEAXV?$InlineAllocator@$0CAA@V?$ReflectionAllocator@VNpArticulation@physx@@@shdfnd@physx@@@shdfnd@physx@@@shdfnd@physx@@QEAA@XZ 0000000180020e50 f i NpFactory.obj
 0001:0001fe50       ??1?$Array@PEAXV?$InlineAllocator@$0CAA@V?$ReflectionAllocator@VNpArticulationJoint@physx@@@shdfnd@physx@@@shdfnd@physx@@@shdfnd@physx@@QEAA@XZ 0000000180020e50 f i NpFactory.obj
 0001:0001fe50       ??1?$Array@PEAXV?$InlineAllocator@$0CAA@V?$ReflectionAllocator@VNpArticulationJointReducedCoordinate@physx@@@shdfnd@physx@@@shdfnd@physx@@@shdfnd@physx@@QEAA@XZ 0000000180020e50 f i NpFactory.obj
 0001:0001fe50       ??1?$Array@PEAXV?$InlineAllocator@$0CAA@V?$ReflectionAllocator@VNpArticulationLink@physx@@@shdfnd@physx@@@shdfnd@physx@@@shdfnd@physx@@QEAA@XZ 0000000180020e50 f i NpFactory.obj
 0001:0001fe50       ??1?$Array@PEAXV?$InlineAllocator@$0CAA@V?$ReflectionAllocator@VNpArticulationReducedCoordinate@physx@@@shdfnd@physx@@@shdfnd@physx@@@shdfnd@physx@@QEAA@XZ 0000000180020e50 f i NpFactory.obj
 0001:0001fe50       ??1?$Array@PEAXV?$InlineAllocator@$0CAA@V?$ReflectionAllocator@VNpConnectorArray@physx@@@shdfnd@physx@@@shdfnd@physx@@@shdfnd@physx@@QEAA@XZ 0000000180020e50 f i NpFactory.obj
 0001:0001fe50       ??1?$Array@PEAXV?$InlineAllocator@$0CAA@V?$ReflectionAllocator@VNpConstraint@physx@@@shdfnd@physx@@@shdfnd@physx@@@shdfnd@physx@@QEAA@XZ 0000000180020e50 f i NpFactory.obj
 0001:0001fe50       ??1?$Array@PEAXV?$InlineAllocator@$0CAA@V?$ReflectionAllocator@VNpMaterial@physx@@@shdfnd@physx@@@shdfnd@physx@@@shdfnd@physx@@QEAA@XZ 0000000180020e50 f i NpFactory.obj
 0001:0001fe50       ??1?$Array@PEAXV?$InlineAllocator@$0CAA@V?$ReflectionAllocator@VNpRigidDynamic@physx@@@shdfnd@physx@@@shdfnd@physx@@@shdfnd@physx@@QEAA@XZ 0000000180020e50 f i NpFactory.obj
 0001:0001fe50       ??1?$Array@PEAXV?$InlineAllocator@$0CAA@V?$ReflectionAllocator@VNpRigidStatic@physx@@@shdfnd@physx@@@shdfnd@physx@@@shdfnd@physx@@QEAA@XZ 0000000180020e50 f i NpFactory.obj
 0001:0001fe50       ??1?$Array@PEAXV?$InlineAllocator@$0CAA@V?$ReflectionAllocator@VNpShape@physx@@@shdfnd@physx@@@shdfnd@physx@@@shdfnd@physx@@QEAA@XZ 0000000180020e50 f i NpFactory.obj
 0001:0001fe50       ??1?$Array@PEBVShapeCore@Sc@physx@@V?$InlineAllocator@$0CAA@V?$ReflectionAllocator@PEBVShapeCore@Sc@physx@@@shdfnd@physx@@@shdfnd@3@@shdfnd@physx@@QEAA@XZ 0000000180020e50 f i NpScene.obj
 0001:0001fec0       ??1?$PoolBase@V?$PtrBlock@$03@NpPtrTableStorageManager@physx@@V?$ReflectionAllocator@V?$PtrBlock@$03@NpPtrTableStorageManager@physx@@@shdfnd@3@@shdfnd@physx@@QEAA@XZ 0000000180020ec0 f i NpFactory.obj
 0001:00020020       ??1?$PoolBase@V?$PtrBlock@$0BA@@NpPtrTableStorageManager@physx@@V?$ReflectionAllocator@V?$PtrBlock@$0BA@@NpPtrTableStorageManager@physx@@@shdfnd@3@@shdfnd@physx@@QEAA@XZ 0000000180021020 f i NpFactory.obj
 0001:00020180       ??1?$PoolBase@V?$PtrBlock@$0EA@@NpPtrTableStorageManager@physx@@V?$ReflectionAllocator@V?$PtrBlock@$0EA@@NpPtrTableStorageManager@physx@@@shdfnd@3@@shdfnd@physx@@QEAA@XZ 0000000180021180 f i NpFactory.obj
 0001:000202e0       ??1?$PoolBase@VNpAggregate@physx@@V?$ReflectionAllocator@VNpAggregate@physx@@@shdfnd@2@@shdfnd@physx@@QEAA@XZ 00000001800212e0 f i NpFactory.obj
 0001:000204e0       ??1?$PoolBase@VNpArticulation@physx@@V?$ReflectionAllocator@VNpArticulation@physx@@@shdfnd@2@@shdfnd@physx@@QEAA@XZ 00000001800214e0 f i NpFactory.obj
 0001:000206e0       ??1?$PoolBase@VNpArticulationJoint@physx@@V?$ReflectionAllocator@VNpArticulationJoint@physx@@@shdfnd@2@@shdfnd@physx@@QEAA@XZ 00000001800216e0 f i NpFactory.obj
 0001:000208e0       ??1?$PoolBase@VNpArticulationJointReducedCoordinate@physx@@V?$ReflectionAllocator@VNpArticulationJointReducedCoordinate@physx@@@shdfnd@2@@shdfnd@physx@@QEAA@XZ 00000001800218e0 f i NpFactory.obj
 0001:00020ae0       ??1?$PoolBase@VNpArticulationLink@physx@@V?$ReflectionAllocator@VNpArticulationLink@physx@@@shdfnd@2@@shdfnd@physx@@QEAA@XZ 0000000180021ae0 f i NpFactory.obj
 0001:00020ce0       ??1?$PoolBase@VNpArticulationReducedCoordinate@physx@@V?$ReflectionAllocator@VNpArticulationReducedCoordinate@physx@@@shdfnd@2@@shdfnd@physx@@QEAA@XZ 0000000180021ce0 f i NpFactory.obj
 0001:00020ee0       ??1?$PoolBase@VNpConnectorArray@physx@@V?$ReflectionAllocator@VNpConnectorArray@physx@@@shdfnd@2@@shdfnd@physx@@QEAA@XZ 0000000180021ee0 f i NpFactory.obj
 0001:00020f60       ??1?$PoolBase@VNpConstraint@physx@@V?$ReflectionAllocator@VNpConstraint@physx@@@shdfnd@2@@shdfnd@physx@@QEAA@XZ 0000000180021f60 f i NpFactory.obj
 0001:00021160       ??1?$PoolBase@VNpMaterial@physx@@V?$ReflectionAllocator@VNpMaterial@physx@@@shdfnd@2@@shdfnd@physx@@QEAA@XZ 0000000180022160 f i NpFactory.obj
 0001:00021360       ??1?$PoolBase@VNpRigidDynamic@physx@@V?$ReflectionAllocator@VNpRigidDynamic@physx@@@shdfnd@2@@shdfnd@physx@@QEAA@XZ 0000000180022360 f i NpFactory.obj
 0001:00021560       ??1?$PoolBase@VNpRigidStatic@physx@@V?$ReflectionAllocator@VNpRigidStatic@physx@@@shdfnd@2@@shdfnd@physx@@QEAA@XZ 0000000180022560 f i NpFactory.obj
 0001:00021760       ??1?$PoolBase@VNpShape@physx@@V?$ReflectionAllocator@VNpShape@physx@@@shdfnd@2@@shdfnd@physx@@QEAA@XZ 0000000180022760 f i NpFactory.obj
 0001:00021960       ??1NpFactory@physx@@EEAA@XZ 0000000180022960 f   NpFactory.obj
 0001:00021cc0       ??_ENpFactory@physx@@EEAAPEAXI@Z 0000000180022cc0 f i NpFactory.obj
 0001:00021cc0       ??_GNpFactory@physx@@EEAAPEAXI@Z 0000000180022cc0 f i NpFactory.obj
 0001:00021d20       ??_ENpPtrTableStorageManager@physx@@UEAAPEAXI@Z 0000000180022d20 f i NpFactory.obj
 0001:00021d20       ??_GNpPtrTableStorageManager@physx@@UEAAPEAXI@Z 0000000180022d20 f i NpFactory.obj
 0001:00021de0       ??_EPtrTableStorageManager@Cm@physx@@MEAAPEAXI@Z 0000000180022de0 f i NpFactory.obj
 0001:00021de0       ??_GPtrTableStorageManager@Cm@physx@@MEAAPEAXI@Z 0000000180022de0 f i NpFactory.obj
 0001:00021e10       ?NpDestroy@physx@@YAXAEAVBase@Scb@1@@Z 0000000180022e10 f   NpFactory.obj
 0001:00022220       ?acquireConnectorArray@NpFactory@physx@@QEAAPEAVNpConnectorArray@2@XZ 0000000180023220 f   NpFactory.obj
 0001:00022380       ?addCollection@NpFactory@physx@@QEAAXAEBVCollection@Cm@2@@Z 0000000180023380 f   NpFactory.obj
 0001:00022620       ?allocate@?$Array@PEAVPxActor@physx@@V?$ReflectionAllocator@PEAVPxActor@physx@@@shdfnd@2@@shdfnd@physx@@IEAAPEAPEAVPxActor@3@I@Z 0000000180023620 f i NpFactory.obj
 0001:000226c0       ?allocate@?$Array@PEAVPxAggregate@physx@@V?$ReflectionAllocator@PEAVPxAggregate@physx@@@shdfnd@2@@shdfnd@physx@@IEAAPEAPEAVPxAggregate@3@I@Z 00000001800236c0 f i NpFactory.obj
 0001:00022760       ?allocate@?$Array@PEAVPxArticulationBase@physx@@V?$ReflectionAllocator@PEAVPxArticulationBase@physx@@@shdfnd@2@@shdfnd@physx@@IEAAPEAPEAVPxArticulationBase@3@I@Z 0000000180023760 f i NpFactory.obj
 0001:00022800       ?allocate@?$Array@PEAVPxConstraint@physx@@V?$ReflectionAllocator@PEAVPxConstraint@physx@@@shdfnd@2@@shdfnd@physx@@IEAAPEAPEAVPxConstraint@3@I@Z 0000000180023800 f i NpFactory.obj
 0001:000228a0       ?allocate@?$ReflectionAllocator@G@shdfnd@physx@@QEAAPEAX_KPEBDH@Z 00000001800238a0 f i NpFactory.obj
 0001:00022940       ?allocate@?$ReflectionAllocator@V?$PtrBlock@$03@NpPtrTableStorageManager@physx@@@shdfnd@physx@@QEAAPEAX_KPEBDH@Z 0000000180023940 f i NpFactory.obj
 0001:000229e0       ?allocate@?$ReflectionAllocator@V?$PtrBlock@$0BA@@NpPtrTableStorageManager@physx@@@shdfnd@physx@@QEAAPEAX_KPEBDH@Z 00000001800239e0 f i NpFactory.obj
 0001:00022a80       ?allocate@?$ReflectionAllocator@V?$PtrBlock@$0EA@@NpPtrTableStorageManager@physx@@@shdfnd@physx@@QEAAPEAX_KPEBDH@Z 0000000180023a80 f i NpFactory.obj
 0001:00022b20       ?allocate@?$ReflectionAllocator@VNpAggregate@physx@@@shdfnd@physx@@QEAAPEAX_KPEBDH@Z 0000000180023b20 f i NpFactory.obj
 0001:00022bc0       ?allocate@?$ReflectionAllocator@VNpArticulation@physx@@@shdfnd@physx@@QEAAPEAX_KPEBDH@Z 0000000180023bc0 f i NpFactory.obj
 0001:00022c60       ?allocate@?$ReflectionAllocator@VNpArticulationJoint@physx@@@shdfnd@physx@@QEAAPEAX_KPEBDH@Z 0000000180023c60 f i NpFactory.obj
 0001:00022d00       ?allocate@?$ReflectionAllocator@VNpArticulationJointReducedCoordinate@physx@@@shdfnd@physx@@QEAAPEAX_KPEBDH@Z 0000000180023d00 f i NpFactory.obj
 0001:00022da0       ?allocate@?$ReflectionAllocator@VNpArticulationLink@physx@@@shdfnd@physx@@QEAAPEAX_KPEBDH@Z 0000000180023da0 f i NpFactory.obj
 0001:00022e40       ?allocate@?$ReflectionAllocator@VNpArticulationReducedCoordinate@physx@@@shdfnd@physx@@QEAAPEAX_KPEBDH@Z 0000000180023e40 f i NpFactory.obj
 0001:00022ee0       ?allocate@?$ReflectionAllocator@VNpConnectorArray@physx@@@shdfnd@physx@@QEAAPEAX_KPEBDH@Z 0000000180023ee0 f i NpFactory.obj
 0001:00022f80       ?allocate@?$ReflectionAllocator@VNpConstraint@physx@@@shdfnd@physx@@QEAAPEAX_KPEBDH@Z 0000000180023f80 f i NpFactory.obj
 0001:00023020       ?allocate@?$ReflectionAllocator@VNpMaterial@physx@@@shdfnd@physx@@QEAAPEAX_KPEBDH@Z 0000000180024020 f i NpFactory.obj
 0001:000230c0       ?allocate@?$ReflectionAllocator@VNpRigidDynamic@physx@@@shdfnd@physx@@QEAAPEAX_KPEBDH@Z 00000001800240c0 f i NpFactory.obj
 0001:00023160       ?allocate@?$ReflectionAllocator@VNpRigidStatic@physx@@@shdfnd@physx@@QEAAPEAX_KPEBDH@Z 0000000180024160 f i NpFactory.obj
 0001:00023200       ?allocate@?$ReflectionAllocator@VNpShape@physx@@@shdfnd@physx@@QEAAPEAX_KPEBDH@Z 0000000180024200 f i NpFactory.obj
 0001:000232a0       ?allocate@NpPtrTableStorageManager@physx@@UEAAPEAPEAXI@Z 00000001800242a0 f i NpFactory.obj
 0001:00023680       ?canReuse@NpPtrTableStorageManager@physx@@UEAA_NII@Z 0000000180024680 f i NpFactory.obj
 0001:000236d0       ?create@?$HashBase@PEAVPxActor@physx@@PEAV12@U?$Hash@PEAVPxActor@physx@@@shdfnd@2@UGetKey@?$HashSetBase@PEAVPxActor@physx@@U?$Hash@PEAVPxActor@physx@@@shdfnd@2@VNonTrackingAllocator@42@$0A@@internal@42@VNonTrackingAllocator@42@$0A@@internal@shdfnd@physx@@QEAAPEAPEAVPxActor@4@AEBQEAV54@AEA_N@Z 00000001800246d0 f i NpFactory.obj
 0001:000236d0       ?create@?$HashBase@PEAVPxAggregate@physx@@PEAV12@U?$Hash@PEAVPxAggregate@physx@@@shdfnd@2@UGetKey@?$HashSetBase@PEAVPxAggregate@physx@@U?$Hash@PEAVPxAggregate@physx@@@shdfnd@2@VNonTrackingAllocator@42@$0A@@internal@42@VNonTrackingAllocator@42@$0A@@internal@shdfnd@physx@@QEAAPEAPEAVPxAggregate@4@AEBQEAV54@AEA_N@Z 00000001800246d0 f i NpFactory.obj
 0001:000236d0       ?create@?$HashBase@PEAVPxArticulationBase@physx@@PEAV12@U?$Hash@PEAVPxArticulationBase@physx@@@shdfnd@2@UGetKey@?$HashSetBase@PEAVPxArticulationBase@physx@@U?$Hash@PEAVPxArticulationBase@physx@@@shdfnd@2@VNonTrackingAllocator@42@$0A@@internal@42@VNonTrackingAllocator@42@$0A@@internal@shdfnd@physx@@QEAAPEAPEAVPxArticulationBase@4@AEBQEAV54@AEA_N@Z 00000001800246d0 f i NpFactory.obj
 0001:000236d0       ?create@?$HashBase@PEAVPxConstraint@physx@@PEAV12@U?$Hash@PEAVPxConstraint@physx@@@shdfnd@2@UGetKey@?$HashSetBase@PEAVPxConstraint@physx@@U?$Hash@PEAVPxConstraint@physx@@@shdfnd@2@VNonTrackingAllocator@42@$0A@@internal@42@VNonTrackingAllocator@42@$0A@@internal@shdfnd@physx@@QEAAPEAPEAVPxConstraint@4@AEBQEAV54@AEA_N@Z 00000001800246d0 f i NpFactory.obj
 0001:000236d0       ?create@?$HashBase@PEBVPxBase@physx@@PEBV12@U?$Hash@PEBVPxBase@physx@@@shdfnd@2@UGetKey@?$HashSetBase@PEBVPxBase@physx@@U?$Hash@PEBVPxBase@physx@@@shdfnd@2@VNonTrackingAllocator@42@$0A@@internal@42@VNonTrackingAllocator@42@$0A@@internal@shdfnd@physx@@QEAAPEAPEBVPxBase@4@AEBQEBV54@AEA_N@Z 00000001800246d0 f i NpPhysics.obj
 0001:00023870       ?createAggregate@NpFactory@physx@@QEAAPEAVPxAggregate@2@I_N@Z 0000000180024870 f   NpFactory.obj
 0001:00023be0       ?createArticulation@NpFactory@physx@@QEAAPEAVPxArticulation@2@XZ 0000000180024be0 f   NpFactory.obj
 0001:00024110       ?createArticulationLink@NpFactory@physx@@QEAAPEAVPxArticulationLink@2@AEAVPxArticulationBase@2@PEAVNpArticulationLink@2@AEBVPxTransform@2@@Z 0000000180025110 f   NpFactory.obj
 0001:00024320       ?createArticulationRC@NpFactory@physx@@QEAAPEAVPxArticulationReducedCoordinate@2@XZ 0000000180025320 f   NpFactory.obj
 0001:000243c0       ?createConstraint@NpFactory@physx@@QEAAPEAVPxConstraint@2@PEAVPxRigidActor@2@0AEAVPxConstraintConnector@2@AEBUPxConstraintShaderTable@2@I@Z 00000001800253c0 f   NpFactory.obj
 0001:000245a0       ?createInstance@NpFactory@physx@@SAXXZ 00000001800255a0 f   NpFactory.obj
 0001:00024630       ?createMaterial@NpFactory@physx@@QEAAPEAVPxMaterial@2@MMM@Z 0000000180025630 f   NpFactory.obj
 0001:000247f0       ?createNpArticulationJoint@NpFactory@physx@@QEAAPEAVNpArticulationJoint@2@AEAVNpArticulationLink@2@AEBVPxTransform@2@01@Z 00000001800257f0 f   NpFactory.obj
 0001:00024980       ?createNpArticulationJointRC@NpFactory@physx@@QEAAPEAVNpArticulationJointReducedCoordinate@2@AEAVNpArticulationLink@2@AEBVPxTransform@2@01@Z 0000000180025980 f   NpFactory.obj
 0001:00024b10       ?createRigidDynamic@NpFactory@physx@@QEAAPEAVPxRigidDynamic@2@AEBVPxTransform@2@@Z 0000000180025b10 f   NpFactory.obj
 0001:00024cc0       ?createRigidStatic@NpFactory@physx@@QEAAPEAVPxRigidStatic@2@AEBVPxTransform@2@@Z 0000000180025cc0 f   NpFactory.obj
 0001:00024e60       ?createShape@NpFactory@physx@@QEAAPEAVNpShape@2@AEBVPxGeometry@2@V?$PxFlags@W4Enum@PxShapeFlag@physx@@E@2@PEBQEAVPxMaterial@2@G_N@Z 0000000180025e60 f   NpFactory.obj
 0001:000251a0       ?deallocate@NpPtrTableStorageManager@physx@@UEAAXPEAPEAXI@Z 00000001800261a0 f i NpFactory.obj
 0001:00025250       ?destroyInstance@NpFactory@physx@@SAXXZ 0000000180026250 f   NpFactory.obj
 0001:000252e0       ?disposeElements@?$PoolBase@VNpConnectorArray@physx@@V?$ReflectionAllocator@VNpConnectorArray@physx@@@shdfnd@2@@shdfnd@physx@@IEAAXXZ 00000001800262e0 f i NpFactory.obj
 0001:000254e0       ?freeListAdd@?$HashBase@PEAVPxActor@physx@@PEAV12@U?$Hash@PEAVPxActor@physx@@@shdfnd@2@UGetKey@?$HashSetBase@PEAVPxActor@physx@@U?$Hash@PEAVPxActor@physx@@@shdfnd@2@VNonTrackingAllocator@42@$0A@@internal@42@VNonTrackingAllocator@42@$0A@@internal@shdfnd@physx@@AEAAXII@Z 00000001800264e0 f i NpFactory.obj
 0001:000254e0       ?freeListAdd@?$HashBase@PEAVPxAggregate@physx@@PEAV12@U?$Hash@PEAVPxAggregate@physx@@@shdfnd@2@UGetKey@?$HashSetBase@PEAVPxAggregate@physx@@U?$Hash@PEAVPxAggregate@physx@@@shdfnd@2@VNonTrackingAllocator@42@$0A@@internal@42@VNonTrackingAllocator@42@$0A@@internal@shdfnd@physx@@AEAAXII@Z 00000001800264e0 f i NpFactory.obj
 0001:000254e0       ?freeListAdd@?$HashBase@PEAVPxArticulationBase@physx@@PEAV12@U?$Hash@PEAVPxArticulationBase@physx@@@shdfnd@2@UGetKey@?$HashSetBase@PEAVPxArticulationBase@physx@@U?$Hash@PEAVPxArticulationBase@physx@@@shdfnd@2@VNonTrackingAllocator@42@$0A@@internal@42@VNonTrackingAllocator@42@$0A@@internal@shdfnd@physx@@AEAAXII@Z 00000001800264e0 f i NpFactory.obj
 0001:000254e0       ?freeListAdd@?$HashBase@PEAVPxConstraint@physx@@PEAV12@U?$Hash@PEAVPxConstraint@physx@@@shdfnd@2@UGetKey@?$HashSetBase@PEAVPxConstraint@physx@@U?$Hash@PEAVPxConstraint@physx@@@shdfnd@2@VNonTrackingAllocator@42@$0A@@internal@42@VNonTrackingAllocator@42@$0A@@internal@shdfnd@physx@@AEAAXII@Z 00000001800264e0 f i NpFactory.obj
 0001:000254e0       ?freeListAdd@?$HashBase@PEBVPxBase@physx@@PEBV12@U?$Hash@PEBVPxBase@physx@@@shdfnd@2@UGetKey@?$HashSetBase@PEBVPxBase@physx@@U?$Hash@PEBVPxBase@physx@@@shdfnd@2@VNonTrackingAllocator@42@$0A@@internal@42@VNonTrackingAllocator@42@$0A@@internal@shdfnd@physx@@AEAAXII@Z 00000001800264e0 f i NpPhysics.obj
 0001:000254e0       ?freeListAdd@?$HashBase@UPair@Bp@physx@@U123@U?$Hash@UPair@Bp@physx@@@shdfnd@3@UGetKey@?$HashSetBase@UPair@Bp@physx@@U?$Hash@UPair@Bp@physx@@@shdfnd@3@VNonTrackingAllocator@53@$0A@@internal@53@VNonTrackingAllocator@53@$0A@@internal@shdfnd@physx@@AEAAXII@Z 00000001800264e0 f i LowLevelAABB_static_64:BpAABBManager.obj
 0001:00025620       ?getNbShapes@NpFactory@physx@@QEBAIXZ 0000000180026620 f   NpFactory.obj
 0001:00025630       ?getShapes@NpFactory@physx@@QEBAIPEAPEAVPxShape@2@II@Z 0000000180026630 f   NpFactory.obj
 0001:00025690       ?growAndPushBack@?$Array@PEAVPxActor@physx@@V?$ReflectionAllocator@PEAVPxActor@physx@@@shdfnd@2@@shdfnd@physx@@IEAAAEAPEAVPxActor@3@AEBQEAV43@@Z 0000000180026690 f i NpFactory.obj
 0001:00025750       ?growAndPushBack@?$Array@PEAVPxAggregate@physx@@V?$ReflectionAllocator@PEAVPxAggregate@physx@@@shdfnd@2@@shdfnd@physx@@IEAAAEAPEAVPxAggregate@3@AEBQEAV43@@Z 0000000180026750 f i NpFactory.obj
 0001:00025810       ?growAndPushBack@?$Array@PEAVPxArticulationBase@physx@@V?$ReflectionAllocator@PEAVPxArticulationBase@physx@@@shdfnd@2@@shdfnd@physx@@IEAAAEAPEAVPxArticulationBase@3@AEBQEAV43@@Z 0000000180026810 f i NpFactory.obj
 0001:000258d0       ?growAndPushBack@?$Array@PEAVPxConstraint@physx@@V?$ReflectionAllocator@PEAVPxConstraint@physx@@@shdfnd@2@@shdfnd@physx@@IEAAAEAPEAVPxConstraint@3@AEBQEAV43@@Z 00000001800268d0 f i NpFactory.obj
 0001:00025990       ?growAndPushBack@?$Array@PEAXV?$InlineAllocator@$0CAA@V?$ReflectionAllocator@V?$PtrBlock@$03@NpPtrTableStorageManager@physx@@@shdfnd@physx@@@shdfnd@physx@@@shdfnd@physx@@IEAAAEAPEAXAEBQEAX@Z 0000000180026990 f i NpFactory.obj
 0001:00025ac0       ?growAndPushBack@?$Array@PEAXV?$InlineAllocator@$0CAA@V?$ReflectionAllocator@V?$PtrBlock@$0BA@@NpPtrTableStorageManager@physx@@@shdfnd@physx@@@shdfnd@physx@@@shdfnd@physx@@IEAAAEAPEAXAEBQEAX@Z 0000000180026ac0 f i NpFactory.obj
 0001:00025bf0       ?growAndPushBack@?$Array@PEAXV?$InlineAllocator@$0CAA@V?$ReflectionAllocator@V?$PtrBlock@$0EA@@NpPtrTableStorageManager@physx@@@shdfnd@physx@@@shdfnd@physx@@@shdfnd@physx@@IEAAAEAPEAXAEBQEAX@Z 0000000180026bf0 f i NpFactory.obj
 0001:00025d20       ?growAndPushBack@?$Array@PEAXV?$InlineAllocator@$0CAA@V?$ReflectionAllocator@VNpAggregate@physx@@@shdfnd@physx@@@shdfnd@physx@@@shdfnd@physx@@IEAAAEAPEAXAEBQEAX@Z 0000000180026d20 f i NpFactory.obj
 0001:00025e50       ?growAndPushBack@?$Array@PEAXV?$InlineAllocator@$0CAA@V?$ReflectionAllocator@VNpArticulation@physx@@@shdfnd@physx@@@shdfnd@physx@@@shdfnd@physx@@IEAAAEAPEAXAEBQEAX@Z 0000000180026e50 f i NpFactory.obj
 0001:00025f80       ?growAndPushBack@?$Array@PEAXV?$InlineAllocator@$0CAA@V?$ReflectionAllocator@VNpArticulationJoint@physx@@@shdfnd@physx@@@shdfnd@physx@@@shdfnd@physx@@IEAAAEAPEAXAEBQEAX@Z 0000000180026f80 f i NpFactory.obj
 0001:000260b0       ?growAndPushBack@?$Array@PEAXV?$InlineAllocator@$0CAA@V?$ReflectionAllocator@VNpArticulationJointReducedCoordinate@physx@@@shdfnd@physx@@@shdfnd@physx@@@shdfnd@physx@@IEAAAEAPEAXAEBQEAX@Z 00000001800270b0 f i NpFactory.obj
 0001:000261e0       ?growAndPushBack@?$Array@PEAXV?$InlineAllocator@$0CAA@V?$ReflectionAllocator@VNpArticulationLink@physx@@@shdfnd@physx@@@shdfnd@physx@@@shdfnd@physx@@IEAAAEAPEAXAEBQEAX@Z 00000001800271e0 f i NpFactory.obj
 0001:00026310       ?growAndPushBack@?$Array@PEAXV?$InlineAllocator@$0CAA@V?$ReflectionAllocator@VNpArticulationReducedCoordinate@physx@@@shdfnd@physx@@@shdfnd@physx@@@shdfnd@physx@@IEAAAEAPEAXAEBQEAX@Z 0000000180027310 f i NpFactory.obj
 0001:00026440       ?growAndPushBack@?$Array@PEAXV?$InlineAllocator@$0CAA@V?$ReflectionAllocator@VNpConnectorArray@physx@@@shdfnd@physx@@@shdfnd@physx@@@shdfnd@physx@@IEAAAEAPEAXAEBQEAX@Z 0000000180027440 f i NpFactory.obj
 0001:00026570       ?growAndPushBack@?$Array@PEAXV?$InlineAllocator@$0CAA@V?$ReflectionAllocator@VNpConstraint@physx@@@shdfnd@physx@@@shdfnd@physx@@@shdfnd@physx@@IEAAAEAPEAXAEBQEAX@Z 0000000180027570 f i NpFactory.obj
 0001:000266a0       ?growAndPushBack@?$Array@PEAXV?$InlineAllocator@$0CAA@V?$ReflectionAllocator@VNpMaterial@physx@@@shdfnd@physx@@@shdfnd@physx@@@shdfnd@physx@@IEAAAEAPEAXAEBQEAX@Z 00000001800276a0 f i NpFactory.obj
 0001:000267d0       ?growAndPushBack@?$Array@PEAXV?$InlineAllocator@$0CAA@V?$ReflectionAllocator@VNpRigidDynamic@physx@@@shdfnd@physx@@@shdfnd@physx@@@shdfnd@physx@@IEAAAEAPEAXAEBQEAX@Z 00000001800277d0 f i NpFactory.obj
 0001:00026900       ?growAndPushBack@?$Array@PEAXV?$InlineAllocator@$0CAA@V?$ReflectionAllocator@VNpRigidStatic@physx@@@shdfnd@physx@@@shdfnd@physx@@@shdfnd@physx@@IEAAAEAPEAXAEBQEAX@Z 0000000180027900 f i NpFactory.obj
 0001:00026a30       ?growAndPushBack@?$Array@PEAXV?$InlineAllocator@$0CAA@V?$ReflectionAllocator@VNpShape@physx@@@shdfnd@physx@@@shdfnd@physx@@@shdfnd@physx@@IEAAAEAPEAXAEBQEAX@Z 0000000180027a30 f i NpFactory.obj
 0001:00026b60       ?growAndPushBack@?$Array@PEAXV?$ReflectionAllocator@V?$PtrBlock@$03@NpPtrTableStorageManager@physx@@@shdfnd@physx@@@shdfnd@physx@@IEAAAEAPEAXAEBQEAX@Z 0000000180027b60 f i NpFactory.obj
 0001:00026c30       ?growAndPushBack@?$Array@PEAXV?$ReflectionAllocator@V?$PtrBlock@$0BA@@NpPtrTableStorageManager@physx@@@shdfnd@physx@@@shdfnd@physx@@IEAAAEAPEAXAEBQEAX@Z 0000000180027c30 f i NpFactory.obj
 0001:00026d00       ?growAndPushBack@?$Array@PEAXV?$ReflectionAllocator@V?$PtrBlock@$0EA@@NpPtrTableStorageManager@physx@@@shdfnd@physx@@@shdfnd@physx@@IEAAAEAPEAXAEBQEAX@Z 0000000180027d00 f i NpFactory.obj
 0001:00026dd0       ?growAndPushBack@?$Array@PEAXV?$ReflectionAllocator@VNpAggregate@physx@@@shdfnd@physx@@@shdfnd@physx@@IEAAAEAPEAXAEBQEAX@Z 0000000180027dd0 f i NpFactory.obj
 0001:00026ea0       ?growAndPushBack@?$Array@PEAXV?$ReflectionAllocator@VNpArticulation@physx@@@shdfnd@physx@@@shdfnd@physx@@IEAAAEAPEAXAEBQEAX@Z 0000000180027ea0 f i NpFactory.obj
 0001:00026f70       ?growAndPushBack@?$Array@PEAXV?$ReflectionAllocator@VNpArticulationJoint@physx@@@shdfnd@physx@@@shdfnd@physx@@IEAAAEAPEAXAEBQEAX@Z 0000000180027f70 f i NpFactory.obj
 0001:00027040       ?growAndPushBack@?$Array@PEAXV?$ReflectionAllocator@VNpArticulationJointReducedCoordinate@physx@@@shdfnd@physx@@@shdfnd@physx@@IEAAAEAPEAXAEBQEAX@Z 0000000180028040 f i NpFactory.obj
 0001:00027110       ?growAndPushBack@?$Array@PEAXV?$ReflectionAllocator@VNpArticulationLink@physx@@@shdfnd@physx@@@shdfnd@physx@@IEAAAEAPEAXAEBQEAX@Z 0000000180028110 f i NpFactory.obj
 0001:000271e0       ?growAndPushBack@?$Array@PEAXV?$ReflectionAllocator@VNpArticulationReducedCoordinate@physx@@@shdfnd@physx@@@shdfnd@physx@@IEAAAEAPEAXAEBQEAX@Z 00000001800281e0 f i NpFactory.obj
 0001:000272b0       ?growAndPushBack@?$Array@PEAXV?$ReflectionAllocator@VNpConnectorArray@physx@@@shdfnd@physx@@@shdfnd@physx@@IEAAAEAPEAXAEBQEAX@Z 00000001800282b0 f i NpFactory.obj
 0001:00027380       ?growAndPushBack@?$Array@PEAXV?$ReflectionAllocator@VNpConstraint@physx@@@shdfnd@physx@@@shdfnd@physx@@IEAAAEAPEAXAEBQEAX@Z 0000000180028380 f i NpFactory.obj
 0001:00027450       ?growAndPushBack@?$Array@PEAXV?$ReflectionAllocator@VNpMaterial@physx@@@shdfnd@physx@@@shdfnd@physx@@IEAAAEAPEAXAEBQEAX@Z 0000000180028450 f i NpFactory.obj
 0001:00027520       ?growAndPushBack@?$Array@PEAXV?$ReflectionAllocator@VNpRigidDynamic@physx@@@shdfnd@physx@@@shdfnd@physx@@IEAAAEAPEAXAEBQEAX@Z 0000000180028520 f i NpFactory.obj
 0001:000275f0       ?growAndPushBack@?$Array@PEAXV?$ReflectionAllocator@VNpRigidStatic@physx@@@shdfnd@physx@@@shdfnd@physx@@IEAAAEAPEAXAEBQEAX@Z 00000001800285f0 f i NpFactory.obj
 0001:000276c0       ?growAndPushBack@?$Array@PEAXV?$ReflectionAllocator@VNpShape@physx@@@shdfnd@physx@@@shdfnd@physx@@IEAAAEAPEAXAEBQEAX@Z 00000001800286c0 f i NpFactory.obj
 0001:00027790       ?onActorRelease@NpFactory@physx@@QEAAXPEAVPxActor@2@@Z 0000000180028790 f   NpFactory.obj
 0001:000278a0       ?onAggregateRelease@NpFactory@physx@@QEAAXPEAVPxAggregate@2@@Z 00000001800288a0 f   NpFactory.obj
 0001:000279b0       ?onArticulationRelease@NpFactory@physx@@QEAAXPEAVPxArticulationBase@2@@Z 00000001800289b0 f   NpFactory.obj
 0001:00027ac0       ?onConstraintRelease@NpFactory@physx@@QEAAXPEAVPxConstraint@2@@Z 0000000180028ac0 f   NpFactory.obj
 0001:00027bd0       ?onShapeRelease@NpFactory@physx@@QEAAXPEAVPxShape@2@@Z 0000000180028bd0 f   NpFactory.obj
 0001:00027c10       ?recreate@?$Array@GV?$InlineAllocator@$07V?$ReflectionAllocator@G@shdfnd@physx@@@shdfnd@physx@@@shdfnd@physx@@IEAAXI@Z 0000000180028c10 f i NpFactory.obj
 0001:00027cd0       ?recreate@?$Array@PEAVPxActor@physx@@V?$ReflectionAllocator@PEAVPxActor@physx@@@shdfnd@2@@shdfnd@physx@@IEAAXI@Z 0000000180028cd0 f i NpFactory.obj
 0001:00027d70       ?recreate@?$Array@PEAVPxAggregate@physx@@V?$ReflectionAllocator@PEAVPxAggregate@physx@@@shdfnd@2@@shdfnd@physx@@IEAAXI@Z 0000000180028d70 f i NpFactory.obj
 0001:00027e10       ?recreate@?$Array@PEAVPxArticulationBase@physx@@V?$ReflectionAllocator@PEAVPxArticulationBase@physx@@@shdfnd@2@@shdfnd@physx@@IEAAXI@Z 0000000180028e10 f i NpFactory.obj
 0001:00027eb0       ?recreate@?$Array@PEAVPxConstraint@physx@@V?$ReflectionAllocator@PEAVPxConstraint@physx@@@shdfnd@2@@shdfnd@physx@@IEAAXI@Z 0000000180028eb0 f i NpFactory.obj
 0001:00027f50       ?registerArticulationRCs@NpFactory@physx@@SAXXZ 0000000180028f50 f   NpFactory.obj
 0001:00027f70       ?registerArticulations@NpFactory@physx@@SAXXZ 0000000180028f70 f   NpFactory.obj
 0001:00027f90       ?releaseArticulationJointRCToPool@NpFactory@physx@@QEAAXAEAVNpArticulationJointReducedCoordinate@2@@Z 0000000180028f90 f   NpFactory.obj
 0001:00027ff0       ?releaseArticulationJointToPool@NpFactory@physx@@QEAAXAEAVNpArticulationJoint@2@@Z 0000000180028ff0 f   NpFactory.obj
 0001:00028050       ?releaseConnectorArray@NpFactory@physx@@QEAAXPEAVNpConnectorArray@2@@Z 0000000180029050 f   NpFactory.obj
 0001:000280e0       ?releaseMaterialToPool@NpFactory@physx@@QEAAXAEAVNpMaterial@2@@Z 00000001800290e0 f   NpFactory.obj
 0001:00028140       ?reserveInternal@?$HashBase@PEAVPxActor@physx@@PEAV12@U?$Hash@PEAVPxActor@physx@@@shdfnd@2@UGetKey@?$HashSetBase@PEAVPxActor@physx@@U?$Hash@PEAVPxActor@physx@@@shdfnd@2@VNonTrackingAllocator@42@$0A@@internal@42@VNonTrackingAllocator@42@$0A@@internal@shdfnd@physx@@AEAAXI@Z 0000000180029140 f i NpFactory.obj
 0001:00028140       ?reserveInternal@?$HashBase@PEAVPxAggregate@physx@@PEAV12@U?$Hash@PEAVPxAggregate@physx@@@shdfnd@2@UGetKey@?$HashSetBase@PEAVPxAggregate@physx@@U?$Hash@PEAVPxAggregate@physx@@@shdfnd@2@VNonTrackingAllocator@42@$0A@@internal@42@VNonTrackingAllocator@42@$0A@@internal@shdfnd@physx@@AEAAXI@Z 0000000180029140 f i NpFactory.obj
 0001:00028140       ?reserveInternal@?$HashBase@PEAVPxArticulationBase@physx@@PEAV12@U?$Hash@PEAVPxArticulationBase@physx@@@shdfnd@2@UGetKey@?$HashSetBase@PEAVPxArticulationBase@physx@@U?$Hash@PEAVPxArticulationBase@physx@@@shdfnd@2@VNonTrackingAllocator@42@$0A@@internal@42@VNonTrackingAllocator@42@$0A@@internal@shdfnd@physx@@AEAAXI@Z 0000000180029140 f i NpFactory.obj
 0001:00028140       ?reserveInternal@?$HashBase@PEAVPxConstraint@physx@@PEAV12@U?$Hash@PEAVPxConstraint@physx@@@shdfnd@2@UGetKey@?$HashSetBase@PEAVPxConstraint@physx@@U?$Hash@PEAVPxConstraint@physx@@@shdfnd@2@VNonTrackingAllocator@42@$0A@@internal@42@VNonTrackingAllocator@42@$0A@@internal@shdfnd@physx@@AEAAXI@Z 0000000180029140 f i NpFactory.obj
 0001:00028140       ?reserveInternal@?$HashBase@PEBVPxBase@physx@@PEBV12@U?$Hash@PEBVPxBase@physx@@@shdfnd@2@UGetKey@?$HashSetBase@PEBVPxBase@physx@@U?$Hash@PEBVPxBase@physx@@@shdfnd@2@VNonTrackingAllocator@42@$0A@@internal@42@VNonTrackingAllocator@42@$0A@@internal@shdfnd@physx@@AEAAXI@Z 0000000180029140 f i NpPhysics.obj
 0001:00028450       ?resize@?$Array@GV?$InlineAllocator@$07V?$ReflectionAllocator@G@shdfnd@physx@@@shdfnd@physx@@@shdfnd@physx@@QEAAXIAEBG@Z 0000000180029450 f i NpFactory.obj
 0001:00028510       ??0NpMaterial@physx@@QEAA@AEBVMaterialCore@Sc@1@@Z 0000000180029510 f   NpMaterial.obj
 0001:00028598       ??_ENpMaterial@physx@@WBI@EAAPEAXI@Z 0000000180029598 f i NpMaterial.obj
 0001:000285b0       ??_ENpMaterial@physx@@UEAAPEAXI@Z 00000001800295b0 f i NpMaterial.obj
 0001:000285b0       ??_GNpMaterial@physx@@UEAAPEAXI@Z 00000001800295b0 f i NpMaterial.obj
 0001:00028640       ??_ERefCountable@Cm@physx@@UEAAPEAXI@Z 0000000180029640 f i NpMaterial.obj
 0001:00028640       ??_GRefCountable@Cm@physx@@UEAAPEAXI@Z 0000000180029640 f i NpMaterial.obj
 0001:00028670       ?acquireReference@NpMaterial@physx@@UEAAXXZ 0000000180029670 f   NpMaterial.obj
 0001:00028670       ?acquireReference@NpShape@physx@@UEAAXXZ 0000000180029670 f   NpShape.obj
 0001:00028680       ?createObject@NpMaterial@physx@@SAPEAV12@AEAPEAEAEAVPxDeserializationContext@2@@Z 0000000180029680 f   NpMaterial.obj
 0001:00028700       ?getConcreteTypeName@PxMaterial@physx@@UEBAPEBDXZ 0000000180029700 f i NpMaterial.obj
 0001:00028710       ?getDynamicFriction@NpMaterial@physx@@UEBAMXZ 0000000180029710 f   NpMaterial.obj
 0001:00028720       ?getFlags@NpMaterial@physx@@UEBA?AV?$PxFlags@W4Enum@PxMaterialFlag@physx@@G@2@XZ 0000000180029720 f   NpMaterial.obj
 0001:00028730       ?getFrictionCombineMode@NpMaterial@physx@@UEBA?AW4Enum@PxCombineMode@2@XZ 0000000180029730 f   NpMaterial.obj
 0001:00028740       ?getNbLines@RenderBuffer@Cm@physx@@UEBAIXZ 0000000180029740 f   NpScene.obj
 0001:00028740       ?getReference@PxLightCpuTask@physx@@UEBAHXZ 0000000180029740 f   NpScene.obj
 0001:00028740       ?getReferenceCount@NpMaterial@physx@@UEBAIXZ 0000000180029740 f   NpMaterial.obj
 0001:00028740       ?getReferenceCount@NpShape@physx@@UEBAIXZ 0000000180029740 f   NpShape.obj
 0001:00028750       ?getRestitution@NpMaterial@physx@@UEBAMXZ 0000000180029750 f   NpMaterial.obj
 0001:00028760       ?getRestitutionCombineMode@NpMaterial@physx@@UEBA?AW4Enum@PxCombineMode@2@XZ 0000000180029760 f   NpMaterial.obj
 0001:00028770       ?getStaticFriction@NpMaterial@physx@@UEBAMXZ 0000000180029770 f   NpMaterial.obj
 0001:00028780       ?isKindOf@PxMaterial@physx@@MEBA_NPEBD@Z 0000000180029780 f i NpMaterial.obj
 0001:000287d0       ?onRefCountZero@NpMaterial@physx@@UEAAXXZ 00000001800297d0 f   NpMaterial.obj
 0001:00028830       ?destroy@BroadPhaseABP@Bp@physx@@UEAAXXZ 0000000180029830 f i LowLevelAABB_static_64:BpBroadPhaseABP.obj
 0001:00028830       ?destroy@BroadPhaseMBP@Bp@physx@@UEAAXXZ 0000000180029830 f i LowLevelAABB_static_64:BpBroadPhaseMBP.obj
 0001:00028830       ?onRefCountZero@RefCountable@Cm@physx@@UEAAXXZ 0000000180029830 f i NpMaterial.obj
 0001:00028850       ?release@NpMaterial@physx@@UEAAXXZ 0000000180029850 f   NpMaterial.obj
 0001:00028850       ?release@NpShape@physx@@UEAAXXZ 0000000180029850 f   NpShape.obj
 0001:00028850       ?releaseInternal@NpShape@physx@@QEAAXXZ 0000000180029850 f   NpShape.obj
 0001:00028880       ?resolveReferences@NpMaterial@physx@@UEAAXAEAVPxDeserializationContext@2@@Z 0000000180029880 f   NpMaterial.obj
 0001:000288a0       ?setDynamicFriction@NpMaterial@physx@@UEAAXM@Z 00000001800298a0 f   NpMaterial.obj
 0001:000288c0       ?setFlag@NpMaterial@physx@@UEAAXW4Enum@PxMaterialFlag@2@_N@Z 00000001800298c0 f   NpMaterial.obj
 0001:000288f0       ?setFlags@NpMaterial@physx@@UEAAXV?$PxFlags@W4Enum@PxMaterialFlag@physx@@G@2@@Z 00000001800298f0 f   NpMaterial.obj
 0001:00028910       ?setFrictionCombineMode@NpMaterial@physx@@UEAAXW4Enum@PxCombineMode@2@@Z 0000000180029910 f   NpMaterial.obj
 0001:00028930       ?setRestitution@NpMaterial@physx@@UEAAXM@Z 0000000180029930 f   NpMaterial.obj
 0001:000289b0       ?setRestitutionCombineMode@NpMaterial@physx@@UEAAXW4Enum@PxCombineMode@2@@Z 00000001800299b0 f   NpMaterial.obj
 0001:000289d0       ?setStaticFriction@NpMaterial@physx@@UEAAXM@Z 00000001800299d0 f   NpMaterial.obj
 0001:000289f0       ?getBinaryMetaData@NpArticulationLink@physx@@SAXAEAVPxOutputStream@2@@Z 00000001800299f0 f   NpMetaData.obj
 0001:00028df0       ?getBinaryMetaData@NpArticulationLinkArray@physx@@SAXAEAVPxOutputStream@2@@Z 0000000180029df0 f   NpMetaData.obj
 0001:00029030       ?getBinaryMetaData@NpArticulationReducedCoordinate@physx@@SAXAEAVPxOutputStream@2@@Z 000000018002a030 f   NpMetaData.obj
 0001:000292a0       ?getBinaryMetaData@NpConnectorArray@physx@@SAXAEAVPxOutputStream@2@@Z 000000018002a2a0 f   NpMetaData.obj
 0001:000294e0       ?getBinaryMetaData@NpRigidDynamic@physx@@SAXAEAVPxOutputStream@2@@Z 000000018002a4e0 f   NpMetaData.obj
 0001:00029740       ?getBinaryMetaData@NpRigidStatic@physx@@SAXAEAVPxOutputStream@2@@Z 000000018002a740 f   NpMetaData.obj
 0001:000299a0       ?getBinaryMetaData@NpShape@physx@@SAXAEAVPxOutputStream@2@@Z 000000018002a9a0 f   NpMetaData.obj
 0001:0002aa00       PxGetPhysicsBinaryMetaData 000000018002ba00 f   NpMetaData.obj
 0001:0002b840       ??0NpPhysics@physx@@AEAA@AEBVPxTolerancesScale@1@AEBUPxvOffsetTable@1@_NPEAVPsPvd@pvdsdk@1@@Z 000000018002c840 f   NpPhysics.obj
 0001:0002baa0       ??1NpPhysics@physx@@EEAA@XZ 000000018002caa0 f   NpPhysics.obj
 0001:0002bda0       ??_EGuMeshFactoryListener@physx@@MEAAPEAXI@Z 000000018002cda0 f i NpPhysics.obj
 0001:0002bda0       ??_EMeshDeletionListener@NpPhysics@physx@@UEAAPEAXI@Z 000000018002cda0 f i NpPhysics.obj
 0001:0002bda0       ??_EPxProcessPxBaseCallback@physx@@UEAAPEAXI@Z 000000018002cda0 f i NpSerializerAdapter.obj
 0001:0002bda0       ??_GGuMeshFactoryListener@physx@@MEAAPEAXI@Z 000000018002cda0 f i NpPhysics.obj
 0001:0002bda0       ??_GMeshDeletionListener@NpPhysics@physx@@UEAAPEAXI@Z 000000018002cda0 f i NpPhysics.obj
 0001:0002bda0       ??_GPxProcessPxBaseCallback@physx@@UEAAPEAXI@Z 000000018002cda0 f i NpSerializerAdapter.obj
 0001:0002bdd0       ??_ENpPhysics@physx@@EEAAPEAXI@Z 000000018002cdd0 f i NpPhysics.obj
 0001:0002bdd0       ??_GNpPhysics@physx@@EEAAPEAXI@Z 000000018002cdd0 f i NpPhysics.obj
 0001:0002be30       ??_ENpPhysicsInsertionCallback@physx@@UEAAPEAXI@Z 000000018002ce30 f i NpPhysics.obj
 0001:0002be30       ??_EPrunerCallback@Sq@physx@@UEAAPEAXI@Z 000000018002ce30 f i NpSceneQueries.obj
 0001:0002be30       ??_EPxPhysicsInsertionCallback@physx@@MEAAPEAXI@Z 000000018002ce30 f i NpPhysics.obj
 0001:0002be30       ??_ESqBoundsSync@Sc@physx@@UEAAPEAXI@Z 000000018002ce30 f i SceneQuery_static_64:SqSceneQueryManager.obj
 0001:0002be30       ??_ESqRefFinder@@UEAAPEAXI@Z 000000018002ce30 f i NpScene.obj
 0001:0002be30       ??_ESqRefFinder@Sc@physx@@UEAAPEAXI@Z 000000018002ce30 f i NpScene.obj
 0001:0002be30       ??_GNpPhysicsInsertionCallback@physx@@UEAAPEAXI@Z 000000018002ce30 f i NpPhysics.obj
 0001:0002be30       ??_GPrunerCallback@Sq@physx@@UEAAPEAXI@Z 000000018002ce30 f i NpSceneQueries.obj
 0001:0002be30       ??_GPxPhysicsInsertionCallback@physx@@MEAAPEAXI@Z 000000018002ce30 f i NpPhysics.obj
 0001:0002be30       ??_GSqBoundsSync@Sc@physx@@UEAAPEAXI@Z 000000018002ce30 f i SceneQuery_static_64:SqSceneQueryManager.obj
 0001:0002be30       ??_GSqRefFinder@@UEAAPEAXI@Z 000000018002ce30 f i NpScene.obj
 0001:0002be30       ??_GSqRefFinder@Sc@physx@@UEAAPEAXI@Z 000000018002ce30 f i NpScene.obj
 0001:0002be60       ??_EPxPhysics@physx@@UEAAPEAXI@Z 000000018002ce60 f i NpPhysics.obj
 0001:0002be60       ??_GPxPhysics@physx@@UEAAPEAXI@Z 000000018002ce60 f i NpPhysics.obj
 0001:0002be90       ?addMaterial@NpPhysics@physx@@QEAAPEAVNpMaterial@2@PEAV32@@Z 000000018002ce90 f   NpPhysics.obj
 0001:0002bf60       ?allocate@?$ReflectionAllocator@I@shdfnd@physx@@QEAAPEAX_KPEBDH@Z 000000018002cf60 f i NpPhysics.obj
 0001:0002c000       ?buildObjectFromData@NpPhysicsInsertionCallback@physx@@UEAAPEAVPxBase@2@W4Enum@PxConcreteType@2@PEAX@Z 000000018002d000 f i NpPhysics.obj
 0001:0002c0b0       ?create@?$HashBase@V?$Pair@QEAVPxDeletionListener@physx@@PEAUNpDelListenerEntry@NpPhysics@2@@shdfnd@physx@@PEAVPxDeletionListener@3@U?$Hash@PEAVPxDeletionListener@physx@@@23@UGetKey@?$HashMapBase@PEAVPxDeletionListener@physx@@PEAUNpDelListenerEntry@NpPhysics@2@U?$Hash@PEAVPxDeletionListener@physx@@@shdfnd@2@VNonTrackingAllocator@62@@internal@23@VNonTrackingAllocator@23@$00@internal@shdfnd@physx@@QEAAPEAV?$Pair@QEAVPxDeletionListener@physx@@PEAUNpDelListenerEntry@NpPhysics@2@@34@AEBQEAVPxDeletionListener@4@AEA_N@Z 000000018002d0b0 f i NpPhysics.obj
 0001:0002c240       ?createAggregate@NpPhysics@physx@@UEAAPEAVPxAggregate@2@I_N@Z 000000018002d240 f   NpPhysics.obj
 0001:0002c250       ?createArticulation@NpPhysics@physx@@UEAAPEAVPxArticulation@2@XZ 000000018002d250 f   NpPhysics.obj
 0001:0002c260       ?createArticulationReducedCoordinate@NpPhysics@physx@@UEAAPEAVPxArticulationReducedCoordinate@2@XZ 000000018002d260 f   NpPhysics.obj
 0001:0002c270       ?createBVHStructure@NpPhysics@physx@@UEAAPEAVPxBVHStructure@2@AEAVPxInputStream@2@@Z 000000018002d270 f   NpPhysics.obj
 0001:0002c280       ?createConstraint@NpPhysics@physx@@UEAAPEAVPxConstraint@2@PEAVPxRigidActor@2@0AEAVPxConstraintConnector@2@AEBUPxConstraintShaderTable@2@I@Z 000000018002d280 f   NpPhysics.obj
 0001:0002c290       ?createConvexMesh@NpPhysics@physx@@UEAAPEAVPxConvexMesh@2@AEAVPxInputStream@2@@Z 000000018002d290 f   NpPhysics.obj
 0001:0002c2a0       ?createHeightField@NpPhysics@physx@@UEAAPEAVPxHeightField@2@AEAVPxInputStream@2@@Z 000000018002d2a0 f   NpPhysics.obj
 0001:0002c2b0       ?createInstance@NpPhysics@physx@@SAPEAV12@IAEAVPxFoundation@2@AEBVPxTolerancesScale@2@_NPEAVPsPvd@pvdsdk@2@@Z 000000018002d2b0 f   NpPhysics.obj
 0001:0002c4d0       ?createMaterial@NpPhysics@physx@@UEAAPEAVPxMaterial@2@MMM@Z 000000018002d4d0 f   NpPhysics.obj
 0001:0002c5b0       ?createPruningStructure@NpPhysics@physx@@UEAAPEAVPxPruningStructure@2@PEBQEAVPxRigidActor@2@I@Z 000000018002d5b0 f   NpPhysics.obj
 0001:0002c6a0       ?createRigidDynamic@NpPhysics@physx@@UEAAPEAVPxRigidDynamic@2@AEBVPxTransform@2@@Z 000000018002d6a0 f   NpPhysics.obj
 0001:0002c760       ?createRigidStatic@NpPhysics@physx@@UEAAPEAVPxRigidStatic@2@AEBVPxTransform@2@@Z 000000018002d760 f   NpPhysics.obj
 0001:0002c820       ?createScene@NpPhysics@physx@@UEAAPEAVPxScene@2@AEBVPxSceneDesc@2@@Z 000000018002d820 f   NpPhysics.obj
 0001:0002c9e0       ?createShape@NpPhysics@physx@@UEAAPEAVPxShape@2@AEBVPxGeometry@2@PEBQEAVPxMaterial@2@G_NV?$PxFlags@W4Enum@PxShapeFlag@physx@@E@2@@Z 000000018002d9e0 f   NpPhysics.obj
 0001:0002ca20       ?createTriangleMesh@NpPhysics@physx@@UEAAPEAVPxTriangleMesh@2@AEAVPxInputStream@2@@Z 000000018002da20 f   NpPhysics.obj
 0001:0002ca30       ?erase@?$HashBase@V?$Pair@QEAVPxDeletionListener@physx@@PEAUNpDelListenerEntry@NpPhysics@2@@shdfnd@physx@@PEAVPxDeletionListener@3@U?$Hash@PEAVPxDeletionListener@physx@@@23@UGetKey@?$HashMapBase@PEAVPxDeletionListener@physx@@PEAUNpDelListenerEntry@NpPhysics@2@U?$Hash@PEAVPxDeletionListener@physx@@@shdfnd@2@VNonTrackingAllocator@62@@internal@23@VNonTrackingAllocator@23@$00@internal@shdfnd@physx@@QEAA_NAEBQEAVPxDeletionListener@4@@Z 000000018002da30 f i NpPhysics.obj
 0001:0002cbd0       ?getBVHStructures@NpPhysics@physx@@UEBAIPEAPEAVPxBVHStructure@2@II@Z 000000018002dbd0 f   NpPhysics.obj
 0001:0002cbe0       ?getConvexMeshes@NpPhysics@physx@@UEBAIPEAPEAVPxConvexMesh@2@II@Z 000000018002dbe0 f   NpPhysics.obj
 0001:0002cbf0       ?getFoundation@NpPhysics@physx@@UEAAAEAVPxFoundation@2@XZ 000000018002dbf0 f   NpPhysics.obj
 0001:0002cc00       ?getHeightFields@NpPhysics@physx@@UEBAIPEAPEAVPxHeightField@2@II@Z 000000018002dc00 f   NpPhysics.obj
 0001:0002cc10       ?getMaterials@NpPhysics@physx@@UEBAIPEAPEAVPxMaterial@2@II@Z 000000018002dc10 f   NpPhysics.obj
 0001:0002ccd0       ?getNbBVHStructures@NpPhysics@physx@@UEBAIXZ 000000018002dcd0 f   NpPhysics.obj
 0001:0002cce0       ?getNbConvexMeshes@NpPhysics@physx@@UEBAIXZ 000000018002dce0 f   NpPhysics.obj
 0001:0002ccf0       ?getNbHeightFields@NpPhysics@physx@@UEBAIXZ 000000018002dcf0 f   NpPhysics.obj
 0001:0002cd00       ?getNbMaterials@NpPhysics@physx@@UEBAIXZ 000000018002dd00 f   NpPhysics.obj
 0001:0002cd40       ?getNbScenes@NpPhysics@physx@@UEBAIXZ 000000018002dd40 f   NpPhysics.obj
 0001:0002cd80       ?getNbShapes@NpPhysics@physx@@UEBAIXZ 000000018002dd80 f   NpPhysics.obj
 0001:0002cd90       ?getNbTriangleMeshes@NpPhysics@physx@@UEBAIXZ 000000018002dd90 f   NpPhysics.obj
 0001:0002cda0       ?getPhysicsInsertionCallback@NpPhysics@physx@@UEAAAEAVPxPhysicsInsertionCallback@2@XZ 000000018002dda0 f i NpPhysics.obj
 0001:0002cdb0       ?getScenes@NpPhysics@physx@@UEBAIPEAPEAVPxScene@2@II@Z 000000018002ddb0 f   NpPhysics.obj
 0001:0002ce40       ?getShapes@NpPhysics@physx@@UEBAIPEAPEAVPxShape@2@II@Z 000000018002de40 f   NpPhysics.obj
 0001:0002ce50       ?getTriangleMeshes@NpPhysics@physx@@UEBAIPEAPEAVPxTriangleMesh@2@II@Z 000000018002de50 f   NpPhysics.obj
 0001:0002ce60       ?growAndPushBack@?$Array@IV?$ReflectionAllocator@I@shdfnd@physx@@@shdfnd@physx@@IEAAAEAIAEBI@Z 000000018002de60 f i NpPhysics.obj
 0001:0002cf30       ?growAndPushBack@?$Array@PEAVNpScene@physx@@V?$ReflectionAllocator@PEAVNpScene@physx@@@shdfnd@2@@shdfnd@physx@@IEAAAEAPEAVNpScene@3@AEBQEAV43@@Z 000000018002df30 f i NpPhysics.obj
 0001:0002d050       ?notifyDeletionListeners@NpPhysics@physx@@QEAAXPEBVPxBase@2@PEAXW4Enum@PxDeletionEventFlag@2@@Z 000000018002e050 f   NpPhysics.obj
 0001:0002d190       ?onGuMeshFactoryBufferRelease@MeshDeletionListener@NpPhysics@physx@@UEAAXPEBVPxBase@3@G@Z 000000018002e190 f i NpPhysics.obj
 0001:0002d1b0       ?registerDeletionListener@NpPhysics@physx@@UEAAXAEAVPxDeletionListener@2@AEBV?$PxFlags@W4Enum@PxDeletionEventFlag@physx@@E@2@_N@Z 000000018002e1b0 f   NpPhysics.obj
 0001:0002d3a0       ?registerDeletionListenerObjects@NpPhysics@physx@@UEAAXAEAVPxDeletionListener@2@PEBQEBVPxBase@2@I@Z 000000018002e3a0 f   NpPhysics.obj
 0001:0002d4e0       ?release@NpPhysics@physx@@UEAAXXZ 000000018002e4e0 f   NpPhysics.obj
 0001:0002d530       ?releaseSceneInternal@NpPhysics@physx@@QEAAXAEAVPxScene@2@@Z 000000018002e530 f   NpPhysics.obj
 0001:0002d5b0       ?removeMaterialFromTable@NpPhysics@physx@@QEAAXAEAVNpMaterial@2@@Z 000000018002e5b0 f   NpPhysics.obj
 0001:0002d670       ?reserveInternal@?$HashBase@V?$Pair@QEAVPxDeletionListener@physx@@PEAUNpDelListenerEntry@NpPhysics@2@@shdfnd@physx@@PEAVPxDeletionListener@3@U?$Hash@PEAVPxDeletionListener@physx@@@23@UGetKey@?$HashMapBase@PEAVPxDeletionListener@physx@@PEAUNpDelListenerEntry@NpPhysics@2@U?$Hash@PEAVPxDeletionListener@physx@@@shdfnd@2@VNonTrackingAllocator@62@@internal@23@VNonTrackingAllocator@23@$00@internal@shdfnd@physx@@AEAAXI@Z 000000018002e670 f i NpPhysics.obj
 0001:0002d850       ?setMaterial@NpMaterialManager@physx@@QEAA_NAEAVNpMaterial@2@@Z 000000018002e850 f i NpPhysics.obj
 0001:0002d990       ?unregisterDeletionListener@NpPhysics@physx@@UEAAXAEAVPxDeletionListener@2@@Z 000000018002e990 f   NpPhysics.obj
 0001:0002dac0       ?unregisterDeletionListenerObjects@NpPhysics@physx@@UEAAXAEAVPxDeletionListener@2@PEBQEBVPxBase@2@I@Z 000000018002eac0 f   NpPhysics.obj
 0001:0002dcb0       ?updateMaterial@NpPhysics@physx@@QEAAXAEAVNpMaterial@2@@Z 000000018002ecb0 f   NpPhysics.obj
 0001:0002dd20       PxAddCollectionToPhysics   000000018002ed20 f   NpPhysics.obj
 0001:0002dd30       PxCreateBasePhysics        000000018002ed30 f   NpPhysics.obj
 0001:0002dd40       ?getPhysics@NpScene@physx@@UEAAAEAVPxPhysics@2@XZ 000000018002ed40 f   NpScene.obj
 0001:0002dd40       PxGetPhysics               000000018002ed40 f   NpPhysics.obj
 0001:0002dd50       PxRegisterArticulations    000000018002ed50 f   NpPhysics.obj
 0001:0002dd70       PxRegisterArticulationsReducedCoordinate 000000018002ed70 f   NpPhysics.obj
 0001:0002dd90       PxRegisterHeightFields     000000018002ed90 f   NpPhysics.obj
 0001:0002ddb0       ??0NpRigidDynamic@physx@@QEAA@AEBVPxTransform@1@@Z 000000018002edb0 f   NpRigidDynamic.obj
 0001:0002df10       ??_E?$NpActorTemplate@VPxRigidDynamic@physx@@@physx@@UEAAPEAXI@Z 000000018002ef10 f i NpRigidDynamic.obj
 0001:0002df10       ??_G?$NpActorTemplate@VPxRigidDynamic@physx@@@physx@@UEAAPEAXI@Z 000000018002ef10 f i NpRigidDynamic.obj
 0001:0002df90       ??_E?$NpRigidActorTemplate@VPxRigidDynamic@physx@@@physx@@UEAAPEAXI@Z 000000018002ef90 f i NpRigidDynamic.obj
 0001:0002df90       ??_G?$NpRigidActorTemplate@VPxRigidDynamic@physx@@@physx@@UEAAPEAXI@Z 000000018002ef90 f i NpRigidDynamic.obj
 0001:0002e020       ??_E?$NpRigidBodyTemplate@VPxRigidDynamic@physx@@@physx@@UEAAPEAXI@Z 000000018002f020 f i NpRigidDynamic.obj
 0001:0002e020       ??_ENpRigidDynamic@physx@@UEAAPEAXI@Z 000000018002f020 f i NpRigidDynamic.obj
 0001:0002e020       ??_G?$NpRigidBodyTemplate@VPxRigidDynamic@physx@@@physx@@UEAAPEAXI@Z 000000018002f020 f i NpRigidDynamic.obj
 0001:0002e020       ??_GNpRigidDynamic@physx@@UEAAPEAXI@Z 000000018002f020 f i NpRigidDynamic.obj
 0001:0002e0d0       ?NpRigidDynamicGetShapes@physx@@YAIAEAVBody@Scb@1@AEAPEBQEAXPEA_N@Z 000000018002f0d0 f   NpRigidDynamic.obj
 0001:0002e120       ?addForce@NpRigidDynamic@physx@@UEAAXAEBVPxVec3@2@W4Enum@PxForceMode@2@_N@Z 000000018002f120 f   NpRigidDynamic.obj
 0001:0002e190       ?addTorque@NpRigidDynamic@physx@@UEAAXAEBVPxVec3@2@W4Enum@PxForceMode@2@_N@Z 000000018002f190 f   NpRigidDynamic.obj
 0001:0002e200       ?clearForce@NpRigidDynamic@physx@@UEAAXW4Enum@PxForceMode@2@@Z 000000018002f200 f   NpRigidDynamic.obj
 0001:0002e210       ?clearTorque@NpRigidDynamic@physx@@UEAAXW4Enum@PxForceMode@2@@Z 000000018002f210 f   NpRigidDynamic.obj
 0001:0002e220       ?createObject@NpRigidDynamic@physx@@SAPEAV12@AEAPEAEAEAVPxDeserializationContext@2@@Z 000000018002f220 f   NpRigidDynamic.obj
 0001:0002e330       ?getConcreteTypeName@PxRigidDynamic@physx@@UEBAPEBDXZ 000000018002f330 f i NpRigidDynamic.obj
 0001:0002e340       ?getContactReportThreshold@NpRigidDynamic@physx@@UEBAMXZ 000000018002f340 f   NpRigidDynamic.obj
 0001:0002e370       ?getGlobalPose@NpRigidDynamic@physx@@UEBA?AVPxTransform@2@XZ 000000018002f370 f i NpRigidDynamic.obj
 0001:0002e680       ?getKinematicTarget@NpRigidDynamic@physx@@UEBA_NAEAVPxTransform@2@@Z 000000018002f680 f   NpRigidDynamic.obj
 0001:0002eb30       ?getRigidDynamicLockFlags@NpRigidDynamic@physx@@UEBA?AV?$PxFlags@W4Enum@PxRigidDynamicLockFlag@physx@@E@2@XZ 000000018002fb30 f   NpRigidDynamic.obj
 0001:0002eb60       ?getSleepThreshold@NpRigidDynamic@physx@@UEBAMXZ 000000018002fb60 f   NpRigidDynamic.obj
 0001:0002eb80       ?getSolverIterationCounts@NpRigidDynamic@physx@@UEBAXAEAI0@Z 000000018002fb80 f   NpRigidDynamic.obj
 0001:0002ebc0       ?getStabilizationThreshold@NpRigidDynamic@physx@@UEBAMXZ 000000018002fbc0 f   NpRigidDynamic.obj
 0001:0002ebf0       ?getType@BroadPhaseMBP@Bp@physx@@UEBA?AW4Enum@PxBroadPhaseType@3@XZ 000000018002fbf0 f i LowLevelAABB_static_64:BpBroadPhaseMBP.obj
 0001:0002ebf0       ?getType@NpRigidDynamic@physx@@UEBA?AW4Enum@PxActorType@2@XZ 000000018002fbf0 f i NpRigidDynamic.obj
 0001:0002ebf0       _get_startup_argv_mode     000000018002fbf0 f i MSVCRT:argv_mode.obj
 0001:0002ec00       ?getWakeCounter@NpRigidDynamic@physx@@UEBAMXZ 000000018002fc00 f   NpRigidDynamic.obj
 0001:0002ec10       ?isKindOf@PxRigidDynamic@physx@@MEBA_NPEBD@Z 000000018002fc10 f i NpRigidDynamic.obj
 0001:0002ecb0       ?isSleeping@NpRigidDynamic@physx@@UEBA_NXZ 000000018002fcb0 f   NpRigidDynamic.obj
 0001:0002ecc0       ?preExportDataReset@NpRigidDynamic@physx@@QEAAXXZ 000000018002fcc0 f   NpRigidDynamic.obj
 0001:0002ed60       ?putToSleep@NpRigidDynamic@physx@@UEAAXXZ 000000018002fd60 f   NpRigidDynamic.obj
 0001:0002ed70       ?release@NpRigidDynamic@physx@@UEAAXXZ 000000018002fd70 f   NpRigidDynamic.obj
 0001:0002ee60       ?setActorFlag@?$NpRigidActorTemplate@VPxRigidDynamic@physx@@@physx@@UEAAXW4Enum@PxActorFlag@2@_N@Z 000000018002fe60 f i NpRigidDynamic.obj
 0001:0002f000       ?setActorFlags@?$NpRigidActorTemplate@VPxRigidDynamic@physx@@@physx@@UEAAXV?$PxFlags@W4Enum@PxActorFlag@physx@@E@2@@Z 0000000180030000 f i NpRigidDynamic.obj
 0001:0002f130       ?setAngularVelocity@NpRigidDynamic@physx@@UEAAXAEBVPxVec3@2@_N@Z 0000000180030130 f   NpRigidDynamic.obj
 0001:0002f1b0       ?setCMassLocalPose@NpRigidDynamic@physx@@UEAAXAEBVPxTransform@2@@Z 00000001800301b0 f   NpRigidDynamic.obj
 0001:0002f8f0       ?setContactReportThreshold@NpRigidDynamic@physx@@UEAAXM@Z 00000001800308f0 f   NpRigidDynamic.obj
 0001:0002f980       ?setForceAndTorque@NpRigidDynamic@physx@@UEAAXAEBVPxVec3@2@0W4Enum@PxForceMode@2@@Z 0000000180030980 f   NpRigidDynamic.obj
 0001:0002f9e0       ?setGlobalPose@NpRigidDynamic@physx@@UEAAXAEBVPxTransform@2@_N@Z 00000001800309e0 f   NpRigidDynamic.obj
 0001:0002fe10       ?setKinematicTarget@Body@Scb@physx@@QEAAXAEBVPxTransform@3@@Z 0000000180030e10 f i NpRigidDynamic.obj
 0001:0002ff20       ?setKinematicTarget@NpRigidDynamic@physx@@UEAAXAEBVPxTransform@2@@Z 0000000180030f20 f   NpRigidDynamic.obj
 0001:00030230       ?setLinearVelocity@NpRigidDynamic@physx@@UEAAXAEBVPxVec3@2@_N@Z 0000000180031230 f   NpRigidDynamic.obj
 0001:000302b0       ?setLockFlags@Body@Scb@physx@@QEAAXV?$PxFlags@W4Enum@PxRigidDynamicLockFlag@physx@@E@3@@Z 00000001800312b0 f i NpRigidDynamic.obj
 0001:00030330       ?setRigidDynamicLockFlag@NpRigidDynamic@physx@@UEAAXW4Enum@PxRigidDynamicLockFlag@2@_N@Z 0000000180031330 f   NpRigidDynamic.obj
 0001:00030380       ?setRigidDynamicLockFlags@NpRigidDynamic@physx@@UEAAXV?$PxFlags@W4Enum@PxRigidDynamicLockFlag@physx@@E@2@@Z 0000000180031380 f   NpRigidDynamic.obj
 0001:000303a0       ?setSleepThreshold@NpRigidDynamic@physx@@UEAAXM@Z 00000001800313a0 f   NpRigidDynamic.obj
 0001:00030430       ?setSolverIterationCounts@NpRigidDynamic@physx@@UEAAXII@Z 0000000180031430 f   NpRigidDynamic.obj
 0001:000304d0       ?setStabilizationThreshold@NpRigidDynamic@physx@@UEAAXM@Z 00000001800314d0 f   NpRigidDynamic.obj
 0001:00030560       ?setWakeCounter@NpRigidDynamic@physx@@UEAAXM@Z 0000000180031560 f   NpRigidDynamic.obj
 0001:00030640       ?switchFromNoSim@NpRigidDynamic@physx@@UEAAXXZ 0000000180031640 f   NpRigidDynamic.obj
 0001:00030660       ?switchToNoSim@NpRigidDynamic@physx@@UEAAXXZ 0000000180031660 f   NpRigidDynamic.obj
 0001:00030770       ?visualize@NpRigidDynamic@physx@@QEAAXAEAVRenderOutput@Cm@2@PEAVNpScene@2@@Z 0000000180031770 f   NpRigidDynamic.obj
 0001:00030a00       ?wakeUp@NpRigidDynamic@physx@@UEAAXXZ 0000000180031a00 f   NpRigidDynamic.obj
 0001:00030a20       ?wakeUpInternal@Body@Scb@physx@@QEAAXM@Z 0000000180031a20 f i NpRigidDynamic.obj
 0001:00030aa0       ?wakeUpInternalNoKinematicTest@NpRigidDynamic@physx@@QEAAXAEAVBody@Scb@2@_N1@Z 0000000180031aa0 f   NpRigidDynamic.obj
 0001:00030b20       ??0NpRigidStatic@physx@@QEAA@AEBVPxTransform@1@@Z 0000000180031b20 f   NpRigidStatic.obj
 0001:00030bf0       ??_E?$NpActorTemplate@VPxRigidStatic@physx@@@physx@@UEAAPEAXI@Z 0000000180031bf0 f i NpRigidStatic.obj
 0001:00030bf0       ??_G?$NpActorTemplate@VPxRigidStatic@physx@@@physx@@UEAAPEAXI@Z 0000000180031bf0 f i NpRigidStatic.obj
 0001:00030c70       ??_E?$NpRigidActorTemplate@VPxRigidStatic@physx@@@physx@@UEAAPEAXI@Z 0000000180031c70 f i NpRigidStatic.obj
 0001:00030c70       ??_G?$NpRigidActorTemplate@VPxRigidStatic@physx@@@physx@@UEAAPEAXI@Z 0000000180031c70 f i NpRigidStatic.obj
 0001:00030d00       ??_ENpRigidStatic@physx@@UEAAPEAXI@Z 0000000180031d00 f i NpRigidStatic.obj
 0001:00030d00       ??_GNpRigidStatic@physx@@UEAAPEAXI@Z 0000000180031d00 f i NpRigidStatic.obj
 0001:00030db0       ?NpRigidStaticGetShapes@physx@@YAIAEAVRigidStatic@Scb@1@AEAPEBQEAX@Z 0000000180031db0 f   NpRigidStatic.obj
 0001:00030df0       ?createObject@NpRigidStatic@physx@@SAPEAV12@AEAPEAEAEAVPxDeserializationContext@2@@Z 0000000180031df0 f   NpRigidStatic.obj
 0001:00030ee0       ?getConcreteTypeName@PxRigidStatic@physx@@UEBAPEBDXZ 0000000180031ee0 f i NpRigidStatic.obj
 0001:00030ef0       ?getGlobalPose@NpRigidStatic@physx@@UEBA?AVPxTransform@2@XZ 0000000180031ef0 f   NpRigidStatic.obj
 0001:00030f40       ?createDeviceMemoryAllocator@PxsDefaultMemoryManager@physx@@UEAAPEAVVirtualAllocatorCallback@shdfnd@2@I@Z 0000000180031f40 f i LowLevel_static_64:PxsDefaultMemoryManager.obj
 0001:00030f40       ?getActiveBodies@SimulationController@Sc@physx@@UEAAPEAIXZ 0000000180031f40 f i SimulationController_static_64:ScSimulationController.obj
 0001:00030f40       ?getBroadPhasePairs@BroadPhaseABP@Bp@physx@@UEBAPEAUBroadPhasePair@23@XZ 0000000180031f40 f i LowLevelAABB_static_64:BpBroadPhaseABP.obj
 0001:00030f40       ?getBroadPhasePairs@BroadPhaseMBP@Bp@physx@@UEBAPEAUBroadPhasePair@23@XZ 0000000180031f40 f i LowLevelAABB_static_64:BpBroadPhaseMBP.obj
 0001:00030f40       ?getDeactiveBodies@SimulationController@Sc@physx@@UEAAPEAIXZ 0000000180031f40 f i SimulationController_static_64:ScSimulationController.obj
 0001:00030f40       ?getDof@ArticulationV@Dy@physx@@UEAAII@Z 0000000180031f40 f i LowLevelDynamics_static_64:DyArticulation.obj
 0001:00030f40       ?getDofs@ArticulationV@Dy@physx@@UEAAIXZ 0000000180031f40 f i LowLevelDynamics_static_64:DyArticulation.obj
 0001:00030f40       ?getFrozenShapes@SimulationController@Sc@physx@@UEAAPEAIXZ 0000000180031f40 f i SimulationController_static_64:ScSimulationController.obj
 0001:00030f40       ?getGPUContactManagerOutputBase@PxsNphaseImplementationContext@physx@@UEAAPEAUPxsContactManagerOutput@2@XZ 0000000180031f40 f i LowLevel_static_64:PxsNphaseImplementationContext.obj
 0001:00030f40       ?getNbBodies@SimulationController@Sc@physx@@UEAAIXZ 0000000180031f40 f i SimulationController_static_64:ScSimulationController.obj
 0001:00030f40       ?getNbFrozenShapes@SimulationController@Sc@physx@@UEAAIXZ 0000000180031f40 f i SimulationController_static_64:ScSimulationController.obj
 0001:00030f40       ?getNbOutOfBoundsObjects@BroadPhaseBase@Bp@physx@@UEBAIXZ 0000000180031f40 f i LowLevelAABB_static_64:BpBroadPhaseSap.obj
 0001:00030f40       ?getNbRegions@BroadPhaseBase@Bp@physx@@UEBAIXZ 0000000180031f40 f i LowLevelAABB_static_64:BpBroadPhaseSap.obj
 0001:00030f40       ?getNbShapes@SimulationController@Sc@physx@@UEAAIXZ 0000000180031f40 f i SimulationController_static_64:ScSimulationController.obj
 0001:00030f40       ?getNbUnfrozenShapes@SimulationController@Sc@physx@@UEAAIXZ 0000000180031f40 f i SimulationController_static_64:ScSimulationController.obj
 0001:00030f40       ?getOutOfBoundsObjects@BroadPhaseBase@Bp@physx@@UEBAPEBIXZ 0000000180031f40 f i LowLevelAABB_static_64:BpBroadPhaseSap.obj
 0001:00030f40       ?getRegions@BroadPhaseBase@Bp@physx@@UEBAIPEAUPxBroadPhaseRegionInfo@3@II@Z 0000000180031f40 f i LowLevelAABB_static_64:BpBroadPhaseSap.obj
 0001:00030f40       ?getRigidBodies@SimulationController@Sc@physx@@UEAAPEAPEAXXZ 0000000180031f40 f i SimulationController_static_64:ScSimulationController.obj
 0001:00030f40       ?getScenePvdClient@NpScene@physx@@UEAAPEAVPxPvdSceneClient@2@XZ 0000000180031f40 f i NpScene.obj
 0001:00030f40       ?getShapeSims@SimulationController@Sc@physx@@UEAAPEAPEAUPxsShapeSim@3@XZ 0000000180031f40 f i SimulationController_static_64:ScSimulationController.obj
 0001:00030f40       ?getType@BroadPhaseSap@Bp@physx@@UEBA?AW4Enum@PxBroadPhaseType@3@XZ 0000000180031f40 f i LowLevelAABB_static_64:BpBroadPhaseSap.obj
 0001:00030f40       ?getType@NpRigidStatic@physx@@UEBA?AW4Enum@PxActorType@2@XZ 0000000180031f40 f i NpRigidStatic.obj
 0001:00030f40       ?getUnfrozenShapes@SimulationController@Sc@physx@@UEAAPEAIXZ 0000000180031f40 f i SimulationController_static_64:ScSimulationController.obj
 0001:00030f40       __scrt_stub_for_is_c_termination_complete 0000000180031f40 f i MSVCRT:ucrt_stubs.obj
 0001:00030f40       _is_c_termination_complete 0000000180031f40 f i MSVCRT:ucrt_stubs.obj
 0001:00030f50       ?isKindOf@PxRigidStatic@physx@@MEBA_NPEBD@Z 0000000180031f50 f i NpRigidStatic.obj
 0001:00030fa0       ?release@NpRigidStatic@physx@@UEAAXXZ 0000000180031fa0 f   NpRigidStatic.obj
 0001:00031090       ?setActorFlag@?$NpRigidActorTemplate@VPxRigidStatic@physx@@@physx@@UEAAXW4Enum@PxActorFlag@2@_N@Z 0000000180032090 f i NpRigidStatic.obj
 0001:00031230       ?setActorFlags@?$NpRigidActorTemplate@VPxRigidStatic@physx@@@physx@@UEAAXV?$PxFlags@W4Enum@PxActorFlag@physx@@E@2@@Z 0000000180032230 f i NpRigidStatic.obj
 0001:00031360       ?setGlobalPose@NpRigidStatic@physx@@UEAAXAEBVPxTransform@2@_N@Z 0000000180032360 f   NpRigidStatic.obj
 0001:000315c0       ?switchFromNoSim@NpRigidStatic@physx@@UEAAXXZ 00000001800325c0 f   NpRigidStatic.obj
 0001:000315e0       ?switchToNoSim@NpRigidStatic@physx@@UEAAXXZ 00000001800325e0 f   NpRigidStatic.obj
 0001:00031600       ?visualize@NpRigidStatic@physx@@QEAAXAEAVRenderOutput@Cm@2@PEAVNpScene@2@@Z 0000000180032600 f   NpRigidStatic.obj
 0001:00031730       ??$sort@PEAXU?$Less@PEAX@shdfnd@physx@@V?$ReflectionAllocator@U?$Block@E$0BAA@@Scene@Sc@physx@@@23@@shdfnd@physx@@YAXPEAPEAXIAEBU?$Less@PEAX@01@AEBV?$ReflectionAllocator@U?$Block@E$0BAA@@Scene@Sc@physx@@@01@I@Z 0000000180032730 f i NpScene.obj
 0001:00031b90       ??$sort@PEAXU?$Less@PEAX@shdfnd@physx@@V?$ReflectionAllocator@U?$Block@E$0BIA@@Scene@Sc@physx@@@23@@shdfnd@physx@@YAXPEAPEAXIAEBU?$Less@PEAX@01@AEBV?$ReflectionAllocator@U?$Block@E$0BIA@@Scene@Sc@physx@@@01@I@Z 0000000180032b90 f i NpScene.obj
 0001:00031ff0       ??$sort@PEAXU?$Less@PEAX@shdfnd@physx@@V?$ReflectionAllocator@U?$Block@E$0IA@@Scene@Sc@physx@@@23@@shdfnd@physx@@YAXPEAPEAXIAEBU?$Less@PEAX@01@AEBV?$ReflectionAllocator@U?$Block@E$0IA@@Scene@Sc@physx@@@01@I@Z 0000000180032ff0 f i NpScene.obj
 0001:00032450       ??$sort@PEAXU?$Less@PEAX@shdfnd@physx@@V?$ReflectionAllocator@U?$Block@PEAX$07@Scene@Sc@physx@@@23@@shdfnd@physx@@YAXPEAPEAXIAEBU?$Less@PEAX@01@AEBV?$ReflectionAllocator@U?$Block@PEAX$07@Scene@Sc@physx@@@01@I@Z 0000000180033450 f i NpScene.obj
 0001:000328b0       ??$sort@PEAXU?$Less@PEAX@shdfnd@physx@@V?$ReflectionAllocator@U?$Block@PEAX$0BA@@Scene@Sc@physx@@@23@@shdfnd@physx@@YAXPEAPEAXIAEBU?$Less@PEAX@01@AEBV?$ReflectionAllocator@U?$Block@PEAX$0BA@@Scene@Sc@physx@@@01@I@Z 00000001800338b0 f i NpScene.obj
 0001:00032d10       ??$sort@PEAXU?$Less@PEAX@shdfnd@physx@@V?$ReflectionAllocator@U?$Block@PEAX$0CA@@Scene@Sc@physx@@@23@@shdfnd@physx@@YAXPEAPEAXIAEBU?$Less@PEAX@01@AEBV?$ReflectionAllocator@U?$Block@PEAX$0CA@@Scene@Sc@physx@@@01@I@Z 0000000180033d10 f i NpScene.obj
 0001:00033170       ??0NpScene@physx@@QEAA@AEBVPxSceneDesc@1@@Z 0000000180034170 f   NpScene.obj
 0001:00033810       ??1FanoutTask@Cm@physx@@UEAA@XZ 0000000180034810 f i NpScene.obj
 0001:000338d0       ??1FlushPool@Cm@physx@@QEAA@XZ 00000001800348d0 f i NpScene.obj
 0001:00033980       ??1NpScene@physx@@UEAA@XZ  0000000180034980 f   NpScene.obj
 0001:00033e30       ??1RenderBuffer@Cm@physx@@UEAA@XZ 0000000180034e30 f i NpScene.obj
 0001:00033f20       ??1Scene@Sc@physx@@QEAA@XZ 0000000180034f20 f i NpScene.obj
 0001:00035250       ??1Scene@Scb@physx@@QEAA@XZ 0000000180036250 f i NpScene.obj
 0001:00035440       ??_E?$DelegateTask@VNpScene@physx@@$H?executeAdvance@12@QEAAXPEAVPxBaseTask@2@@ZA@@Cm@physx@@UEAAPEAXI@Z 0000000180036440 f i NpScene.obj
 0001:00035440       ??_E?$DelegateTask@VNpScene@physx@@$H?executeCollide@12@QEAAXPEAVPxBaseTask@2@@ZA@@Cm@physx@@UEAAPEAXI@Z 0000000180036440 f i NpScene.obj
 0001:00035440       ??_E?$DelegateTask@VNpScene@physx@@$H?executeScene@12@QEAAXPEAVPxBaseTask@2@@ZA@@Cm@physx@@UEAAPEAXI@Z 0000000180036440 f i NpScene.obj
 0001:00035440       ??_E?$DelegateTask@VNpSceneQueries@physx@@$1?sceneQueriesDynamicPrunerUpdate@12@QEAAXPEAVPxBaseTask@2@@Z@Cm@physx@@UEAAPEAXI@Z 0000000180036440 f i NpScene.obj
 0001:00035440       ??_E?$DelegateTask@VNpSceneQueries@physx@@$1?sceneQueriesStaticPrunerUpdate@12@QEAAXPEAVPxBaseTask@2@@Z@Cm@physx@@UEAAPEAXI@Z 0000000180036440 f i NpScene.obj
 0001:00035440       ??_G?$DelegateTask@VNpScene@physx@@$H?executeAdvance@12@QEAAXPEAVPxBaseTask@2@@ZA@@Cm@physx@@UEAAPEAXI@Z 0000000180036440 f i NpScene.obj
 0001:00035440       ??_G?$DelegateTask@VNpScene@physx@@$H?executeCollide@12@QEAAXPEAVPxBaseTask@2@@ZA@@Cm@physx@@UEAAPEAXI@Z 0000000180036440 f i NpScene.obj
 0001:00035440       ??_G?$DelegateTask@VNpScene@physx@@$H?executeScene@12@QEAAXPEAVPxBaseTask@2@@ZA@@Cm@physx@@UEAAPEAXI@Z 0000000180036440 f i NpScene.obj
 0001:00035440       ??_G?$DelegateTask@VNpSceneQueries@physx@@$1?sceneQueriesDynamicPrunerUpdate@12@QEAAXPEAVPxBaseTask@2@@Z@Cm@physx@@UEAAPEAXI@Z 0000000180036440 f i NpScene.obj
 0001:00035440       ??_G?$DelegateTask@VNpSceneQueries@physx@@$1?sceneQueriesStaticPrunerUpdate@12@QEAAXPEAVPxBaseTask@2@@Z@Cm@physx@@UEAAPEAXI@Z 0000000180036440 f i NpScene.obj
 0001:000354a0       ??_ENpContactCallbackTask@physx@@UEAAPEAXI@Z 00000001800364a0 f i NpScene.obj
 0001:000354a0       ??_EScKinematicAddDynamicTask@@UEAAPEAXI@Z 00000001800364a0 f i SimulationController_static_64:ScScene.obj
 0001:000354a0       ??_ESetStepperTask@Dy@physx@@UEAAPEAXI@Z 00000001800364a0 f i LowLevelDynamics_static_64:DyTGSDynamics.obj
 0001:000354a0       ??_EUpdateArticulationTask@@UEAAPEAXI@Z 00000001800364a0 f i SimulationController_static_64:ScScene.obj
 0001:000354a0       ??_EUpdateCCDBoundsTask@@UEAAPEAXI@Z 00000001800364a0 f i SimulationController_static_64:ScScene.obj
 0001:000354a0       ??_EUpdateContinuationTGSTask@Dy@physx@@UEAAPEAXI@Z 00000001800364a0 f i LowLevelDynamics_static_64:DyTGSDynamics.obj
 0001:000354a0       ??_EUpdateContinuationTask@Dy@physx@@UEAAPEAXI@Z 00000001800364a0 f i LowLevelDynamics_static_64:DyDynamics.obj
 0001:000354a0       ??_GNpContactCallbackTask@physx@@UEAAPEAXI@Z 00000001800364a0 f i NpScene.obj
 0001:000354a0       ??_GScKinematicAddDynamicTask@@UEAAPEAXI@Z 00000001800364a0 f i SimulationController_static_64:ScScene.obj
 0001:000354a0       ??_GSetStepperTask@Dy@physx@@UEAAPEAXI@Z 00000001800364a0 f i LowLevelDynamics_static_64:DyTGSDynamics.obj
 0001:000354a0       ??_GUpdateArticulationTask@@UEAAPEAXI@Z 00000001800364a0 f i SimulationController_static_64:ScScene.obj
 0001:000354a0       ??_GUpdateCCDBoundsTask@@UEAAPEAXI@Z 00000001800364a0 f i SimulationController_static_64:ScScene.obj
 0001:000354a0       ??_GUpdateContinuationTGSTask@Dy@physx@@UEAAPEAXI@Z 00000001800364a0 f i LowLevelDynamics_static_64:DyTGSDynamics.obj
 0001:000354a0       ??_GUpdateContinuationTask@Dy@physx@@UEAAPEAXI@Z 00000001800364a0 f i LowLevelDynamics_static_64:DyDynamics.obj
 0001:000354e0       ??_ENpScene@physx@@UEAAPEAXI@Z 00000001800364e0 f i NpScene.obj
 0001:000354e0       ??_GNpScene@physx@@UEAAPEAXI@Z 00000001800364e0 f i NpScene.obj
 0001:00035540       ??_ENpSceneQueries@physx@@UEAAPEAXI@Z 0000000180036540 f i NpScene.obj
 0001:00035540       ??_GNpSceneQueries@physx@@UEAAPEAXI@Z 0000000180036540 f i NpScene.obj
 0001:000355c0       ??_EPxBaseTask@physx@@UEAAPEAXI@Z 00000001800365c0 f i NpScene.obj
 0001:000355c0       ??_GPxBaseTask@physx@@UEAAPEAXI@Z 00000001800365c0 f i NpScene.obj
 0001:000355f0       ??_EPxLightCpuTask@physx@@UEAAPEAXI@Z 00000001800365f0 f i NpScene.obj
 0001:000355f0       ??_GPxLightCpuTask@physx@@UEAAPEAXI@Z 00000001800365f0 f i NpScene.obj
 0001:00035630       ??_EPxRenderBuffer@physx@@UEAAPEAXI@Z 0000000180036630 f i NpScene.obj
 0001:00035630       ??_GPxRenderBuffer@physx@@UEAAPEAXI@Z 0000000180036630 f i NpScene.obj
 0001:00035660       ??_EPxScene@physx@@MEAAPEAXI@Z 0000000180036660 f i NpScene.obj
 0001:00035660       ??_GPxScene@physx@@MEAAPEAXI@Z 0000000180036660 f i NpScene.obj
 0001:00035690       ??_ERenderBuffer@Cm@physx@@UEAAPEAXI@Z 0000000180036690 f i NpScene.obj
 0001:00035690       ??_GRenderBuffer@Cm@physx@@UEAAPEAXI@Z 0000000180036690 f i NpScene.obj
 0001:000356f0       ??_EDynamicsMergeTask@Dy@physx@@UEAAPEAXI@Z 00000001800366f0 f i LowLevelDynamics_static_64:DyTGSDynamics.obj
 0001:000356f0       ??_EPostThirdPassTask@IG@physx@@UEAAPEAXI@Z 00000001800366f0 f i LowLevel_static_64:PxsSimpleIslandManager.obj
 0001:000356f0       ??_EPxsForceThresholdTask@Dy@physx@@UEAAPEAXI@Z 00000001800366f0 f i LowLevelDynamics_static_64:DyDynamics.obj
 0001:000356f0       ??_ESceneCompletion@NpScene@physx@@UEAAPEAXI@Z 00000001800366f0 f i NpScene.obj
 0001:000356f0       ??_GDynamicsMergeTask@Dy@physx@@UEAAPEAXI@Z 00000001800366f0 f i LowLevelDynamics_static_64:DyTGSDynamics.obj
 0001:000356f0       ??_GPostThirdPassTask@IG@physx@@UEAAPEAXI@Z 00000001800366f0 f i LowLevel_static_64:PxsSimpleIslandManager.obj
 0001:000356f0       ??_GPxsForceThresholdTask@Dy@physx@@UEAAPEAXI@Z 00000001800366f0 f i LowLevelDynamics_static_64:DyDynamics.obj
 0001:000356f0       ??_GSceneCompletion@NpScene@physx@@UEAAPEAXI@Z 00000001800366f0 f i NpScene.obj
 0001:00035730       ?addActor@NpScene@physx@@UEAAXAEAVPxActor@2@PEBVPxBVHStructure@2@@Z 0000000180036730 f   NpScene.obj
 0001:00035950       ?addActorInternal@NpScene@physx@@QEAAXAEAVPxActor@2@PEBVPxBVHStructure@2@@Z 0000000180036950 f   NpScene.obj
 0001:00035a60       ?addActors@NpScene@physx@@UEAAXAEBVPxPruningStructure@2@@Z 0000000180036a60 f   NpScene.obj
 0001:00035ab0       ?addActors@NpScene@physx@@UEAAXPEBQEAVPxActor@2@I@Z 0000000180036ab0 f   NpScene.obj
 0001:00035ac0       ?addActorsInternal@NpScene@physx@@QEAAXPEIBQEAVPxActor@2@IPEBVPruningStructure@Sq@2@@Z 0000000180036ac0 f   NpScene.obj
 0001:00035fa0       ?addAggregate@NpScene@physx@@UEAAXAEAVPxAggregate@2@@Z 0000000180036fa0 f   NpScene.obj
 0001:00036190       ?addArticulation@NpScene@physx@@UEAAXAEAVPxArticulationBase@2@@Z 0000000180037190 f   NpScene.obj
 0001:000362c0       ?addArticulationInternal@NpScene@physx@@QEAAXAEAVPxArticulationBase@2@@Z 00000001800372c0 f   NpScene.obj
 0001:000368f0       ?addArticulationLink@NpScene@physx@@QEAAXAEAVNpArticulationLink@2@@Z 00000001800378f0 f   NpScene.obj
 0001:000369d0       ?addBroadPhaseRegion@NpScene@physx@@UEAAIAEBUPxBroadPhaseRegion@2@_N@Z 00000001800379d0 f   NpScene.obj
 0001:00036a20       ?addCollection@NpScene@physx@@UEAAXAEBVPxCollection@2@@Z 0000000180037a20 f   NpScene.obj
 0001:00036bc0       ?addMaterial@NpScene@physx@@QEAAXAEBVNpMaterial@2@@Z 0000000180037bc0 f   NpScene.obj
 0001:00036bd0       ?addReference@PxLightCpuTask@physx@@UEAAXXZ 0000000180037bd0 f i NpScene.obj
 0001:00036be0       ?addRigidDynamic@NpScene@physx@@AEAAXAEAVNpRigidDynamic@2@PEBVBVHStructure@Gu@2@_N@Z 0000000180037be0 f   NpScene.obj
 0001:00036d00       ?addRigidStatic@NpScene@physx@@AEAAXAEAVNpRigidStatic@2@PEBVBVHStructure@Gu@2@_N@Z 0000000180037d00 f   NpScene.obj
 0001:00036e20       ?advance@NpScene@physx@@UEAAXPEAVPxBaseTask@2@@Z 0000000180037e20 f   NpScene.obj
 0001:00036f00       ?allocate@?$Array@PEAVPxRigidActor@physx@@V?$ReflectionAllocator@PEAVPxRigidActor@physx@@@shdfnd@2@@shdfnd@physx@@IEAAPEAPEAVPxRigidActor@3@I@Z 0000000180037f00 f i NpScene.obj
 0001:00036fa0       ?allocate@?$Array@UPxDebugPoint@physx@@V?$ReflectionAllocator@UPxDebugPoint@physx@@@shdfnd@2@@shdfnd@physx@@IEAAPEAUPxDebugPoint@3@I@Z 0000000180037fa0 f i NpScene.obj
 0001:00037040       ?allocate@?$Array@UPxDebugText@physx@@V?$ReflectionAllocator@UPxDebugText@physx@@@shdfnd@2@@shdfnd@physx@@IEAAPEAUPxDebugText@3@I@Z 0000000180038040 f i NpScene.obj
 0001:000370e0       ?allocate@?$Array@UPxDebugTriangle@physx@@V?$ReflectionAllocator@UPxDebugTriangle@physx@@@shdfnd@2@@shdfnd@physx@@IEAAPEAUPxDebugTriangle@3@I@Z 00000001800380e0 f i NpScene.obj
 0001:00037180       ?allocate@?$Array@VPxBounds3@physx@@V?$InlineAllocator@$0MA@V?$ReflectionAllocator@VPxBounds3@physx@@@shdfnd@physx@@@shdfnd@2@@shdfnd@physx@@IEAAPEAVPxBounds3@3@I@Z 0000000180038180 f i NpScene.obj
 0001:00037240       ?allocate@?$ReflectionAllocator@PEAVShape@Scb@physx@@@shdfnd@physx@@QEAAPEAX_KPEBDH@Z 0000000180038240 f i NpScene.obj
 0001:000372e0       ?allocate@?$ReflectionAllocator@U?$Block@E$0BAA@@Scene@Sc@physx@@@shdfnd@physx@@QEAAPEAX_KPEBDH@Z 00000001800382e0 f i NpScene.obj
 0001:00037380       ?allocate@?$ReflectionAllocator@U?$Block@E$0BIA@@Scene@Sc@physx@@@shdfnd@physx@@QEAAPEAX_KPEBDH@Z 0000000180038380 f i NpScene.obj
 0001:00037420       ?allocate@?$ReflectionAllocator@U?$Block@E$0IA@@Scene@Sc@physx@@@shdfnd@physx@@QEAAPEAX_KPEBDH@Z 0000000180038420 f i NpScene.obj
 0001:000374c0       ?allocate@?$ReflectionAllocator@U?$Block@PEAX$07@Scene@Sc@physx@@@shdfnd@physx@@QEAAPEAX_KPEBDH@Z 00000001800384c0 f i NpScene.obj
 0001:00037560       ?allocate@?$ReflectionAllocator@U?$Block@PEAX$0BA@@Scene@Sc@physx@@@shdfnd@physx@@QEAAPEAX_KPEBDH@Z 0000000180038560 f i NpScene.obj
 0001:00037600       ?allocate@?$ReflectionAllocator@U?$Block@PEAX$0CA@@Scene@Sc@physx@@@shdfnd@physx@@QEAAPEAX_KPEBDH@Z 0000000180038600 f i NpScene.obj
 0001:000376a0       ?append@RenderBuffer@Cm@physx@@UEAAXAEBVPxRenderBuffer@3@@Z 00000001800386a0 f i NpScene.obj
 0001:00037a80       ?checkCollision@NpScene@physx@@UEAA_N_N@Z 0000000180038a80 f   NpScene.obj
 0001:00037a90       ?checkQueries@NpScene@physx@@UEAA_N_N@Z 0000000180038a90 f   NpScene.obj
 0001:00037aa0       ?checkResults@NpScene@physx@@UEAA_N_N@Z 0000000180038aa0 f   NpScene.obj
 0001:00037ab0       ?clear@RenderBuffer@Cm@physx@@UEAAXXZ 0000000180038ab0 f i NpScene.obj
 0001:00037ad0       ?collide@NpScene@physx@@UEAAXMPEAVPxBaseTask@2@PEAXI_N@Z 0000000180038ad0 f   NpScene.obj
 0001:00037b10       ?copy@?$Array@UPxDebugPoint@physx@@V?$ReflectionAllocator@UPxDebugPoint@physx@@@shdfnd@2@@shdfnd@physx@@KAXPEAUPxDebugPoint@3@0PEBU43@@Z 0000000180038b10 f i NpScene.obj
 0001:00037c10       ?copy@?$Array@UPxDebugText@physx@@V?$ReflectionAllocator@UPxDebugText@physx@@@shdfnd@2@@shdfnd@physx@@KAXPEAUPxDebugText@3@0PEBU43@@Z 0000000180038c10 f i NpScene.obj
 0001:00037d80       ?copy@?$Array@UPxDebugTriangle@physx@@V?$ReflectionAllocator@UPxDebugTriangle@physx@@@shdfnd@2@@shdfnd@physx@@KAXPEAUPxDebugTriangle@3@0PEBU43@@Z 0000000180038d80 f i NpScene.obj
 0001:00037f80       ?createBatchQuery@NpScene@physx@@UEAAPEAVPxBatchQuery@2@AEBVPxBatchQueryDesc@2@@Z 0000000180038f80 f   NpScene.obj
 0001:00038070       ?createClient@NpScene@physx@@UEAAEXZ 0000000180039070 f   NpScene.obj
 0001:000380a0       ?fetchCollision@NpScene@physx@@UEAA_N_N@Z 00000001800390a0 f   NpScene.obj
 0001:00038110       ?fetchQueries@NpScene@physx@@UEAA_N_N@Z 0000000180039110 f   NpScene.obj
 0001:000381c0       ?fetchResults@NpScene@physx@@UEAA_N_NPEAI@Z 00000001800391c0 f   NpScene.obj
 0001:00038290       ?fetchResultsFinish@NpScene@physx@@UEAAXPEAI@Z 0000000180039290 f   NpScene.obj
 0001:000382f0       ?fetchResultsPostContactCallbacks@NpScene@physx@@AEAAXXZ 00000001800392f0 f   NpScene.obj
 0001:00038400       ?fetchResultsPreContactCallbacks@NpScene@physx@@AEAAXXZ 0000000180039400 f   NpScene.obj
 0001:00038530       ?fetchResultsStart@NpScene@physx@@UEAA_NAEAPEBUPxContactPairHeader@2@AEAI_N@Z 0000000180039530 f   NpScene.obj
 0001:00038610       ?find@SqRefFinder@@UEAAIPEBVPxRigidBody@physx@@PEBVPxShape@3@@Z 0000000180039610 f i NpScene.obj
 0001:00038640       ?flushQueryUpdates@NpScene@physx@@UEAAXXZ 0000000180039640 f   NpScene.obj
 0001:00038680       ?flushSimulation@NpScene@physx@@UEAAX_N@Z 0000000180039680 f   NpScene.obj
 0001:000387b0       ?forceDynamicTreeRebuild@NpScene@physx@@UEAAX_N0@Z 00000001800397b0 f   NpScene.obj
 0001:000387f0       ?forceSceneQueryRebuild@NpScene@physx@@UEAAXXZ 00000001800397f0 f   NpScene.obj
 0001:00038840       ?getActiveActors@NpScene@physx@@UEAAPEAPEAVPxActor@2@AEAI@Z 0000000180039840 f   NpScene.obj
 0001:000388a0       ?getActors@NpScene@physx@@UEBAIV?$PxFlags@W4Enum@PxActorTypeFlag@physx@@G@2@PEAPEAVPxActor@2@II@Z 00000001800398a0 f   NpScene.obj
 0001:000389a0       ?getAggregates@NpScene@physx@@UEBAIPEAPEAVPxAggregate@2@II@Z 00000001800399a0 f   NpScene.obj
 0001:00038a00       ?getArticulations@NpScene@physx@@UEBAIPEAPEAVPxArticulationBase@2@II@Z 0000000180039a00 f   NpScene.obj
 0001:00038a60       ?getBounceThresholdVelocity@NpScene@physx@@UEBAMXZ 0000000180039a60 f   NpScene.obj
 0001:00038a80       ?getBroadPhaseCallback@NpScene@physx@@UEBAPEAVPxBroadPhaseCallback@2@XZ 0000000180039a80 f   NpScene.obj
 0001:00038a90       ?getBroadPhaseCaps@NpScene@physx@@UEBA_NAEAUPxBroadPhaseCaps@2@@Z 0000000180039a90 f   NpScene.obj
 0001:00038aa0       ?getBroadPhaseRegions@NpScene@physx@@UEBAIPEAUPxBroadPhaseRegionInfo@2@II@Z 0000000180039aa0 f   NpScene.obj
 0001:00038ab0       ?getBroadPhaseType@NpScene@physx@@UEBA?AW4Enum@PxBroadPhaseType@2@XZ 0000000180039ab0 f   NpScene.obj
 0001:00038ac0       ?getCCDContactModifyCallback@NpScene@physx@@UEBAPEAVPxCCDContactModifyCallback@2@XZ 0000000180039ac0 f   NpScene.obj
 0001:00038ad0       ?getCCDMaxPasses@NpScene@physx@@UEBAIXZ 0000000180039ad0 f   NpScene.obj
 0001:00038ae0       ?getConstraints@NpScene@physx@@UEBAIPEAPEAVPxConstraint@2@II@Z 0000000180039ae0 f   NpScene.obj
 0001:00038b40       ?getContactModifyCallback@NpScene@physx@@UEBAPEAVPxContactModifyCallback@2@XZ 0000000180039b40 f   NpScene.obj
 0001:00038b50       ?getContactReportStreamBufferSize@NpScene@physx@@UEBAIXZ 0000000180039b50 f   NpScene.obj
 0001:00038b60       ?getCpuDispatcher@NpScene@physx@@UEBAPEAVPxCpuDispatcher@2@XZ 0000000180039b60 f   NpScene.obj
 0001:00038b80       ?getCudaContextManager@NpScene@physx@@UEAAPEAVPxCudaContextManager@2@XZ 0000000180039b80 f i NpScene.obj
 0001:00038b80       ?getCudaContextManager@NpScene@physx@@UEBAPEAVPxCudaContextManager@2@XZ 0000000180039b80 f i NpScene.obj
 0001:00038b90       ?getDominanceGroupPair@NpScene@physx@@UEBA?AUPxDominanceGroupPair@2@EE@Z 0000000180039b90 f   NpScene.obj
 0001:00038c50       ?getDynamicStructure@NpScene@physx@@UEBA?AW4Enum@PxPruningStructureType@2@XZ 0000000180039c50 f   NpScene.obj
 0001:00038c60       ?getDynamicTreeRebuildRateHint@NpScene@physx@@UEBAIXZ 0000000180039c60 f   NpScene.obj
 0001:00038c70       ?getFilterCallback@NpScene@physx@@UEBAPEAVPxSimulationFilterCallback@2@XZ 0000000180039c70 f   NpScene.obj
 0001:00038c80       ?getFilterShader@NpScene@physx@@UEBAP6A?AV?$PxFlags@W4Enum@PxFilterFlag@physx@@G@2@IUPxFilterData@2@I0AEAV?$PxFlags@W4Enum@PxPairFlag@physx@@G@2@PEBXI@ZXZ 0000000180039c80 f   NpScene.obj
 0001:00038c90       ?getFilterShaderData@NpScene@physx@@UEBAPEBXXZ 0000000180039c90 f   NpScene.obj
 0001:00038ca0       ?getFilterShaderDataSize@NpScene@physx@@UEBAIXZ 0000000180039ca0 f   NpScene.obj
 0001:00038cb0       ?getFlags@NpScene@physx@@UEBA?AV?$PxFlags@W4Enum@PxSceneFlag@physx@@I@2@XZ 0000000180039cb0 f   NpScene.obj
 0001:00038ce0       ?getFrictionOffsetThreshold@NpScene@physx@@UEBAMXZ 0000000180039ce0 f   NpScene.obj
 0001:00038cf0       ?getFrictionType@NpScene@physx@@UEBA?AW4Enum@PxFrictionType@2@XZ 0000000180039cf0 f   NpScene.obj
 0001:00038d00       ?getFrozenActors@NpScene@physx@@UEAAPEAPEAVPxActor@2@AEAI@Z 0000000180039d00 f   NpScene.obj
 0001:00038d60       ?getGravity@NpScene@physx@@UEBA?AVPxVec3@2@XZ 0000000180039d60 f   NpScene.obj
 0001:00038dc0       ?getKinematicKinematicFilteringMode@NpScene@physx@@UEBA?AW4Enum@PxPairFilteringMode@2@XZ 0000000180039dc0 f   NpScene.obj
 0001:00038dd0       ?getLimits@NpScene@physx@@UEBA?AVPxSceneLimits@2@XZ 0000000180039dd0 f   NpScene.obj
 0001:00038df0       ?getMaxNbContactDataBlocksUsed@NpScene@physx@@UEBAIXZ 0000000180039df0 f   NpScene.obj
 0001:00038e00       ?getName@?$DelegateTask@VAABBManager@Bp@physx@@$1?postBpStage3@123@AEAAXPEAVPxBaseTask@3@@Z@Cm@physx@@UEBAPEBDXZ 0000000180039e00 f i LowLevelAABB_static_64:BpAABBManager.obj
 0001:00038e00       ?getName@?$DelegateTask@VNPhaseCore@Sc@physx@@$1?mergeProcessedTriggerInteractions@123@QEAAXPEAVPxBaseTask@3@@Z@Cm@physx@@UEBAPEBDXZ 0000000180039e00 f i SimulationController_static_64:ScNPhaseCore.obj
 0001:00038e00       ?getName@?$DelegateTask@VNpScene@physx@@$H?executeAdvance@12@QEAAXPEAVPxBaseTask@2@@ZA@@Cm@physx@@UEBAPEBDXZ 0000000180039e00 f i NpScene.obj
 0001:00038e00       ?getName@?$DelegateTask@VNpScene@physx@@$H?executeCollide@12@QEAAXPEAVPxBaseTask@2@@ZA@@Cm@physx@@UEBAPEBDXZ 0000000180039e00 f i NpScene.obj
 0001:00038e00       ?getName@?$DelegateTask@VNpScene@physx@@$H?executeScene@12@QEAAXPEAVPxBaseTask@2@@ZA@@Cm@physx@@UEBAPEBDXZ 0000000180039e00 f i NpScene.obj
 0001:00038e00       ?getName@?$DelegateTask@VNpSceneQueries@physx@@$1?sceneQueriesDynamicPrunerUpdate@12@QEAAXPEAVPxBaseTask@2@@Z@Cm@physx@@UEBAPEBDXZ 0000000180039e00 f i NpScene.obj
 0001:00038e00       ?getName@?$DelegateTask@VNpSceneQueries@physx@@$1?sceneQueriesStaticPrunerUpdate@12@QEAAXPEAVPxBaseTask@2@@Z@Cm@physx@@UEBAPEBDXZ 0000000180039e00 f i NpScene.obj
 0001:00038e00       ?getName@?$DelegateTask@VPxsCCDContext@physx@@$1?postCCDAdvance@12@AEAAXPEAVPxBaseTask@2@@Z@Cm@physx@@UEBAPEBDXZ 0000000180039e00 f i LowLevel_static_64:PxsCCD.obj
 0001:00038e00       ?getName@?$DelegateTask@VPxsCCDContext@physx@@$1?postCCDDepenetrate@12@AEAAXPEAVPxBaseTask@2@@Z@Cm@physx@@UEBAPEBDXZ 0000000180039e00 f i LowLevel_static_64:PxsCCD.obj
 0001:00038e00       ?getName@?$DelegateTask@VPxsCCDContext@physx@@$1?postCCDSweep@12@AEAAXPEAVPxBaseTask@2@@Z@Cm@physx@@UEBAPEBDXZ 0000000180039e00 f i LowLevel_static_64:PxsCCD.obj
 0001:00038e00       ?getName@?$DelegateTask@VScene@Sc@physx@@$1?advanceStep@123@AEAAXPEAVPxBaseTask@3@@Z@Cm@physx@@UEBAPEBDXZ 0000000180039e00 f i SimulationController_static_64:ScScene.obj
 0001:00038e00       ?getName@?$DelegateTask@VScene@Sc@physx@@$1?afterIntegration@123@AEAAXPEAVPxBaseTask@3@@Z@Cm@physx@@UEBAPEBDXZ 0000000180039e00 f i SimulationController_static_64:ScScene.obj
 0001:00038e00       ?getName@?$DelegateTask@VScene@Sc@physx@@$1?broadPhase@123@AEAAXPEAVPxBaseTask@3@@Z@Cm@physx@@UEBAPEBDXZ 0000000180039e00 f i SimulationController_static_64:ScScene.obj
 0001:00038e00       ?getName@?$DelegateTask@VScene@Sc@physx@@$1?ccdBroadPhase@123@AEAAXPEAVPxBaseTask@3@@Z@Cm@physx@@UEBAPEBDXZ 0000000180039e00 f i SimulationController_static_64:ScScene.obj
 0001:00038e00       ?getName@?$DelegateTask@VScene@Sc@physx@@$1?ccdBroadPhaseAABB@123@AEAAXPEAVPxBaseTask@3@@Z@Cm@physx@@UEBAPEBDXZ 0000000180039e00 f i SimulationController_static_64:ScScene.obj
 0001:00038e00       ?getName@?$DelegateTask@VScene@Sc@physx@@$1?collideStep@123@AEAAXPEAVPxBaseTask@3@@Z@Cm@physx@@UEBAPEBDXZ 0000000180039e00 f i SimulationController_static_64:ScScene.obj
 0001:00038e00       ?getName@?$DelegateTask@VScene@Sc@physx@@$1?constraintProjection@123@AEAAXPEAVPxBaseTask@3@@Z@Cm@physx@@UEBAPEBDXZ 0000000180039e00 f i SimulationController_static_64:ScScene.obj
 0001:00038e00       ?getName@?$DelegateTask@VScene@Sc@physx@@$1?destroyManagers@123@AEAAXPEAVPxBaseTask@3@@Z@Cm@physx@@UEBAPEBDXZ 0000000180039e00 f i SimulationController_static_64:ScScene.obj
 0001:00038e00       ?getName@?$DelegateTask@VScene@Sc@physx@@$1?fetchPatchEvents@123@AEAAXPEAVPxBaseTask@3@@Z@Cm@physx@@UEBAPEBDXZ 0000000180039e00 f i SimulationController_static_64:ScScene.obj
 0001:00038e00       ?getName@?$DelegateTask@VScene@Sc@physx@@$1?islandGen@123@AEAAXPEAVPxBaseTask@3@@Z@Cm@physx@@UEBAPEBDXZ 0000000180039e00 f i SimulationController_static_64:ScScene.obj
 0001:00038e00       ?getName@?$DelegateTask@VScene@Sc@physx@@$1?islandInsertion@123@QEAAXPEAVPxBaseTask@3@@Z@Cm@physx@@UEBAPEBDXZ 0000000180039e00 f i SimulationController_static_64:ScScene.obj
 0001:00038e00       ?getName@?$DelegateTask@VScene@Sc@physx@@$1?lostTouchReports@123@AEAAXPEAVPxBaseTask@3@@Z@Cm@physx@@UEBAPEBDXZ 0000000180039e00 f i SimulationController_static_64:ScScene.obj
 0001:00038e00       ?getName@?$DelegateTask@VScene@Sc@physx@@$1?postBroadPhase@123@AEAAXPEAVPxBaseTask@3@@Z@Cm@physx@@UEBAPEBDXZ 0000000180039e00 f i SimulationController_static_64:ScScene.obj
 0001:00038e00       ?getName@?$DelegateTask@VScene@Sc@physx@@$1?postBroadPhaseContinuation@123@AEAAXPEAVPxBaseTask@3@@Z@Cm@physx@@UEBAPEBDXZ 0000000180039e00 f i SimulationController_static_64:ScScene.obj
 0001:00038e00       ?getName@?$DelegateTask@VScene@Sc@physx@@$1?postBroadPhaseStage2@123@AEAAXPEAVPxBaseTask@3@@Z@Cm@physx@@UEBAPEBDXZ 0000000180039e00 f i SimulationController_static_64:ScScene.obj
 0001:00038e00       ?getName@?$DelegateTask@VScene@Sc@physx@@$1?postCCDPass@123@AEAAXPEAVPxBaseTask@3@@Z@Cm@physx@@UEBAPEBDXZ 0000000180039e00 f i SimulationController_static_64:ScScene.obj
 0001:00038e00       ?getName@?$DelegateTask@VScene@Sc@physx@@$1?postIslandGen@123@AEAAXPEAVPxBaseTask@3@@Z@Cm@physx@@UEBAPEBDXZ 0000000180039e00 f i SimulationController_static_64:ScScene.obj
 0001:00038e00       ?getName@?$DelegateTask@VScene@Sc@physx@@$1?postSolver@123@AEAAXPEAVPxBaseTask@3@@Z@Cm@physx@@UEBAPEBDXZ 0000000180039e00 f i SimulationController_static_64:ScScene.obj
 0001:00038e00       ?getName@?$DelegateTask@VScene@Sc@physx@@$1?postThirdPassIslandGen@123@AEAAXPEAVPxBaseTask@3@@Z@Cm@physx@@UEBAPEBDXZ 0000000180039e00 f i SimulationController_static_64:ScScene.obj
 0001:00038e00       ?getName@?$DelegateTask@VScene@Sc@physx@@$1?preRigidBodyNarrowPhase@123@AEAAXPEAVPxBaseTask@3@@Z@Cm@physx@@UEBAPEBDXZ 0000000180039e00 f i SimulationController_static_64:ScScene.obj
 0001:00038e00       ?getName@?$DelegateTask@VScene@Sc@physx@@$1?preallocateContactManagers@123@QEAAXPEAVPxBaseTask@3@@Z@Cm@physx@@UEBAPEBDXZ 0000000180039e00 f i SimulationController_static_64:ScScene.obj
 0001:00038e00       ?getName@?$DelegateTask@VScene@Sc@physx@@$1?processLostContacts2@123@AEAAXPEAVPxBaseTask@3@@Z@Cm@physx@@UEBAPEBDXZ 0000000180039e00 f i SimulationController_static_64:ScScene.obj
 0001:00038e00       ?getName@?$DelegateTask@VScene@Sc@physx@@$1?processLostContacts3@123@AEAAXPEAVPxBaseTask@3@@Z@Cm@physx@@UEBAPEBDXZ 0000000180039e00 f i SimulationController_static_64:ScScene.obj
 0001:00038e00       ?getName@?$DelegateTask@VScene@Sc@physx@@$1?processLostContacts@123@AEAAXPEAVPxBaseTask@3@@Z@Cm@physx@@UEBAPEBDXZ 0000000180039e00 f i SimulationController_static_64:ScScene.obj
 0001:00038e00       ?getName@?$DelegateTask@VScene@Sc@physx@@$1?processLostSolverPatches@123@AEAAXPEAVPxBaseTask@3@@Z@Cm@physx@@UEBAPEBDXZ 0000000180039e00 f i SimulationController_static_64:ScScene.obj
 0001:00038e00       ?getName@?$DelegateTask@VScene@Sc@physx@@$1?processNarrowPhaseLostTouchEvents@123@AEAAXPEAVPxBaseTask@3@@Z@Cm@physx@@UEBAPEBDXZ 0000000180039e00 f i SimulationController_static_64:ScScene.obj
 0001:00038e00       ?getName@?$DelegateTask@VScene@Sc@physx@@$1?processNarrowPhaseLostTouchEventsIslands@123@AEAAXPEAVPxBaseTask@3@@Z@Cm@physx@@UEBAPEBDXZ 0000000180039e00 f i SimulationController_static_64:ScScene.obj
 0001:00038e00       ?getName@?$DelegateTask@VScene@Sc@physx@@$1?registerContactManagers@123@QEAAXPEAVPxBaseTask@3@@Z@Cm@physx@@UEBAPEBDXZ 0000000180039e00 f i SimulationController_static_64:ScScene.obj
 0001:00038e00       ?getName@?$DelegateTask@VScene@Sc@physx@@$1?registerInteractions@123@QEAAXPEAVPxBaseTask@3@@Z@Cm@physx@@UEBAPEBDXZ 0000000180039e00 f i SimulationController_static_64:ScScene.obj
 0001:00038e00       ?getName@?$DelegateTask@VScene@Sc@physx@@$1?registerSceneInteractions@123@QEAAXPEAVPxBaseTask@3@@Z@Cm@physx@@UEBAPEBDXZ 0000000180039e00 f i SimulationController_static_64:ScScene.obj
 0001:00038e00       ?getName@?$DelegateTask@VScene@Sc@physx@@$1?rigidBodyNarrowPhase@123@AEAAXPEAVPxBaseTask@3@@Z@Cm@physx@@UEBAPEBDXZ 0000000180039e00 f i SimulationController_static_64:ScScene.obj
 0001:00038e00       ?getName@?$DelegateTask@VScene@Sc@physx@@$1?secondPassNarrowPhase@123@QEAAXPEAVPxBaseTask@3@@Z@Cm@physx@@UEBAPEBDXZ 0000000180039e00 f i SimulationController_static_64:ScScene.obj
 0001:00038e00       ?getName@?$DelegateTask@VScene@Sc@physx@@$1?setEdgesConnected@123@AEAAXPEAVPxBaseTask@3@@Z@Cm@physx@@UEBAPEBDXZ 0000000180039e00 f i SimulationController_static_64:ScScene.obj
 0001:00038e00       ?getName@?$DelegateTask@VScene@Sc@physx@@$1?solver@123@AEAAXPEAVPxBaseTask@3@@Z@Cm@physx@@UEBAPEBDXZ 0000000180039e00 f i SimulationController_static_64:ScScene.obj
 0001:00038e00       ?getName@?$DelegateTask@VScene@Sc@physx@@$1?unblockNarrowPhase@123@AEAAXPEAVPxBaseTask@3@@Z@Cm@physx@@UEBAPEBDXZ 0000000180039e00 f i SimulationController_static_64:ScScene.obj
 0001:00038e00       ?getName@?$DelegateTask@VScene@Sc@physx@@$1?unregisterInteractions@123@AEAAXPEAVPxBaseTask@3@@Z@Cm@physx@@UEBAPEBDXZ 0000000180039e00 f i SimulationController_static_64:ScScene.obj
 0001:00038e00       ?getName@?$DelegateTask@VScene@Sc@physx@@$1?updateBodiesAndShapes@123@AEAAXPEAVPxBaseTask@3@@Z@Cm@physx@@UEBAPEBDXZ 0000000180039e00 f i SimulationController_static_64:ScScene.obj
 0001:00038e00       ?getName@?$DelegateTask@VScene@Sc@physx@@$1?updateCCDMultiPass@123@AEAAXPEAVPxBaseTask@3@@Z@Cm@physx@@UEBAPEBDXZ 0000000180039e00 f i SimulationController_static_64:ScScene.obj
 0001:00038e00       ?getName@?$DelegateTask@VScene@Sc@physx@@$1?updateCCDSinglePass@123@AEAAXPEAVPxBaseTask@3@@Z@Cm@physx@@UEBAPEBDXZ 0000000180039e00 f i SimulationController_static_64:ScScene.obj
 0001:00038e00       ?getName@?$DelegateTask@VScene@Sc@physx@@$1?updateCCDSinglePassStage2@123@AEAAXPEAVPxBaseTask@3@@Z@Cm@physx@@UEBAPEBDXZ 0000000180039e00 f i SimulationController_static_64:ScScene.obj
 0001:00038e00       ?getName@?$DelegateTask@VScene@Sc@physx@@$1?updateCCDSinglePassStage3@123@AEAAXPEAVPxBaseTask@3@@Z@Cm@physx@@UEBAPEBDXZ 0000000180039e00 f i SimulationController_static_64:ScScene.obj
 0001:00038e00       ?getName@?$DelegateTask@VScene@Sc@physx@@$1?updateDynamics@123@AEAAXPEAVPxBaseTask@3@@Z@Cm@physx@@UEBAPEBDXZ 0000000180039e00 f i SimulationController_static_64:ScScene.obj
 0001:00038e00       ?getName@?$DelegateTask@VScene@Sc@physx@@$1?updateSimulationController@123@AEAAXPEAVPxBaseTask@3@@Z@Cm@physx@@UEBAPEBDXZ 0000000180039e00 f i SimulationController_static_64:ScScene.obj
 0001:00038e10       ?getName@NpContactCallbackTask@physx@@UEBAPEBDXZ 0000000180039e10 f i NpScene.obj
 0001:00038e20       ?getName@SceneCompletion@NpScene@physx@@UEBAPEBDXZ 0000000180039e20 f i NpScene.obj
 0001:00038e30       ?getNbActors@NpScene@physx@@UEBAIV?$PxFlags@W4Enum@PxActorTypeFlag@physx@@G@2@@Z 0000000180039e30 f   NpScene.obj
 0001:00038ed0       ?getNbAggregates@NpScene@physx@@UEBAIXZ 0000000180039ed0 f   NpScene.obj
 0001:00038ee0       ?getNbArticulations@NpScene@physx@@UEBAIXZ 0000000180039ee0 f   NpScene.obj
 0001:00038ef0       ?getNbBroadPhaseRegions@NpScene@physx@@UEBAIXZ 0000000180039ef0 f   NpScene.obj
 0001:00038f00       ?getNbConstraints@NpScene@physx@@UEBAIXZ 0000000180039f00 f   NpScene.obj
 0001:00038f10       ?getNbContactDataBlocksUsed@NpScene@physx@@UEBAIXZ 0000000180039f10 f   NpScene.obj
 0001:00038f20       ?getRenderBuffer@NpScene@physx@@UEAAAEBVPxRenderBuffer@2@XZ 0000000180039f20 f   NpScene.obj
 0001:00038f80       ?getSceneQueryStaticTimestamp@NpScene@physx@@UEBAIXZ 0000000180039f80 f   NpScene.obj
 0001:00038f90       ?getSceneQueryUpdateMode@NpScene@physx@@UEBA?AW4Enum@PxSceneQueryUpdateMode@2@XZ 0000000180039f90 f   NpScene.obj
 0001:00038fa0       ?getSimulationController@NpScene@physx@@UEAAPEAVPxsSimulationController@2@XZ 0000000180039fa0 f   NpScene.obj
 0001:00038fb0       ?getSimulationEventCallback@NpScene@physx@@UEBAPEAVPxSimulationEventCallback@2@XZ 0000000180039fb0 f   NpScene.obj
 0001:00038fc0       ?getSimulationStatistics@NpScene@physx@@UEBAXAEAVPxSimulationStatistics@2@@Z 0000000180039fc0 f   NpScene.obj
 0001:00039010       ?getSolverArticulationBatchSize@NpScene@physx@@UEBAIXZ 000000018003a010 f   NpScene.obj
 0001:00039030       ?getSolverBatchSize@NpScene@physx@@UEBAIXZ 000000018003a030 f   NpScene.obj
 0001:00039050       ?getStaticKinematicFilteringMode@NpScene@physx@@UEBA?AW4Enum@PxPairFilteringMode@2@XZ 000000018003a050 f   NpScene.obj
 0001:00039060       ?getStaticStructure@NpScene@physx@@UEBA?AW4Enum@PxPruningStructureType@2@XZ 000000018003a060 f   NpScene.obj
 0001:00039070       ?getTaskManager@NpScene@physx@@UEAAPEAVPxTaskManager@2@XZ 000000018003a070 f i NpScene.obj
 0001:00039070       ?getTaskManager@NpScene@physx@@UEBAPEAVPxTaskManager@2@XZ 000000018003a070 f i NpScene.obj
 0001:00039080       ?getTimestamp@NpScene@physx@@UEBAIXZ 000000018003a080 f   NpScene.obj
 0001:00039090       ?getVisualizationCullingBox@NpScene@physx@@UEBA?AVPxBounds3@2@XZ 000000018003a090 f   NpScene.obj
 0001:000390e0       ?getVisualizationParameter@NpScene@physx@@UEBAMW4Enum@PxVisualizationParameter@2@@Z 000000018003a0e0 f   NpScene.obj
 0001:00039150       ?getWakeCounterResetValue@NpScene@physx@@UEBAMXZ 000000018003a150 f   NpScene.obj
 0001:00039160       ?growAndPushBack@?$Array@PEAEV?$ReflectionAllocator@PEAE@shdfnd@physx@@@shdfnd@physx@@IEAAAEAPEAEAEBQEAE@Z 000000018003a160 f i NpScene.obj
 0001:00039280       ?growAndPushBack@?$Array@PEAVNpBatchQuery@physx@@V?$ReflectionAllocator@PEAVNpBatchQuery@physx@@@shdfnd@2@@shdfnd@physx@@IEAAAEAPEAVNpBatchQuery@3@AEBQEAV43@@Z 000000018003a280 f i NpScene.obj
 0001:000393a0       ?growAndPushBack@?$Array@PEAVPxRigidActor@physx@@V?$ReflectionAllocator@PEAVPxRigidActor@physx@@@shdfnd@2@@shdfnd@physx@@IEAAAEAPEAVPxRigidActor@3@AEBQEAV43@@Z 000000018003a3a0 f i NpScene.obj
 0001:00039460       ?growAndPushBack@?$Array@PEAXV?$ReflectionAllocator@U?$Block@E$0BAA@@Scene@Sc@physx@@@shdfnd@physx@@@shdfnd@physx@@IEAAAEAPEAXAEBQEAX@Z 000000018003a460 f i NpScene.obj
 0001:00039530       ?growAndPushBack@?$Array@PEAXV?$ReflectionAllocator@U?$Block@E$0BIA@@Scene@Sc@physx@@@shdfnd@physx@@@shdfnd@physx@@IEAAAEAPEAXAEBQEAX@Z 000000018003a530 f i NpScene.obj
 0001:00039600       ?growAndPushBack@?$Array@PEAXV?$ReflectionAllocator@U?$Block@E$0IA@@Scene@Sc@physx@@@shdfnd@physx@@@shdfnd@physx@@IEAAAEAPEAXAEBQEAX@Z 000000018003a600 f i NpScene.obj
 0001:000396d0       ?growAndPushBack@?$Array@PEAXV?$ReflectionAllocator@U?$Block@PEAX$07@Scene@Sc@physx@@@shdfnd@physx@@@shdfnd@physx@@IEAAAEAPEAXAEBQEAX@Z 000000018003a6d0 f i NpScene.obj
 0001:000397a0       ?growAndPushBack@?$Array@PEAXV?$ReflectionAllocator@U?$Block@PEAX$0BA@@Scene@Sc@physx@@@shdfnd@physx@@@shdfnd@physx@@IEAAAEAPEAXAEBQEAX@Z 000000018003a7a0 f i NpScene.obj
 0001:00039870       ?growAndPushBack@?$Array@PEAXV?$ReflectionAllocator@U?$Block@PEAX$0CA@@Scene@Sc@physx@@@shdfnd@physx@@@shdfnd@physx@@IEAAAEAPEAXAEBQEAX@Z 000000018003a870 f i NpScene.obj
 0001:00039940       ?growAndPushBack@?$Array@UPxDebugLine@physx@@V?$ReflectionAllocator@UPxDebugLine@physx@@@shdfnd@2@@shdfnd@physx@@IEAAAEAUPxDebugLine@3@AEBU43@@Z 000000018003a940 f i NpScene.obj
 0001:00039a10       ?growAndPushBack@?$Array@UPxDebugPoint@physx@@V?$ReflectionAllocator@UPxDebugPoint@physx@@@shdfnd@2@@shdfnd@physx@@IEAAAEAUPxDebugPoint@3@AEBU43@@Z 000000018003aa10 f i NpScene.obj
 0001:00039ad0       ?growAndPushBack@?$Array@UPxDebugText@physx@@V?$ReflectionAllocator@UPxDebugText@physx@@@shdfnd@2@@shdfnd@physx@@IEAAAEAUPxDebugText@3@AEBU43@@Z 000000018003aad0 f i NpScene.obj
 0001:00039ba0       ?growAndPushBack@?$Array@UPxDebugTriangle@physx@@V?$ReflectionAllocator@UPxDebugTriangle@physx@@@shdfnd@2@@shdfnd@physx@@IEAAAEAUPxDebugTriangle@3@AEBU43@@Z 000000018003aba0 f i NpScene.obj
 0001:00039ca0       ?isAddedShape@RigidObject@Scb@physx@@QEAA_NAEAVShape@23@@Z 000000018003aca0 f i NpScene.obj
 0001:00039d30       ?loadFromDesc@NpScene@physx@@QEAA_NAEBVPxSceneDesc@2@@Z 000000018003ad30 f   NpScene.obj
 0001:00039da0       ?lockRead@NpScene@physx@@UEAAXPEBDI@Z 000000018003ada0 f   NpScene.obj
 0001:00039e30       ?lockWrite@NpScene@physx@@UEAAXPEBDI@Z 000000018003ae30 f   NpScene.obj
 0001:00039f20       ?processCallbacks@NpScene@physx@@UEAAXPEAVPxBaseTask@2@@Z 000000018003af20 f   NpScene.obj
 0001:0003a140       ?recreate@?$Array@GV?$ReflectionAllocator@G@shdfnd@physx@@@shdfnd@physx@@IEAAXI@Z 000000018003b140 f i NpScene.obj
 0001:0003a200       ?recreate@?$Array@PEAVActor@Scb@physx@@V?$ReflectionAllocator@PEAVActor@Scb@physx@@@shdfnd@3@@shdfnd@physx@@IEAAXI@Z 000000018003b200 f i NpScene.obj
 0001:0003a310       ?recreate@?$Array@PEAVPxRigidActor@physx@@V?$ReflectionAllocator@PEAVPxRigidActor@physx@@@shdfnd@2@@shdfnd@physx@@IEAAXI@Z 000000018003b310 f i NpScene.obj
 0001:0003a3b0       ?recreate@?$Array@PEAVShape@Scb@physx@@V?$ReflectionAllocator@PEAVShape@Scb@physx@@@shdfnd@3@@shdfnd@physx@@IEAAXI@Z 000000018003b3b0 f i NpScene.obj
 0001:0003a470       ?recreate@?$Array@UPxDebugPoint@physx@@V?$ReflectionAllocator@UPxDebugPoint@physx@@@shdfnd@2@@shdfnd@physx@@IEAAXI@Z 000000018003b470 f i NpScene.obj
 0001:0003a4f0       ?recreate@?$Array@UPxDebugText@physx@@V?$ReflectionAllocator@UPxDebugText@physx@@@shdfnd@2@@shdfnd@physx@@IEAAXI@Z 000000018003b4f0 f i NpScene.obj
 0001:0003a570       ?recreate@?$Array@UPxDebugTriangle@physx@@V?$ReflectionAllocator@UPxDebugTriangle@physx@@@shdfnd@2@@shdfnd@physx@@IEAAXI@Z 000000018003b570 f i NpScene.obj
 0001:0003a5f0       ?recreate@?$Array@VPxBounds3@physx@@V?$InlineAllocator@$0MA@V?$ReflectionAllocator@VPxBounds3@physx@@@shdfnd@physx@@@shdfnd@2@@shdfnd@physx@@IEAAXI@Z 000000018003b5f0 f i NpScene.obj
 0001:0003a7b0       ?release@NpScene@physx@@UEAAXXZ 000000018003b7b0 f   NpScene.obj
 0001:0003a880       ?release@PxLightCpuTask@physx@@UEAAXXZ 000000018003b880 f i NpScene.obj
 0001:0003a8a0       ?release@SceneCompletion@NpScene@physx@@UEAAXXZ 000000018003b8a0 f i NpScene.obj
 0001:0003a8d0       ?releaseBatchQuery@NpScene@physx@@QEAAXPEAVPxBatchQuery@2@@Z 000000018003b8d0 f   NpScene.obj
 0001:0003a930       ?removeActor@NpScene@physx@@UEAAXAEAVPxActor@2@_N@Z 000000018003b930 f   NpScene.obj
 0001:0003a9c0       ?removeActorInternal@NpScene@physx@@QEAAXAEAVPxActor@2@_N1@Z 000000018003b9c0 f   NpScene.obj
 0001:0003ac20       ?removeActors@NpScene@physx@@UEAAXPEBQEAVPxActor@2@I_N@Z 000000018003bc20 f   NpScene.obj
 0001:0003b090       ?removeAggregate@NpScene@physx@@UEAAXAEAVPxAggregate@2@_N@Z 000000018003c090 f   NpScene.obj
 0001:0003b260       ?removeArticulation@NpScene@physx@@UEAAXAEAVPxArticulationBase@2@_N@Z 000000018003c260 f   NpScene.obj
 0001:0003b2f0       ?removeArticulationInternal@NpScene@physx@@QEAAXAEAVPxArticulationBase@2@_N1@Z 000000018003c2f0 f   NpScene.obj
 0001:0003b5c0       ?removeBroadPhaseRegion@NpScene@physx@@UEAA_NI@Z 000000018003c5c0 f   NpScene.obj
 0001:0003b5d0       ?removeFromRigidActorList@NpScene@physx@@QEAAXAEBI@Z 000000018003c5d0 f   NpScene.obj
 0001:0003b650       ?removeMaterial@NpScene@physx@@QEAAXAEBVNpMaterial@2@@Z 000000018003c650 f   NpScene.obj
 0001:0003b660       ?removeReference@PxLightCpuTask@physx@@UEAAXXZ 000000018003c660 f i NpScene.obj
 0001:0003b680       ?resetFiltering@?$NpRigidActorTemplate@VPxArticulationLink@physx@@@physx@@QEAA_NAEAVRigidObject@Scb@2@PEBQEAVPxShape@2@I@Z 000000018003c680 f i NpScene.obj
 0001:0003b680       ?resetFiltering@?$NpRigidActorTemplate@VPxRigidDynamic@physx@@@physx@@QEAA_NAEAVRigidObject@Scb@2@PEBQEAVPxShape@2@I@Z 000000018003c680 f i NpScene.obj
 0001:0003b680       ?resetFiltering@?$NpRigidActorTemplate@VPxRigidStatic@physx@@@physx@@QEAA_NAEAVRigidObject@Scb@2@PEBQEAVPxShape@2@I@Z 000000018003c680 f i NpScene.obj
 0001:0003b800       ?resetFiltering@NpScene@physx@@UEAAXAEAVPxActor@2@@Z 000000018003c800 f   NpScene.obj
 0001:0003b910       ?resetFiltering@NpScene@physx@@UEAAXAEAVPxRigidActor@2@PEBQEAVPxShape@2@I@Z 000000018003c910 f   NpScene.obj
 0001:0003b9f0       ?resetFiltering@RigidObject@Scb@physx@@QEAAXPEBQEAVShape@23@I@Z 000000018003c9f0 f i NpScene.obj
 0001:0003bc90       ?resize@?$Array@GV?$ReflectionAllocator@G@shdfnd@physx@@@shdfnd@physx@@QEAAXIAEBG@Z 000000018003cc90 f i NpScene.obj
 0001:0003bd50       ?resize@?$Array@PEAVActor@Scb@physx@@V?$ReflectionAllocator@PEAVActor@Scb@physx@@@shdfnd@3@@shdfnd@physx@@QEAAXIAEBQEAVActor@Scb@3@@Z 000000018003cd50 f i NpScene.obj
 0001:0003be10       ?resize@?$Array@PEAVShape@Scb@physx@@V?$ReflectionAllocator@PEAVShape@Scb@physx@@@shdfnd@3@@shdfnd@physx@@QEAAXIAEBQEAVShape@Scb@3@@Z 000000018003ce10 f i NpScene.obj
 0001:0003bed0       ?resizeUninitialized@?$Array@VPxBounds3@physx@@V?$InlineAllocator@$0MA@V?$ReflectionAllocator@VPxBounds3@physx@@@shdfnd@physx@@@shdfnd@2@@shdfnd@physx@@QEAAXI@Z 000000018003ced0 f i NpScene.obj
 0001:0003bf20       ?run@NpContactCallbackTask@physx@@UEAAXXZ 000000018003cf20 f   NpScene.obj
 0001:0003bfb0       ?run@BaseTask@Cm@physx@@UEAAXXZ 000000018003cfb0 f i SimulationController_static_64:ScScene.obj
 0001:0003bfb0       ?run@Task@Cm@physx@@UEAAXXZ 000000018003cfb0 f i NpScene.obj
 0001:0003bff0       ?runInternal@?$DelegateTask@VNpScene@physx@@$H?executeAdvance@12@QEAAXPEAVPxBaseTask@2@@ZA@@Cm@physx@@UEAAXXZ 000000018003cff0 f i NpScene.obj
 0001:0003c010       ?runInternal@?$DelegateTask@VNpScene@physx@@$H?executeCollide@12@QEAAXPEAVPxBaseTask@2@@ZA@@Cm@physx@@UEAAXXZ 000000018003d010 f i NpScene.obj
 0001:0003c030       ?runInternal@?$DelegateTask@VNpScene@physx@@$H?executeScene@12@QEAAXPEAVPxBaseTask@2@@ZA@@Cm@physx@@UEAAXXZ 000000018003d030 f i NpScene.obj
 0001:0003c050       ?runInternal@?$DelegateTask@VNpSceneQueries@physx@@$1?sceneQueriesDynamicPrunerUpdate@12@QEAAXPEAVPxBaseTask@2@@Z@Cm@physx@@UEAAXXZ 000000018003d050 f i NpScene.obj
 0001:0003c060       ?runInternal@?$DelegateTask@VNpSceneQueries@physx@@$1?sceneQueriesStaticPrunerUpdate@12@QEAAXPEAVPxBaseTask@2@@Z@Cm@physx@@UEAAXXZ 000000018003d060 f i NpScene.obj
 0001:0003c070       ?sceneQueriesUpdate@NpScene@physx@@UEAAXPEAVPxBaseTask@2@_N@Z 000000018003d070 f   NpScene.obj
 0001:0003c240       ?setActiveActors@NpScene@physx@@UEAAXPEAPEAVPxActor@2@I@Z 000000018003d240 f   NpScene.obj
 0001:0003c250       ?setBounceThresholdVelocity@NpScene@physx@@UEAAXM@Z 000000018003d250 f   NpScene.obj
 0001:0003c280       ?setBroadPhaseCallback@NpScene@physx@@UEAAXPEAVPxBroadPhaseCallback@2@@Z 000000018003d280 f   NpScene.obj
 0001:0003c2d0       ?setCCDContactModifyCallback@NpScene@physx@@UEAAXPEAVPxCCDContactModifyCallback@2@@Z 000000018003d2d0 f   NpScene.obj
 0001:0003c320       ?setCCDMaxPasses@NpScene@physx@@UEAAXI@Z 000000018003d320 f   NpScene.obj
 0001:0003c370       ?setContactModifyCallback@NpScene@physx@@UEAAXPEAVPxContactModifyCallback@2@@Z 000000018003d370 f   NpScene.obj
 0001:0003c3c0       ?setDominanceGroupPair@NpScene@physx@@UEAAXEEAEBUPxDominanceGroupPair@2@@Z 000000018003d3c0 f   NpScene.obj
 0001:0003c490       ?setDynamicTreeRebuildRateHint@NpScene@physx@@UEAAXI@Z 000000018003d490 f   NpScene.obj
 0001:0003c4a0       ?setFilterShaderData@NpScene@physx@@UEAAXPEBXI@Z 000000018003d4a0 f   NpScene.obj
 0001:0003c4f0       ?setFlag@NpScene@physx@@UEAAXW4Enum@PxSceneFlag@2@_N@Z 000000018003d4f0 f   NpScene.obj
 0001:0003c580       ?setFrictionType@NpScene@physx@@UEAAXW4Enum@PxFrictionType@2@@Z 000000018003d580 f   NpScene.obj
 0001:0003c590       ?setFrozenActorFlag@NpScene@physx@@UEAAX_N@Z 000000018003d590 f   NpScene.obj
 0001:0003c5a0       ?setGravity@NpScene@physx@@UEAAXAEBVPxVec3@2@@Z 000000018003d5a0 f   NpScene.obj
 0001:0003c600       ?setLimits@NpScene@physx@@UEAAXAEBVPxSceneLimits@2@@Z 000000018003d600 f   NpScene.obj
 0001:0003c680       ?setNbContactDataBlocks@NpScene@physx@@UEAAXI@Z 000000018003d680 f   NpScene.obj
 0001:0003c690       ?setSceneQueryUpdateMode@NpScene@physx@@UEAAXW4Enum@PxSceneQueryUpdateMode@2@@Z 000000018003d690 f   NpScene.obj
 0001:0003c6a0       ?setSimulationEventCallback@NpScene@physx@@UEAAXPEAVPxSimulationEventCallback@2@@Z 000000018003d6a0 f   NpScene.obj
 0001:0003c6f0       ?setSolverArticulationBatchSize@NpScene@physx@@UEAAXI@Z 000000018003d6f0 f   NpScene.obj
 0001:0003c720       ?setSolverBatchSize@NpScene@physx@@UEAAXI@Z 000000018003d720 f   NpScene.obj
 0001:0003c740       ?setVisualizationCullingBox@NpScene@physx@@UEAAXAEBVPxBounds3@2@@Z 000000018003d740 f   NpScene.obj
 0001:0003c790       ?setVisualizationParameter@NpScene@physx@@UEAA_NW4Enum@PxVisualizationParameter@2@M@Z 000000018003d790 f   NpScene.obj
 0001:0003c840       ?shift@RenderBuffer@Cm@physx@@QEAAXAEBVPxVec3@3@@Z 000000018003d840 f i NpScene.obj
 0001:0003ca40       ?shiftOrigin@NpScene@physx@@UEAAXAEBVPxVec3@2@@Z 000000018003da40 f   NpScene.obj
 0001:0003cf10       ?simulate@NpScene@physx@@UEAAXMPEAVPxBaseTask@2@PEAXI_N@Z 000000018003df10 f   NpScene.obj
 0001:0003cf50       ?simulateOrCollide@NpScene@physx@@AEAAXMPEAVPxBaseTask@2@PEAXI_NPEBDW4Enum@SimulationStage@Sc@2@@Z 000000018003df50 f   NpScene.obj
 0001:0003d1f0       ?unlockRead@NpScene@physx@@UEAAXXZ 000000018003e1f0 f   NpScene.obj
 0001:0003d2b0       ?unlockWrite@NpScene@physx@@UEAAXXZ 000000018003e2b0 f   NpScene.obj
 0001:0003d380       ?updateMaterial@NpScene@physx@@QEAAXAEBVNpMaterial@2@@Z 000000018003e380 f   NpScene.obj
 0001:0003d390       ?updateScbStateAndSetupSq@NpScene@physx@@AEAAXAEBVPxRigidActor@2@AEAVActor@Scb@2@AEAVNpShapeManager@2@_NPEBVPxBounds3@2@3@Z 000000018003e390 f   NpScene.obj
 0001:0003d4c0       ?visualize@NpScene@physx@@AEAAXXZ 000000018003e4c0 f   NpScene.obj
 0001:0003d960       ??$multiQuery@UPxOverlapHit@physx@@@NpSceneQueries@physx@@QEBA_NAEBUMultiQueryInput@1@AEAU?$PxHitCallback@UPxOverlapHit@physx@@@1@V?$PxFlags@W4Enum@PxHitFlag@physx@@G@1@PEBUPxQueryCache@1@AEBUPxQueryFilterData@1@PEAVPxQueryFilterCallback@1@PEAUBatchQueryFilterData@1@@Z 000000018003e960 f i NpSceneQueries.obj
 0001:0003dc10       ??$multiQuery@UPxRaycastHit@physx@@@NpSceneQueries@physx@@QEBA_NAEBUMultiQueryInput@1@AEAU?$PxHitCallback@UPxRaycastHit@physx@@@1@V?$PxFlags@W4Enum@PxHitFlag@physx@@G@1@PEBUPxQueryCache@1@AEBUPxQueryFilterData@1@PEAVPxQueryFilterCallback@1@PEAUBatchQueryFilterData@1@@Z 000000018003ec10 f i NpSceneQueries.obj
 0001:0003deb0       ??$multiQuery@UPxSweepHit@physx@@@NpSceneQueries@physx@@QEBA_NAEBUMultiQueryInput@1@AEAU?$PxHitCallback@UPxSweepHit@physx@@@1@V?$PxFlags@W4Enum@PxHitFlag@physx@@G@1@PEBUPxQueryCache@1@AEBUPxQueryFilterData@1@PEAVPxQueryFilterCallback@1@PEAUBatchQueryFilterData@1@@Z 000000018003eeb0 f i NpSceneQueries.obj
 0001:0003e230       ??_E?$MultiQueryCallback@UPxOverlapHit@physx@@@@UEAAPEAXI@Z 000000018003f230 f i NpSceneQueries.obj
 0001:0003e230       ??_E?$MultiQueryCallback@UPxRaycastHit@physx@@@@UEAAPEAXI@Z 000000018003f230 f i NpSceneQueries.obj
 0001:0003e230       ??_E?$MultiQueryCallback@UPxSweepHit@physx@@@@UEAAPEAXI@Z 000000018003f230 f i NpSceneQueries.obj
 0001:0003e230       ??_G?$MultiQueryCallback@UPxOverlapHit@physx@@@@UEAAPEAXI@Z 000000018003f230 f i NpSceneQueries.obj
 0001:0003e230       ??_G?$MultiQueryCallback@UPxRaycastHit@physx@@@@UEAAPEAXI@Z 000000018003f230 f i NpSceneQueries.obj
 0001:0003e230       ??_G?$MultiQueryCallback@UPxSweepHit@physx@@@@UEAAPEAXI@Z 000000018003f230 f i NpSceneQueries.obj
 0001:0003e260       ?invoke@?$MultiQueryCallback@UPxOverlapHit@physx@@@@UEAA_NAEAMAEBUPrunerPayload@Sq@physx@@@Z 000000018003f260 f i NpSceneQueries.obj
 0001:0003e6a0       ?invoke@?$MultiQueryCallback@UPxRaycastHit@physx@@@@UEAA_NAEAMAEBUPrunerPayload@Sq@physx@@@Z 000000018003f6a0 f i NpSceneQueries.obj
 0001:0003edd0       ?invoke@?$MultiQueryCallback@UPxSweepHit@physx@@@@UEAA_NAEAMAEBUPrunerPayload@Sq@physx@@@Z 000000018003fdd0 f i NpSceneQueries.obj
 0001:0003fb70       ?overlap@NpSceneQueries@physx@@UEBA_NAEBVPxGeometry@2@AEBVPxTransform@2@AEAU?$PxHitCallback@UPxOverlapHit@physx@@@2@AEBUPxQueryFilterData@2@PEAVPxQueryFilterCallback@2@@Z 0000000180040b70 f   NpSceneQueries.obj
 0001:0003fc10       ?raycast@NpSceneQueries@physx@@UEBA_NAEBVPxVec3@2@0MAEAU?$PxHitCallback@UPxRaycastHit@physx@@@2@V?$PxFlags@W4Enum@PxHitFlag@physx@@G@2@AEBUPxQueryFilterData@2@PEAVPxQueryFilterCallback@2@PEBUPxQueryCache@2@@Z 0000000180040c10 f   NpSceneQueries.obj
 0001:0003fce0       ?sceneQueriesDynamicPrunerUpdate@NpSceneQueries@physx@@QEAAXPEAVPxBaseTask@2@@Z 0000000180040ce0 f   NpSceneQueries.obj
 0001:0003fd00       ?sceneQueriesStaticPrunerUpdate@NpSceneQueries@physx@@QEAAXPEAVPxBaseTask@2@@Z 0000000180040d00 f   NpSceneQueries.obj
 0001:0003fd10       ?sweep@NpSceneQueries@physx@@UEBA_NAEBVPxGeometry@2@AEBVPxTransform@2@AEBVPxVec3@2@MAEAU?$PxHitCallback@UPxSweepHit@physx@@@2@V?$PxFlags@W4Enum@PxHitFlag@physx@@G@2@AEBUPxQueryFilterData@2@PEAVPxQueryFilterCallback@2@PEBUPxQueryCache@2@M@Z 0000000180040d10 f   NpSceneQueries.obj
 0001:0003ff00       ??_E?$PxSerializerDefaultAdapter@VBV4TriangleMesh@Gu@physx@@@physx@@UEAAPEAXI@Z 0000000180040f00 f i NpSerializerAdapter.obj
 0001:0003ff00       ??_E?$PxSerializerDefaultAdapter@VConvexMesh@Gu@physx@@@physx@@UEAAPEAXI@Z 0000000180040f00 f i NpSerializerAdapter.obj
 0001:0003ff00       ??_E?$PxSerializerDefaultAdapter@VHeightField@Gu@physx@@@physx@@UEAAPEAXI@Z 0000000180040f00 f i NpSerializerAdapter.obj
 0001:0003ff00       ??_E?$PxSerializerDefaultAdapter@VNpAggregate@physx@@@physx@@UEAAPEAXI@Z 0000000180040f00 f i NpSerializerAdapter.obj
 0001:0003ff00       ??_E?$PxSerializerDefaultAdapter@VNpArticulation@physx@@@physx@@UEAAPEAXI@Z 0000000180040f00 f i NpSerializerAdapter.obj
 0001:0003ff00       ??_E?$PxSerializerDefaultAdapter@VNpArticulationJoint@physx@@@physx@@UEAAPEAXI@Z 0000000180040f00 f i NpSerializerAdapter.obj
 0001:0003ff00       ??_E?$PxSerializerDefaultAdapter@VNpArticulationJointReducedCoordinate@physx@@@physx@@UEAAPEAXI@Z 0000000180040f00 f i NpSerializerAdapter.obj
 0001:0003ff00       ??_E?$PxSerializerDefaultAdapter@VNpArticulationLink@physx@@@physx@@UEAAPEAXI@Z 0000000180040f00 f i NpSerializerAdapter.obj
 0001:0003ff00       ??_E?$PxSerializerDefaultAdapter@VNpArticulationReducedCoordinate@physx@@@physx@@UEAAPEAXI@Z 0000000180040f00 f i NpSerializerAdapter.obj
 0001:0003ff00       ??_E?$PxSerializerDefaultAdapter@VNpConstraint@physx@@@physx@@UEAAPEAXI@Z 0000000180040f00 f i NpSerializerAdapter.obj
 0001:0003ff00       ??_E?$PxSerializerDefaultAdapter@VNpMaterial@physx@@@physx@@UEAAPEAXI@Z 0000000180040f00 f i NpSerializerAdapter.obj
 0001:0003ff00       ??_E?$PxSerializerDefaultAdapter@VNpRigidDynamic@physx@@@physx@@UEAAPEAXI@Z 0000000180040f00 f i NpSerializerAdapter.obj
 0001:0003ff00       ??_E?$PxSerializerDefaultAdapter@VNpRigidStatic@physx@@@physx@@UEAAPEAXI@Z 0000000180040f00 f i NpSerializerAdapter.obj
 0001:0003ff00       ??_E?$PxSerializerDefaultAdapter@VNpShape@physx@@@physx@@UEAAPEAXI@Z 0000000180040f00 f i NpSerializerAdapter.obj
 0001:0003ff00       ??_E?$PxSerializerDefaultAdapter@VPruningStructure@Sq@physx@@@physx@@UEAAPEAXI@Z 0000000180040f00 f i NpSerializerAdapter.obj
 0001:0003ff00       ??_E?$PxSerializerDefaultAdapter@VRTreeTriangleMesh@Gu@physx@@@physx@@UEAAPEAXI@Z 0000000180040f00 f i NpSerializerAdapter.obj
 0001:0003ff00       ??_G?$PxSerializerDefaultAdapter@VBV4TriangleMesh@Gu@physx@@@physx@@UEAAPEAXI@Z 0000000180040f00 f i NpSerializerAdapter.obj
 0001:0003ff00       ??_G?$PxSerializerDefaultAdapter@VConvexMesh@Gu@physx@@@physx@@UEAAPEAXI@Z 0000000180040f00 f i NpSerializerAdapter.obj
 0001:0003ff00       ??_G?$PxSerializerDefaultAdapter@VHeightField@Gu@physx@@@physx@@UEAAPEAXI@Z 0000000180040f00 f i NpSerializerAdapter.obj
 0001:0003ff00       ??_G?$PxSerializerDefaultAdapter@VNpAggregate@physx@@@physx@@UEAAPEAXI@Z 0000000180040f00 f i NpSerializerAdapter.obj
 0001:0003ff00       ??_G?$PxSerializerDefaultAdapter@VNpArticulation@physx@@@physx@@UEAAPEAXI@Z 0000000180040f00 f i NpSerializerAdapter.obj
 0001:0003ff00       ??_G?$PxSerializerDefaultAdapter@VNpArticulationJoint@physx@@@physx@@UEAAPEAXI@Z 0000000180040f00 f i NpSerializerAdapter.obj
 0001:0003ff00       ??_G?$PxSerializerDefaultAdapter@VNpArticulationJointReducedCoordinate@physx@@@physx@@UEAAPEAXI@Z 0000000180040f00 f i NpSerializerAdapter.obj
 0001:0003ff00       ??_G?$PxSerializerDefaultAdapter@VNpArticulationLink@physx@@@physx@@UEAAPEAXI@Z 0000000180040f00 f i NpSerializerAdapter.obj
 0001:0003ff00       ??_G?$PxSerializerDefaultAdapter@VNpArticulationReducedCoordinate@physx@@@physx@@UEAAPEAXI@Z 0000000180040f00 f i NpSerializerAdapter.obj
 0001:0003ff00       ??_G?$PxSerializerDefaultAdapter@VNpConstraint@physx@@@physx@@UEAAPEAXI@Z 0000000180040f00 f i NpSerializerAdapter.obj
 0001:0003ff00       ??_G?$PxSerializerDefaultAdapter@VNpMaterial@physx@@@physx@@UEAAPEAXI@Z 0000000180040f00 f i NpSerializerAdapter.obj
 0001:0003ff00       ??_G?$PxSerializerDefaultAdapter@VNpRigidDynamic@physx@@@physx@@UEAAPEAXI@Z 0000000180040f00 f i NpSerializerAdapter.obj
 0001:0003ff00       ??_G?$PxSerializerDefaultAdapter@VNpRigidStatic@physx@@@physx@@UEAAPEAXI@Z 0000000180040f00 f i NpSerializerAdapter.obj
 0001:0003ff00       ??_G?$PxSerializerDefaultAdapter@VNpShape@physx@@@physx@@UEAAPEAXI@Z 0000000180040f00 f i NpSerializerAdapter.obj
 0001:0003ff00       ??_G?$PxSerializerDefaultAdapter@VPruningStructure@Sq@physx@@@physx@@UEAAPEAXI@Z 0000000180040f00 f i NpSerializerAdapter.obj
 0001:0003ff00       ??_G?$PxSerializerDefaultAdapter@VRTreeTriangleMesh@Gu@physx@@@physx@@UEAAPEAXI@Z 0000000180040f00 f i NpSerializerAdapter.obj
 0001:0003ff30       ??_EPxSerializer@physx@@UEAAPEAXI@Z 0000000180040f30 f i NpSerializerAdapter.obj
 0001:0003ff30       ??_GPxSerializer@physx@@UEAAPEAXI@Z 0000000180040f30 f i NpSerializerAdapter.obj
 0001:0003ff60       ??_ERequiresCallback@?1??registerReferences@?$PxSerializerDefaultAdapter@VBV4TriangleMesh@Gu@physx@@@physx@@UEBAXAEAVPxBase@3@AEAVPxSerializationContext@3@@Z@UEAAPEAXI@Z 0000000180040f60 f i NpSerializerAdapter.obj
 0001:0003ff60       ??_ERequiresCallback@?1??registerReferences@?$PxSerializerDefaultAdapter@VConvexMesh@Gu@physx@@@physx@@UEBAXAEAVPxBase@3@AEAVPxSerializationContext@3@@Z@UEAAPEAXI@Z 0000000180040f60 f i NpSerializerAdapter.obj
 0001:0003ff60       ??_ERequiresCallback@?1??registerReferences@?$PxSerializerDefaultAdapter@VHeightField@Gu@physx@@@physx@@UEBAXAEAVPxBase@3@AEAVPxSerializationContext@3@@Z@UEAAPEAXI@Z 0000000180040f60 f i NpSerializerAdapter.obj
 0001:0003ff60       ??_ERequiresCallback@?1??registerReferences@?$PxSerializerDefaultAdapter@VNpAggregate@physx@@@physx@@UEBAXAEAVPxBase@3@AEAVPxSerializationContext@3@@Z@UEAAPEAXI@Z 0000000180040f60 f i NpSerializerAdapter.obj
 0001:0003ff60       ??_ERequiresCallback@?1??registerReferences@?$PxSerializerDefaultAdapter@VNpArticulation@physx@@@physx@@UEBAXAEAVPxBase@3@AEAVPxSerializationContext@3@@Z@UEAAPEAXI@Z 0000000180040f60 f i NpSerializerAdapter.obj
 0001:0003ff60       ??_ERequiresCallback@?1??registerReferences@?$PxSerializerDefaultAdapter@VNpArticulationJoint@physx@@@physx@@UEBAXAEAVPxBase@3@AEAVPxSerializationContext@3@@Z@UEAAPEAXI@Z 0000000180040f60 f i NpSerializerAdapter.obj
 0001:0003ff60       ??_ERequiresCallback@?1??registerReferences@?$PxSerializerDefaultAdapter@VNpArticulationJointReducedCoordinate@physx@@@physx@@UEBAXAEAVPxBase@3@AEAVPxSerializationContext@3@@Z@UEAAPEAXI@Z 0000000180040f60 f i NpSerializerAdapter.obj
 0001:0003ff60       ??_ERequiresCallback@?1??registerReferences@?$PxSerializerDefaultAdapter@VNpArticulationLink@physx@@@physx@@UEBAXAEAVPxBase@3@AEAVPxSerializationContext@3@@Z@UEAAPEAXI@Z 0000000180040f60 f i NpSerializerAdapter.obj
 0001:0003ff60       ??_ERequiresCallback@?1??registerReferences@?$PxSerializerDefaultAdapter@VNpArticulationReducedCoordinate@physx@@@physx@@UEBAXAEAVPxBase@3@AEAVPxSerializationContext@3@@Z@UEAAPEAXI@Z 0000000180040f60 f i NpSerializerAdapter.obj
 0001:0003ff60       ??_ERequiresCallback@?1??registerReferences@?$PxSerializerDefaultAdapter@VNpConstraint@physx@@@physx@@UEBAXAEAVPxBase@3@AEAVPxSerializationContext@3@@Z@UEAAPEAXI@Z 0000000180040f60 f i NpSerializerAdapter.obj
 0001:0003ff60       ??_ERequiresCallback@?1??registerReferences@?$PxSerializerDefaultAdapter@VNpRigidDynamic@physx@@@physx@@UEBAXAEAVPxBase@3@AEAVPxSerializationContext@3@@Z@UEAAPEAXI@Z 0000000180040f60 f i NpSerializerAdapter.obj
 0001:0003ff60       ??_ERequiresCallback@?1??registerReferences@?$PxSerializerDefaultAdapter@VNpRigidStatic@physx@@@physx@@UEBAXAEAVPxBase@3@AEAVPxSerializationContext@3@@Z@UEAAPEAXI@Z 0000000180040f60 f i NpSerializerAdapter.obj
 0001:0003ff60       ??_ERequiresCallback@?1??registerReferences@?$PxSerializerDefaultAdapter@VNpShape@physx@@@physx@@UEBAXAEAVPxBase@3@AEAVPxSerializationContext@3@@Z@UEAAPEAXI@Z 0000000180040f60 f i NpSerializerAdapter.obj
 0001:0003ff60       ??_ERequiresCallback@?1??registerReferences@?$PxSerializerDefaultAdapter@VPruningStructure@Sq@physx@@@physx@@UEBAXAEAVPxBase@3@AEAVPxSerializationContext@3@@Z@UEAAPEAXI@Z 0000000180040f60 f i NpSerializerAdapter.obj
 0001:0003ff60       ??_ERequiresCallback@?1??registerReferences@?$PxSerializerDefaultAdapter@VRTreeTriangleMesh@Gu@physx@@@physx@@UEBAXAEAVPxBase@3@AEAVPxSerializationContext@3@@Z@UEAAPEAXI@Z 0000000180040f60 f i NpSerializerAdapter.obj
 0001:0003ff60       ??_GRequiresCallback@?1??registerReferences@?$PxSerializerDefaultAdapter@VBV4TriangleMesh@Gu@physx@@@physx@@UEBAXAEAVPxBase@3@AEAVPxSerializationContext@3@@Z@UEAAPEAXI@Z 0000000180040f60 f i NpSerializerAdapter.obj
 0001:0003ff60       ??_GRequiresCallback@?1??registerReferences@?$PxSerializerDefaultAdapter@VConvexMesh@Gu@physx@@@physx@@UEBAXAEAVPxBase@3@AEAVPxSerializationContext@3@@Z@UEAAPEAXI@Z 0000000180040f60 f i NpSerializerAdapter.obj
 0001:0003ff60       ??_GRequiresCallback@?1??registerReferences@?$PxSerializerDefaultAdapter@VHeightField@Gu@physx@@@physx@@UEBAXAEAVPxBase@3@AEAVPxSerializationContext@3@@Z@UEAAPEAXI@Z 0000000180040f60 f i NpSerializerAdapter.obj
 0001:0003ff60       ??_GRequiresCallback@?1??registerReferences@?$PxSerializerDefaultAdapter@VNpAggregate@physx@@@physx@@UEBAXAEAVPxBase@3@AEAVPxSerializationContext@3@@Z@UEAAPEAXI@Z 0000000180040f60 f i NpSerializerAdapter.obj
 0001:0003ff60       ??_GRequiresCallback@?1??registerReferences@?$PxSerializerDefaultAdapter@VNpArticulation@physx@@@physx@@UEBAXAEAVPxBase@3@AEAVPxSerializationContext@3@@Z@UEAAPEAXI@Z 0000000180040f60 f i NpSerializerAdapter.obj
 0001:0003ff60       ??_GRequiresCallback@?1??registerReferences@?$PxSerializerDefaultAdapter@VNpArticulationJoint@physx@@@physx@@UEBAXAEAVPxBase@3@AEAVPxSerializationContext@3@@Z@UEAAPEAXI@Z 0000000180040f60 f i NpSerializerAdapter.obj
 0001:0003ff60       ??_GRequiresCallback@?1??registerReferences@?$PxSerializerDefaultAdapter@VNpArticulationJointReducedCoordinate@physx@@@physx@@UEBAXAEAVPxBase@3@AEAVPxSerializationContext@3@@Z@UEAAPEAXI@Z 0000000180040f60 f i NpSerializerAdapter.obj
 0001:0003ff60       ??_GRequiresCallback@?1??registerReferences@?$PxSerializerDefaultAdapter@VNpArticulationLink@physx@@@physx@@UEBAXAEAVPxBase@3@AEAVPxSerializationContext@3@@Z@UEAAPEAXI@Z 0000000180040f60 f i NpSerializerAdapter.obj
 0001:0003ff60       ??_GRequiresCallback@?1??registerReferences@?$PxSerializerDefaultAdapter@VNpArticulationReducedCoordinate@physx@@@physx@@UEBAXAEAVPxBase@3@AEAVPxSerializationContext@3@@Z@UEAAPEAXI@Z 0000000180040f60 f i NpSerializerAdapter.obj
 0001:0003ff60       ??_GRequiresCallback@?1??registerReferences@?$PxSerializerDefaultAdapter@VNpConstraint@physx@@@physx@@UEBAXAEAVPxBase@3@AEAVPxSerializationContext@3@@Z@UEAAPEAXI@Z 0000000180040f60 f i NpSerializerAdapter.obj
 0001:0003ff60       ??_GRequiresCallback@?1??registerReferences@?$PxSerializerDefaultAdapter@VNpRigidDynamic@physx@@@physx@@UEBAXAEAVPxBase@3@AEAVPxSerializationContext@3@@Z@UEAAPEAXI@Z 0000000180040f60 f i NpSerializerAdapter.obj
 0001:0003ff60       ??_GRequiresCallback@?1??registerReferences@?$PxSerializerDefaultAdapter@VNpRigidStatic@physx@@@physx@@UEBAXAEAVPxBase@3@AEAVPxSerializationContext@3@@Z@UEAAPEAXI@Z 0000000180040f60 f i NpSerializerAdapter.obj
 0001:0003ff60       ??_GRequiresCallback@?1??registerReferences@?$PxSerializerDefaultAdapter@VNpShape@physx@@@physx@@UEBAXAEAVPxBase@3@AEAVPxSerializationContext@3@@Z@UEAAPEAXI@Z 0000000180040f60 f i NpSerializerAdapter.obj
 0001:0003ff60       ??_GRequiresCallback@?1??registerReferences@?$PxSerializerDefaultAdapter@VPruningStructure@Sq@physx@@@physx@@UEBAXAEAVPxBase@3@AEAVPxSerializationContext@3@@Z@UEAAPEAXI@Z 0000000180040f60 f i NpSerializerAdapter.obj
 0001:0003ff60       ??_GRequiresCallback@?1??registerReferences@?$PxSerializerDefaultAdapter@VRTreeTriangleMesh@Gu@physx@@@physx@@UEBAXAEAVPxBase@3@AEAVPxSerializationContext@3@@Z@UEAAPEAXI@Z 0000000180040f60 f i NpSerializerAdapter.obj
 0001:0003ff90       ?createObject@?$PxSerializerDefaultAdapter@VBV4TriangleMesh@Gu@physx@@@physx@@UEBAPEAVPxBase@2@AEAPEAEAEAVPxDeserializationContext@2@@Z 0000000180040f90 f i NpSerializerAdapter.obj
 0001:0003ffa0       ?createObject@?$PxSerializerDefaultAdapter@VConvexMesh@Gu@physx@@@physx@@UEBAPEAVPxBase@2@AEAPEAEAEAVPxDeserializationContext@2@@Z 0000000180040fa0 f i NpSerializerAdapter.obj
 0001:0003ffb0       ?createObject@?$PxSerializerDefaultAdapter@VHeightField@Gu@physx@@@physx@@UEBAPEAVPxBase@2@AEAPEAEAEAVPxDeserializationContext@2@@Z 0000000180040fb0 f i NpSerializerAdapter.obj
 0001:0003ffc0       ?createObject@?$PxSerializerDefaultAdapter@VNpAggregate@physx@@@physx@@UEBAPEAVPxBase@2@AEAPEAEAEAVPxDeserializationContext@2@@Z 0000000180040fc0 f i NpSerializerAdapter.obj
 0001:0003ffd0       ?createObject@?$PxSerializerDefaultAdapter@VNpArticulation@physx@@@physx@@UEBAPEAVPxBase@2@AEAPEAEAEAVPxDeserializationContext@2@@Z 0000000180040fd0 f i NpSerializerAdapter.obj
 0001:0003ffe0       ?createObject@?$PxSerializerDefaultAdapter@VNpArticulationJoint@physx@@@physx@@UEBAPEAVPxBase@2@AEAPEAEAEAVPxDeserializationContext@2@@Z 0000000180040fe0 f i NpSerializerAdapter.obj
 0001:0003fff0       ?createObject@?$PxSerializerDefaultAdapter@VNpArticulationJointReducedCoordinate@physx@@@physx@@UEBAPEAVPxBase@2@AEAPEAEAEAVPxDeserializationContext@2@@Z 0000000180040ff0 f i NpSerializerAdapter.obj
 0001:00040000       ?createObject@?$PxSerializerDefaultAdapter@VNpArticulationLink@physx@@@physx@@UEBAPEAVPxBase@2@AEAPEAEAEAVPxDeserializationContext@2@@Z 0000000180041000 f i NpSerializerAdapter.obj
 0001:00040010       ?createObject@?$PxSerializerDefaultAdapter@VNpArticulationReducedCoordinate@physx@@@physx@@UEBAPEAVPxBase@2@AEAPEAEAEAVPxDeserializationContext@2@@Z 0000000180041010 f i NpSerializerAdapter.obj
 0001:00040020       ?createObject@?$PxSerializerDefaultAdapter@VNpConstraint@physx@@@physx@@UEBAPEAVPxBase@2@AEAPEAEAEAVPxDeserializationContext@2@@Z 0000000180041020 f i NpSerializerAdapter.obj
 0001:00040030       ?createObject@?$PxSerializerDefaultAdapter@VNpMaterial@physx@@@physx@@UEBAPEAVPxBase@2@AEAPEAEAEAVPxDeserializationContext@2@@Z 0000000180041030 f i NpSerializerAdapter.obj
 0001:00040040       ?createObject@?$PxSerializerDefaultAdapter@VNpRigidDynamic@physx@@@physx@@UEBAPEAVPxBase@2@AEAPEAEAEAVPxDeserializationContext@2@@Z 0000000180041040 f i NpSerializerAdapter.obj
 0001:00040050       ?createObject@?$PxSerializerDefaultAdapter@VNpRigidStatic@physx@@@physx@@UEBAPEAVPxBase@2@AEAPEAEAEAVPxDeserializationContext@2@@Z 0000000180041050 f i NpSerializerAdapter.obj
 0001:00040060       ?createObject@?$PxSerializerDefaultAdapter@VNpShape@physx@@@physx@@UEBAPEAVPxBase@2@AEAPEAEAEAVPxDeserializationContext@2@@Z 0000000180041060 f i NpSerializerAdapter.obj
 0001:00040070       ?createObject@?$PxSerializerDefaultAdapter@VPruningStructure@Sq@physx@@@physx@@UEBAPEAVPxBase@2@AEAPEAEAEAVPxDeserializationContext@2@@Z 0000000180041070 f i NpSerializerAdapter.obj
 0001:00040080       ?createObject@?$PxSerializerDefaultAdapter@VRTreeTriangleMesh@Gu@physx@@@physx@@UEBAPEAVPxBase@2@AEAPEAEAEAVPxDeserializationContext@2@@Z 0000000180041080 f i NpSerializerAdapter.obj
 0001:00040090       ?exportData@?$PxSerializerDefaultAdapter@VBV4TriangleMesh@Gu@physx@@@physx@@UEBAXAEAVPxBase@2@AEAVPxSerializationContext@2@@Z 0000000180041090 f i NpSerializerAdapter.obj
 0001:00040190       ?exportData@?$PxSerializerDefaultAdapter@VConvexMesh@Gu@physx@@@physx@@UEBAXAEAVPxBase@2@AEAVPxSerializationContext@2@@Z 0000000180041190 f i NpSerializerAdapter.obj
 0001:00040290       ?exportData@?$PxSerializerDefaultAdapter@VHeightField@Gu@physx@@@physx@@UEBAXAEAVPxBase@2@AEAVPxSerializationContext@2@@Z 0000000180041290 f i NpSerializerAdapter.obj
 0001:00040370       ?exportData@?$PxSerializerDefaultAdapter@VNpAggregate@physx@@@physx@@UEBAXAEAVPxBase@2@AEAVPxSerializationContext@2@@Z 0000000180041370 f i NpSerializerAdapter.obj
 0001:00040430       ?exportData@?$PxSerializerDefaultAdapter@VNpArticulation@physx@@@physx@@UEBAXAEAVPxBase@2@AEAVPxSerializationContext@2@@Z 0000000180041430 f i NpSerializerAdapter.obj
 0001:00040430       ?exportData@?$PxSerializerDefaultAdapter@VNpConstraint@physx@@@physx@@UEBAXAEAVPxBase@2@AEAVPxSerializationContext@2@@Z 0000000180041430 f i NpSerializerAdapter.obj
 0001:00040530       ?exportData@?$PxSerializerDefaultAdapter@VNpArticulationJoint@physx@@@physx@@UEBAXAEAVPxBase@2@AEAVPxSerializationContext@2@@Z 0000000180041530 f i NpSerializerAdapter.obj
 0001:00040530       ?exportData@?$PxSerializerDefaultAdapter@VNpArticulationJointReducedCoordinate@physx@@@physx@@UEBAXAEAVPxBase@2@AEAVPxSerializationContext@2@@Z 0000000180041530 f i NpSerializerAdapter.obj
 0001:00040640       ?exportData@?$PxSerializerDefaultAdapter@VNpArticulationLink@physx@@@physx@@UEBAXAEAVPxBase@2@AEAVPxSerializationContext@2@@Z 0000000180041640 f i NpSerializerAdapter.obj
 0001:000407a0       ?exportData@?$PxSerializerDefaultAdapter@VNpArticulationReducedCoordinate@physx@@@physx@@UEBAXAEAVPxBase@2@AEAVPxSerializationContext@2@@Z 00000001800417a0 f i NpSerializerAdapter.obj
 0001:000408b0       ?exportData@?$PxSerializerDefaultAdapter@VNpMaterial@physx@@@physx@@UEBAXAEAVPxBase@2@AEAVPxSerializationContext@2@@Z 00000001800418b0 f i NpSerializerAdapter.obj
 0001:00040970       ?exportData@?$PxSerializerDefaultAdapter@VNpRigidDynamic@physx@@@physx@@UEBAXAEAVPxBase@2@AEAVPxSerializationContext@2@@Z 0000000180041970 f i NpSerializerAdapter.obj
 0001:00040a60       ?exportData@?$PxSerializerDefaultAdapter@VNpRigidStatic@physx@@@physx@@UEBAXAEAVPxBase@2@AEAVPxSerializationContext@2@@Z 0000000180041a60 f i NpSerializerAdapter.obj
 0001:00040b90       ?exportData@?$PxSerializerDefaultAdapter@VNpShape@physx@@@physx@@UEBAXAEAVPxBase@2@AEAVPxSerializationContext@2@@Z 0000000180041b90 f i NpSerializerAdapter.obj
 0001:00040c90       ?exportData@?$PxSerializerDefaultAdapter@VPruningStructure@Sq@physx@@@physx@@UEBAXAEAVPxBase@2@AEAVPxSerializationContext@2@@Z 0000000180041c90 f i NpSerializerAdapter.obj
 0001:00040d50       ?exportData@?$PxSerializerDefaultAdapter@VRTreeTriangleMesh@Gu@physx@@@physx@@UEBAXAEAVPxBase@2@AEAVPxSerializationContext@2@@Z 0000000180041d50 f i NpSerializerAdapter.obj
 0001:00040e40       ?exportExtraData@?$PxSerializerDefaultAdapter@VBV4TriangleMesh@Gu@physx@@@physx@@UEBAXAEAVPxBase@2@AEAVPxSerializationContext@2@@Z 0000000180041e40 f i NpSerializerAdapter.obj
 0001:00040e40       ?exportExtraData@?$PxSerializerDefaultAdapter@VRTreeTriangleMesh@Gu@physx@@@physx@@UEBAXAEAVPxBase@2@AEAVPxSerializationContext@2@@Z 0000000180041e40 f i NpSerializerAdapter.obj
 0001:00040e50       ?exportExtraData@?$PxSerializerDefaultAdapter@VHeightField@Gu@physx@@@physx@@UEBAXAEAVPxBase@2@AEAVPxSerializationContext@2@@Z 0000000180041e50 f i NpSerializerAdapter.obj
 0001:00040e50       ?requiresObjects@?$PxSerializerDefaultAdapter@VNpConstraint@physx@@@physx@@UEBAXAEAVPxBase@2@AEAVPxProcessPxBaseCallback@2@@Z 0000000180041e50 f i NpSerializerAdapter.obj
 0001:00040e60       ?exportExtraData@?$PxSerializerDefaultAdapter@VNpArticulation@physx@@@physx@@UEBAXAEAVPxBase@2@AEAVPxSerializationContext@2@@Z 0000000180041e60 f i NpSerializerAdapter.obj
 0001:00040e70       ?exportExtraData@?$PxSerializerDefaultAdapter@VNpArticulationLink@physx@@@physx@@UEBAXAEAVPxBase@2@AEAVPxSerializationContext@2@@Z 0000000180041e70 f i NpSerializerAdapter.obj
 0001:00040e80       ?exportExtraData@?$PxSerializerDefaultAdapter@VNpArticulationReducedCoordinate@physx@@@physx@@UEBAXAEAVPxBase@2@AEAVPxSerializationContext@2@@Z 0000000180041e80 f i NpSerializerAdapter.obj
 0001:00040e90       ?exportExtraData@?$PxSerializerDefaultAdapter@VNpRigidDynamic@physx@@@physx@@UEBAXAEAVPxBase@2@AEAVPxSerializationContext@2@@Z 0000000180041e90 f i NpSerializerAdapter.obj
 0001:00040ea0       ?exportExtraData@?$PxSerializerDefaultAdapter@VNpRigidStatic@physx@@@physx@@UEBAXAEAVPxBase@2@AEAVPxSerializationContext@2@@Z 0000000180041ea0 f i NpSerializerAdapter.obj
 0001:00040eb0       ?exportExtraData@?$PxSerializerDefaultAdapter@VNpShape@physx@@@physx@@UEBAXAEAVPxBase@2@AEAVPxSerializationContext@2@@Z 0000000180041eb0 f i NpSerializerAdapter.obj
 0001:00040eb0       ?requiresObjects@?$PxSerializerDefaultAdapter@VNpArticulation@physx@@@physx@@UEBAXAEAVPxBase@2@AEAVPxProcessPxBaseCallback@2@@Z 0000000180041eb0 f i NpSerializerAdapter.obj
 0001:00040ec0       ?exportExtraData@?$PxSerializerDefaultAdapter@VPruningStructure@Sq@physx@@@physx@@UEBAXAEAVPxBase@2@AEAVPxSerializationContext@2@@Z 0000000180041ec0 f i NpSerializerAdapter.obj
 0001:00040ed0       ?getClassSize@?$PxSerializerDefaultAdapter@VBV4TriangleMesh@Gu@physx@@@physx@@UEBA_KXZ 0000000180041ed0 f i NpSerializerAdapter.obj
 0001:00040ee0       ?getClassSize@?$PxSerializerDefaultAdapter@VConvexMesh@Gu@physx@@@physx@@UEBA_KXZ 0000000180041ee0 f i NpSerializerAdapter.obj
 0001:00040ef0       ?getClassSize@?$PxSerializerDefaultAdapter@VHeightField@Gu@physx@@@physx@@UEBA_KXZ 0000000180041ef0 f i NpSerializerAdapter.obj
 0001:00040f00       ?NpShapeGetScPtrOffset@physx@@YA_KXZ 0000000180041f00 f i NpShape.obj
 0001:00040f00       ?getClassSize@?$PxSerializerDefaultAdapter@VNpAggregate@physx@@@physx@@UEBA_KXZ 0000000180041f00 f i NpSerializerAdapter.obj
 0001:00040f00       ?getClassSize@?$PxSerializerDefaultAdapter@VNpMaterial@physx@@@physx@@UEBA_KXZ 0000000180041f00 f i NpSerializerAdapter.obj
 0001:00040f10       ?getClassSize@?$PxSerializerDefaultAdapter@VNpArticulation@physx@@@physx@@UEBA_KXZ 0000000180041f10 f i NpSerializerAdapter.obj
 0001:00040f10       ?getClassSize@?$PxSerializerDefaultAdapter@VNpConstraint@physx@@@physx@@UEBA_KXZ 0000000180041f10 f i NpSerializerAdapter.obj
 0001:00040f20       ?getClassSize@?$PxSerializerDefaultAdapter@VNpArticulationJoint@physx@@@physx@@UEBA_KXZ 0000000180041f20 f i NpSerializerAdapter.obj
 0001:00040f20       ?getClassSize@?$PxSerializerDefaultAdapter@VNpArticulationJointReducedCoordinate@physx@@@physx@@UEBA_KXZ 0000000180041f20 f i NpSerializerAdapter.obj
 0001:00040f30       ?getClassSize@?$PxSerializerDefaultAdapter@VNpArticulationLink@physx@@@physx@@UEBA_KXZ 0000000180041f30 f i NpSerializerAdapter.obj
 0001:00040f40       ?getClassSize@?$PxSerializerDefaultAdapter@VNpArticulationReducedCoordinate@physx@@@physx@@UEBA_KXZ 0000000180041f40 f i NpSerializerAdapter.obj
 0001:00040f50       ?getClassSize@?$PxSerializerDefaultAdapter@VNpRigidDynamic@physx@@@physx@@UEBA_KXZ 0000000180041f50 f i NpSerializerAdapter.obj
 0001:00040f60       ?getClassSize@?$PxSerializerDefaultAdapter@VNpRigidStatic@physx@@@physx@@UEBA_KXZ 0000000180041f60 f i NpSerializerAdapter.obj
 0001:00040f70       ?getClassSize@?$PxSerializerDefaultAdapter@VNpShape@physx@@@physx@@UEBA_KXZ 0000000180041f70 f i NpSerializerAdapter.obj
 0001:00040f80       ?getClassSize@?$PxSerializerDefaultAdapter@VPruningStructure@Sq@physx@@@physx@@UEBA_KXZ 0000000180041f80 f i NpSerializerAdapter.obj
 0001:00040f90       ?getClassSize@?$PxSerializerDefaultAdapter@VRTreeTriangleMesh@Gu@physx@@@physx@@UEBA_KXZ 0000000180041f90 f i NpSerializerAdapter.obj
 0001:00040fa0       ?process@RequiresCallback@?1??registerReferences@?$PxSerializerDefaultAdapter@VBV4TriangleMesh@Gu@physx@@@physx@@UEBAXAEAVPxBase@4@AEAVPxSerializationContext@4@@Z@UEAAX0@Z 0000000180041fa0 f i NpSerializerAdapter.obj
 0001:00040fa0       ?process@RequiresCallback@?1??registerReferences@?$PxSerializerDefaultAdapter@VConvexMesh@Gu@physx@@@physx@@UEBAXAEAVPxBase@4@AEAVPxSerializationContext@4@@Z@UEAAX0@Z 0000000180041fa0 f i NpSerializerAdapter.obj
 0001:00040fa0       ?process@RequiresCallback@?1??registerReferences@?$PxSerializerDefaultAdapter@VHeightField@Gu@physx@@@physx@@UEBAXAEAVPxBase@4@AEAVPxSerializationContext@4@@Z@UEAAX0@Z 0000000180041fa0 f i NpSerializerAdapter.obj
 0001:00040fa0       ?process@RequiresCallback@?1??registerReferences@?$PxSerializerDefaultAdapter@VNpAggregate@physx@@@physx@@UEBAXAEAVPxBase@4@AEAVPxSerializationContext@4@@Z@UEAAX0@Z 0000000180041fa0 f i NpSerializerAdapter.obj
 0001:00040fa0       ?process@RequiresCallback@?1??registerReferences@?$PxSerializerDefaultAdapter@VNpArticulation@physx@@@physx@@UEBAXAEAVPxBase@4@AEAVPxSerializationContext@4@@Z@UEAAX0@Z 0000000180041fa0 f i NpSerializerAdapter.obj
 0001:00040fa0       ?process@RequiresCallback@?1??registerReferences@?$PxSerializerDefaultAdapter@VNpArticulationJoint@physx@@@physx@@UEBAXAEAVPxBase@4@AEAVPxSerializationContext@4@@Z@UEAAX0@Z 0000000180041fa0 f i NpSerializerAdapter.obj
 0001:00040fa0       ?process@RequiresCallback@?1??registerReferences@?$PxSerializerDefaultAdapter@VNpArticulationJointReducedCoordinate@physx@@@physx@@UEBAXAEAVPxBase@4@AEAVPxSerializationContext@4@@Z@UEAAX0@Z 0000000180041fa0 f i NpSerializerAdapter.obj
 0001:00040fa0       ?process@RequiresCallback@?1??registerReferences@?$PxSerializerDefaultAdapter@VNpArticulationLink@physx@@@physx@@UEBAXAEAVPxBase@4@AEAVPxSerializationContext@4@@Z@UEAAX0@Z 0000000180041fa0 f i NpSerializerAdapter.obj
 0001:00040fa0       ?process@RequiresCallback@?1??registerReferences@?$PxSerializerDefaultAdapter@VNpArticulationReducedCoordinate@physx@@@physx@@UEBAXAEAVPxBase@4@AEAVPxSerializationContext@4@@Z@UEAAX0@Z 0000000180041fa0 f i NpSerializerAdapter.obj
 0001:00040fa0       ?process@RequiresCallback@?1??registerReferences@?$PxSerializerDefaultAdapter@VNpConstraint@physx@@@physx@@UEBAXAEAVPxBase@4@AEAVPxSerializationContext@4@@Z@UEAAX0@Z 0000000180041fa0 f i NpSerializerAdapter.obj
 0001:00040fa0       ?process@RequiresCallback@?1??registerReferences@?$PxSerializerDefaultAdapter@VNpRigidDynamic@physx@@@physx@@UEBAXAEAVPxBase@4@AEAVPxSerializationContext@4@@Z@UEAAX0@Z 0000000180041fa0 f i NpSerializerAdapter.obj
 0001:00040fa0       ?process@RequiresCallback@?1??registerReferences@?$PxSerializerDefaultAdapter@VNpRigidStatic@physx@@@physx@@UEBAXAEAVPxBase@4@AEAVPxSerializationContext@4@@Z@UEAAX0@Z 0000000180041fa0 f i NpSerializerAdapter.obj
 0001:00040fa0       ?process@RequiresCallback@?1??registerReferences@?$PxSerializerDefaultAdapter@VPruningStructure@Sq@physx@@@physx@@UEBAXAEAVPxBase@4@AEAVPxSerializationContext@4@@Z@UEAAX0@Z 0000000180041fa0 f i NpSerializerAdapter.obj
 0001:00040fa0       ?process@RequiresCallback@?1??registerReferences@?$PxSerializerDefaultAdapter@VRTreeTriangleMesh@Gu@physx@@@physx@@UEBAXAEAVPxBase@4@AEAVPxSerializationContext@4@@Z@UEAAX0@Z 0000000180041fa0 f i NpSerializerAdapter.obj
 0001:00040fc0       ?process@RequiresCallback@?1??registerReferences@?$PxSerializerDefaultAdapter@VNpShape@physx@@@physx@@UEBAXAEAVPxBase@4@AEAVPxSerializationContext@4@@Z@UEAAX0@Z 0000000180041fc0 f i NpSerializerAdapter.obj
 0001:00041000       ?registerReferences@?$PxSerializerDefaultAdapter@VBV4TriangleMesh@Gu@physx@@@physx@@UEBAXAEAVPxBase@2@AEAVPxSerializationContext@2@@Z 0000000180042000 f i NpSerializerAdapter.obj
 0001:00041000       ?registerReferences@?$PxSerializerDefaultAdapter@VRTreeTriangleMesh@Gu@physx@@@physx@@UEBAXAEAVPxBase@2@AEAVPxSerializationContext@2@@Z 0000000180042000 f i NpSerializerAdapter.obj
 0001:00041050       ?registerReferences@?$PxSerializerDefaultAdapter@VConvexMesh@Gu@physx@@@physx@@UEBAXAEAVPxBase@2@AEAVPxSerializationContext@2@@Z 0000000180042050 f i NpSerializerAdapter.obj
 0001:000410a0       ?registerReferences@?$PxSerializerDefaultAdapter@VHeightField@Gu@physx@@@physx@@UEBAXAEAVPxBase@2@AEAVPxSerializationContext@2@@Z 00000001800420a0 f i NpSerializerAdapter.obj
 0001:000410f0       ?registerReferences@?$PxSerializerDefaultAdapter@VNpAggregate@physx@@@physx@@UEBAXAEAVPxBase@2@AEAVPxSerializationContext@2@@Z 00000001800420f0 f i NpSerializerAdapter.obj
 0001:00041140       ?registerReferences@?$PxSerializerDefaultAdapter@VNpArticulation@physx@@@physx@@UEBAXAEAVPxBase@2@AEAVPxSerializationContext@2@@Z 0000000180042140 f i NpSerializerAdapter.obj
 0001:00041190       ?registerReferences@?$PxSerializerDefaultAdapter@VNpArticulationJoint@physx@@@physx@@UEBAXAEAVPxBase@2@AEAVPxSerializationContext@2@@Z 0000000180042190 f i NpSerializerAdapter.obj
 0001:000411e0       ?registerReferences@?$PxSerializerDefaultAdapter@VNpArticulationJointReducedCoordinate@physx@@@physx@@UEBAXAEAVPxBase@2@AEAVPxSerializationContext@2@@Z 00000001800421e0 f i NpSerializerAdapter.obj
 0001:00041230       ?registerReferences@?$PxSerializerDefaultAdapter@VNpArticulationLink@physx@@@physx@@UEBAXAEAVPxBase@2@AEAVPxSerializationContext@2@@Z 0000000180042230 f i NpSerializerAdapter.obj
 0001:00041280       ?registerReferences@?$PxSerializerDefaultAdapter@VNpArticulationReducedCoordinate@physx@@@physx@@UEBAXAEAVPxBase@2@AEAVPxSerializationContext@2@@Z 0000000180042280 f i NpSerializerAdapter.obj
 0001:000412d0       ?registerReferences@?$PxSerializerDefaultAdapter@VNpConstraint@physx@@@physx@@UEBAXAEAVPxBase@2@AEAVPxSerializationContext@2@@Z 00000001800422d0 f i NpSerializerAdapter.obj
 0001:00041320       ?registerReferences@?$PxSerializerDefaultAdapter@VNpMaterial@physx@@@physx@@UEBAXAEAVPxBase@2@AEAVPxSerializationContext@2@@Z 0000000180042320 f i NpSerializerAdapter.obj
 0001:00041370       ?registerReferences@?$PxSerializerDefaultAdapter@VNpRigidDynamic@physx@@@physx@@UEBAXAEAVPxBase@2@AEAVPxSerializationContext@2@@Z 0000000180042370 f i NpSerializerAdapter.obj
 0001:000413c0       ?registerReferences@?$PxSerializerDefaultAdapter@VNpRigidStatic@physx@@@physx@@UEBAXAEAVPxBase@2@AEAVPxSerializationContext@2@@Z 00000001800423c0 f i NpSerializerAdapter.obj
 0001:00041410       ?registerReferences@?$PxSerializerDefaultAdapter@VNpShape@physx@@@physx@@UEBAXAEAVPxBase@2@AEAVPxSerializationContext@2@@Z 0000000180042410 f i NpSerializerAdapter.obj
 0001:00041460       ?registerReferences@?$PxSerializerDefaultAdapter@VPruningStructure@Sq@physx@@@physx@@UEBAXAEAVPxBase@2@AEAVPxSerializationContext@2@@Z 0000000180042460 f i NpSerializerAdapter.obj
 0001:000414b0       ?requiresObjects@?$PxSerializerDefaultAdapter@VBV4TriangleMesh@Gu@physx@@@physx@@UEBAXAEAVPxBase@2@AEAVPxProcessPxBaseCallback@2@@Z 00000001800424b0 f i NpSerializerAdapter.obj
 0001:000414b0       ?requiresObjects@?$PxSerializerDefaultAdapter@VRTreeTriangleMesh@Gu@physx@@@physx@@UEBAXAEAVPxBase@2@AEAVPxProcessPxBaseCallback@2@@Z 00000001800424b0 f i NpSerializerAdapter.obj
 0001:000414c0       ?requiresObjects@?$PxSerializerDefaultAdapter@VHeightField@Gu@physx@@@physx@@UEBAXAEAVPxBase@2@AEAVPxProcessPxBaseCallback@2@@Z 00000001800424c0 f i NpSerializerAdapter.obj
 0001:000414c0       ?requiresObjects@?$PxSerializerDefaultAdapter@VNpMaterial@physx@@@physx@@UEBAXAEAVPxBase@2@AEAVPxProcessPxBaseCallback@2@@Z 00000001800424c0 f i NpSerializerAdapter.obj
 0001:000414d0       ?requiresObjects@?$PxSerializerDefaultAdapter@VNpArticulationJoint@physx@@@physx@@UEBAXAEAVPxBase@2@AEAVPxProcessPxBaseCallback@2@@Z 00000001800424d0 f i NpSerializerAdapter.obj
 0001:000414e0       ?requiresObjects@?$PxSerializerDefaultAdapter@VNpArticulationJointReducedCoordinate@physx@@@physx@@UEBAXAEAVPxBase@2@AEAVPxProcessPxBaseCallback@2@@Z 00000001800424e0 f i NpSerializerAdapter.obj
 0001:000414f0       ?requiresObjects@?$PxSerializerDefaultAdapter@VNpArticulationLink@physx@@@physx@@UEBAXAEAVPxBase@2@AEAVPxProcessPxBaseCallback@2@@Z 00000001800424f0 f i NpSerializerAdapter.obj
 0001:00041500       ?requiresObjects@?$PxSerializerDefaultAdapter@VNpArticulationReducedCoordinate@physx@@@physx@@UEBAXAEAVPxBase@2@AEAVPxProcessPxBaseCallback@2@@Z 0000000180042500 f i NpSerializerAdapter.obj
 0001:00041510       ?requiresObjects@?$PxSerializerDefaultAdapter@VNpRigidDynamic@physx@@@physx@@UEBAXAEAVPxBase@2@AEAVPxProcessPxBaseCallback@2@@Z 0000000180042510 f i NpSerializerAdapter.obj
 0001:00041520       ?requiresObjects@?$PxSerializerDefaultAdapter@VNpRigidStatic@physx@@@physx@@UEBAXAEAVPxBase@2@AEAVPxProcessPxBaseCallback@2@@Z 0000000180042520 f i NpSerializerAdapter.obj
 0001:00041530       ?requiresObjects@?$PxSerializerDefaultAdapter@VNpShape@physx@@@physx@@UEBAXAEAVPxBase@2@AEAVPxProcessPxBaseCallback@2@@Z 0000000180042530 f i NpSerializerAdapter.obj
 0001:00041540       ?requiresObjects@?$PxSerializerDefaultAdapter@VPruningStructure@Sq@physx@@@physx@@UEBAXAEAVPxBase@2@AEAVPxProcessPxBaseCallback@2@@Z 0000000180042540 f i NpSerializerAdapter.obj
 0001:00041550       PxRegisterPhysicsSerializers 0000000180042550 f   NpSerializerAdapter.obj
 0001:00041af0       PxUnregisterPhysicsSerializers 0000000180042af0 f   NpSerializerAdapter.obj
 0001:00041ee0       ??0NpShape@physx@@QEAA@AEBVPxGeometry@1@V?$PxFlags@W4Enum@PxShapeFlag@physx@@E@1@PEBGG_N@Z 0000000180042ee0 f   NpShape.obj
 0001:0004202c       ??_ENpShape@physx@@WBI@EAAPEAXI@Z 000000018004302c f i NpShape.obj
 0001:00042040       ??_ENpShape@physx@@UEAAPEAXI@Z 0000000180043040 f i NpShape.obj
 0001:00042040       ??_GNpShape@physx@@UEAAPEAXI@Z 0000000180043040 f i NpShape.obj
 0001:000421b0       ?NpShapeDecRefCount@physx@@YAXAEAVShape@Scb@1@@Z 00000001800431b0 f   NpShape.obj
 0001:000421e0       ?NpShapeGetScRigidObjectFromScbSLOW@physx@@YAPEAVRigidCore@Sc@1@AEBVShape@Scb@1@@Z 00000001800431e0 f   NpShape.obj
 0001:000421f0       ?NpShapeIncRefCount@physx@@YAXAEAVShape@Scb@1@@Z 00000001800431f0 f   NpShape.obj
 0001:00042200       ?createObject@NpShape@physx@@SAPEAV12@AEAPEAEAEAVPxDeserializationContext@2@@Z 0000000180043200 f   NpShape.obj
 0001:000422e0       ?exportExtraData@NpShape@physx@@UEAAXAEAVPxSerializationContext@2@@Z 00000001800432e0 f   NpShape.obj
 0001:00042320       ?getBoxGeometry@NpShape@physx@@UEBA_NAEAVPxBoxGeometry@2@@Z 0000000180043320 f   NpShape.obj
 0001:00042360       ?getCapsuleGeometry@NpShape@physx@@UEBA_NAEAVPxCapsuleGeometry@2@@Z 0000000180043360 f   NpShape.obj
 0001:00042390       ?getConcreteTypeName@PxShape@physx@@UEBAPEBDXZ 0000000180043390 f i NpShape.obj
 0001:000423a0       ?getContactOffset@NpShape@physx@@UEBAMXZ 00000001800433a0 f   NpShape.obj
 0001:000423c0       ?getConvexMeshGeometry@NpShape@physx@@UEBA_NAEAVPxConvexMeshGeometry@2@@Z 00000001800433c0 f   NpShape.obj
 0001:00042440       ?getFlags@NpShape@physx@@UEBA?AV?$PxFlags@W4Enum@PxShapeFlag@physx@@E@2@XZ 0000000180043440 f   NpShape.obj
 0001:00042470       ?getGeometry@NpShape@physx@@UEBA?AVPxGeometryHolder@2@XZ 0000000180043470 f   NpShape.obj
 0001:000424b0       ?getHeightFieldGeometry@NpShape@physx@@UEBA_NAEAVPxHeightFieldGeometry@2@@Z 00000001800434b0 f   NpShape.obj
 0001:00042510       ?getLocalPose@NpShape@physx@@UEBA?AVPxTransform@2@XZ 0000000180043510 f   NpShape.obj
 0001:00042550       ?getMaterial@Shape@Scb@physx@@QEBAPEAVPxMaterial@3@I@Z 0000000180043550 f i NpShape.obj
 0001:000425d0       ?getMaterialFromInternalFaceIndex@NpShape@physx@@UEBAPEAVPxMaterial@2@I@Z 00000001800435d0 f   NpShape.obj
 0001:00042720       ?getMaterials@NpShape@physx@@UEBAIPEAPEAVPxMaterial@2@II@Z 0000000180043720 f   NpShape.obj
 0001:00042730       ?getMaterials@Shape@Scb@physx@@QEBAIPEAPEAVPxMaterial@3@II@Z 0000000180043730 f i NpShape.obj
 0001:00042810       ?getMeshRefCountable@NpShape@physx@@AEAAPEAVRefCountable@Cm@2@XZ 0000000180043810 f   NpShape.obj
 0001:000428a0       ?getMinTorsionalPatchRadius@NpShape@physx@@UEBAMXZ 00000001800438a0 f   NpShape.obj
 0001:000428c0       ?getName@NpShape@physx@@UEBAPEBDXZ 00000001800438c0 f   NpShape.obj
 0001:000428d0       ?getNbMaterials@NpShape@physx@@UEBAGXZ 00000001800438d0 f   NpShape.obj
 0001:000428f0       ?getPlaneGeometry@NpShape@physx@@UEBA_NAEAVPxPlaneGeometry@2@@Z 00000001800438f0 f   NpShape.obj
 0001:00042910       ?getQueryFilterData@NpShape@physx@@UEBA?AUPxFilterData@2@XZ 0000000180043910 f   NpShape.obj
 0001:00042930       ?getRestOffset@NpShape@physx@@UEBAMXZ 0000000180043930 f   NpShape.obj
 0001:00042950       ?getSimulationFilterData@NpShape@physx@@UEBA?AUPxFilterData@2@XZ 0000000180043950 f   NpShape.obj
 0001:00042980       ?getSphereGeometry@NpShape@physx@@UEBA_NAEAVPxSphereGeometry@2@@Z 0000000180043980 f   NpShape.obj
 0001:000429b0       ?getTorsionalPatchRadius@NpShape@physx@@UEBAMXZ 00000001800439b0 f   NpShape.obj
 0001:000429d0       ?getTriangleMeshGeometry@NpShape@physx@@UEBA_NAEAVPxTriangleMeshGeometry@2@@Z 00000001800439d0 f   NpShape.obj
 0001:00042a50       ?isExclusive@NpShape@physx@@UEBA_NXZ 0000000180043a50 f   NpShape.obj
 0001:00042a60       ?isKindOf@PxShape@physx@@MEBA_NPEBD@Z 0000000180043a60 f i NpShape.obj
 0001:00042ab0       ?onActorAttach@NpShape@physx@@QEAAXAEAVPxRigidActor@2@@Z 0000000180043ab0 f   NpShape.obj
 0001:00042af0       ?onActorDetach@NpShape@physx@@QEAAXXZ 0000000180043af0 f   NpShape.obj
 0001:00042b40       ?onRefCountZero@NpShape@physx@@UEAAXXZ 0000000180043b40 f   NpShape.obj
 0001:00042b70       ?preExportDataReset@NpShape@physx@@QEAAXXZ 0000000180043b70 f   NpShape.obj
 0001:00042b90       ?requiresObjects@NpShape@physx@@UEAAXAEAVPxProcessPxBaseCallback@2@@Z 0000000180043b90 f   NpShape.obj
 0001:00042cc0       ?resolveReferences@NpShape@physx@@QEAAXAEAVPxDeserializationContext@2@@Z 0000000180043cc0 f   NpShape.obj
 0001:00042e20       ?setContactOffset@NpShape@physx@@UEAAXM@Z 0000000180043e20 f   NpShape.obj
 0001:00042ef0       ?setFlag@NpShape@physx@@UEAAXW4Enum@PxShapeFlag@2@_N@Z 0000000180043ef0 f   NpShape.obj
 0001:00042f60       ?setFlags@NpShape@physx@@UEAAXV?$PxFlags@W4Enum@PxShapeFlag@physx@@E@2@@Z 0000000180043f60 f   NpShape.obj
 0001:00042fa0       ?setFlagsInternal@NpShape@physx@@QEAAXV?$PxFlags@W4Enum@PxShapeFlag@physx@@E@2@@Z 0000000180043fa0 f   NpShape.obj
 0001:00043290       ?setGeometry@NpShape@physx@@UEAAXAEBVPxGeometry@2@@Z 0000000180044290 f   NpShape.obj
 0001:00043450       ?setLocalPose@NpShape@physx@@UEAAXAEBVPxTransform@2@@Z 0000000180044450 f   NpShape.obj
 0001:00043650       ?setMaterials@NpShape@physx@@UEAAXPEBQEAVPxMaterial@2@G@Z 0000000180044650 f   NpShape.obj
 0001:00043880       ?setMinTorsionalPatchRadius@NpShape@physx@@UEAAXM@Z 0000000180044880 f   NpShape.obj
 0001:00043950       ?setName@NpShape@physx@@UEAAXPEBD@Z 0000000180044950 f   NpShape.obj
 0001:00043960       ?setQueryFilterData@NpShape@physx@@UEAAXAEBUPxFilterData@2@@Z 0000000180044960 f   NpShape.obj
 0001:00043980       ?setRestOffset@NpShape@physx@@UEAAXM@Z 0000000180044980 f   NpShape.obj
 0001:00043a50       ?setSimulationFilterData@NpShape@physx@@UEAAXAEBUPxFilterData@2@@Z 0000000180044a50 f   NpShape.obj
 0001:00043b50       ?setTorsionalPatchRadius@NpShape@physx@@UEAAXM@Z 0000000180044b50 f   NpShape.obj
 0001:00043c20       ?updateSQ@NpShape@physx@@AEAAXPEBD@Z 0000000180044c20 f   NpShape.obj
 0001:00043cf0       ??0NpShapeManager@physx@@QEAA@W4PxEMPTY@1@@Z 0000000180044cf0 f   NpShapeManager.obj
 0001:00043d30       ??0NpShapeManager@physx@@QEAA@XZ 0000000180044d30 f   NpShapeManager.obj
 0001:00043d70       ??0PxMat44@physx@@QEAA@AEBVPxTransform@1@@Z 0000000180044d70 f i NpShapeManager.obj
 0001:00043ef0       ??1NpShapeManager@physx@@QEAA@XZ 0000000180044ef0 f   NpShapeManager.obj
 0001:00043f50       ?addBVHStructureShapes@NpShapeManager@physx@@QEAAXAEAVSceneQueryManager@Sq@2@AEBVPxRigidActor@2@PEBVBVHStructure@Gu@2@@Z 0000000180044f50 f   NpShapeManager.obj
 0001:000441c0       ?addPrunerShape@NpShapeManager@physx@@QEAAXAEAVSceneQueryManager@Sq@2@IAEBVNpShape@2@AEBVPxRigidActor@2@_NPEBVPxBounds3@2@3@Z 00000001800451c0 f   NpShapeManager.obj
 0001:00044250       ?allocate@?$Array@URemovedShape@Scb@physx@@V?$InlineAllocator@$0EA@V?$ReflectionAllocator@URemovedShape@Scb@physx@@@shdfnd@physx@@@shdfnd@3@@shdfnd@physx@@IEAAPEAURemovedShape@Scb@3@I@Z 0000000180045250 f i NpShapeManager.obj
 0001:00044300       ?attachShape@NpShapeManager@physx@@QEAAXAEAVNpShape@2@AEAVPxRigidActor@2@@Z 0000000180045300 f   NpShapeManager.obj
 0001:000443d0       ?clearShapesOnRelease@NpShapeManager@physx@@QEAAXAEAVScene@Scb@2@AEAVPxRigidActor@2@@Z 00000001800453d0 f   NpShapeManager.obj
 0001:00044450       ?detachAll@NpShapeManager@physx@@QEAAXPEAVNpScene@2@AEBVPxRigidActor@2@@Z 0000000180045450 f   NpShapeManager.obj
 0001:000445d0       ?detachShape@NpShapeManager@physx@@QEAA_NAEAVNpShape@2@AEAVPxRigidActor@2@_N@Z 00000001800455d0 f   NpShapeManager.obj
 0001:00044720       ?exportExtraData@NpShapeManager@physx@@QEAAXAEAVPxSerializationContext@2@@Z 0000000180045720 f   NpShapeManager.obj
 0001:00044790       ?findSceneQueryData@NpShapeManager@physx@@QEBA_KAEBVNpShape@2@@Z 0000000180045790 f   NpShapeManager.obj
 0001:000447d0       ?findSceneQueryData@NpShapeManager@physx@@QEBA_KAEBVNpShape@2@AEAI@Z 00000001800457d0 f   NpShapeManager.obj
 0001:00044820       ?getShapes@NpShapeManager@physx@@QEBAIPEAPEAVPxShape@2@II@Z 0000000180045820 f   NpShapeManager.obj
 0001:00044af0       ?getWorldBounds@NpShapeManager@physx@@QEBA?AVPxBounds3@2@AEBVPxRigidActor@2@@Z 0000000180045af0 f   NpShapeManager.obj
 0001:00044e50       ?growAndPushBack@?$Array@PEAVShape@Scb@physx@@V?$InlineAllocator@$0CA@V?$ReflectionAllocator@PEAVShape@Scb@physx@@@shdfnd@physx@@@shdfnd@3@@shdfnd@physx@@IEAAAEAPEAVShape@Scb@3@AEBQEAV453@@Z 0000000180045e50 f i NpShapeManager.obj
 0001:00044f50       ?growAndPushBack@?$Array@URemovedShape@Scb@physx@@V?$InlineAllocator@$0EA@V?$ReflectionAllocator@URemovedShape@Scb@physx@@@shdfnd@physx@@@shdfnd@3@@shdfnd@physx@@IEAAAEAURemovedShape@Scb@3@AEBU453@@Z 0000000180045f50 f i NpShapeManager.obj
 0001:00045020       ?importExtraData@NpShapeManager@physx@@QEAAXAEAVPxDeserializationContext@2@@Z 0000000180046020 f   NpShapeManager.obj
 0001:00045050       ?markAllSceneQueryForUpdate@NpShapeManager@physx@@QEAAXAEAVSceneQueryManager@Sq@2@AEBVPxRigidActor@2@@Z 0000000180046050 f   NpShapeManager.obj
 0001:00045110       ?onShapeAttach@RigidObject@Scb@physx@@QEAAXAEAVShape@23@@Z 0000000180046110 f i NpShapeManager.obj
 0001:000452b0       ?onShapeDetach@RigidObject@Scb@physx@@QEAAXAEAVShape@23@_N1@Z 00000001800462b0 f i NpShapeManager.obj
 0001:000455a0       ?preExportDataReset@NpShapeManager@physx@@QEAAXXZ 00000001800465a0 f   NpShapeManager.obj
 0001:000455c0       ?setupAllSceneQuery@NpShapeManager@physx@@QEAAXPEAVNpScene@2@AEBVPxRigidActor@2@_NPEBVPxBounds3@2@PEBVBVHStructure@Gu@2@@Z 00000001800465c0 f   NpShapeManager.obj
 0001:000457c0       ?setupSceneQuery@NpShapeManager@physx@@IEAAXAEAVSceneQueryManager@Sq@2@AEBVPxRigidActor@2@I@Z 00000001800467c0 f   NpShapeManager.obj
 0001:00045860       ?setupSceneQuery@NpShapeManager@physx@@QEAAXAEAVSceneQueryManager@Sq@2@AEBVPxRigidActor@2@AEBVNpShape@2@@Z 0000000180046860 f   NpShapeManager.obj
 0001:000458b0       ?teardownAllSceneQuery@NpShapeManager@physx@@QEAAXAEAVSceneQueryManager@Sq@2@AEBVPxRigidActor@2@@Z 00000001800468b0 f   NpShapeManager.obj
 0001:000459c0       ?teardownSceneQuery@NpShapeManager@physx@@QEAAXAEAVSceneQueryManager@Sq@2@AEBVNpShape@2@@Z 00000001800469c0 f   NpShapeManager.obj
 0001:00045a40       ?transform@PxMat44@physx@@QEBA?BVPxVec4@2@AEBV32@@Z 0000000180046a40 f i NpShapeManager.obj
 0001:00045ea0       ?visualize@NpShapeManager@physx@@QEAAXAEAVRenderOutput@Cm@2@PEAVNpScene@2@AEBVPxRigidActor@2@@Z 0000000180046ea0 f   NpShapeManager.obj
 0001:00048c30       ?addActor@Aggregate@Scb@physx@@QEAAXAEAVActor@23@@Z 0000000180049c30 f   ScbAggregate.obj
 0001:00048da0       ?removeActor@Aggregate@Scb@physx@@QEAAXAEAVActor@23@_N@Z 0000000180049da0 f   ScbAggregate.obj
 0001:00048f30       ?destroy@Base@Scb@physx@@QEAAXXZ 0000000180049f30 f   ScbBase.obj
 0001:00048f60       ?getBinaryMetaData@Actor@Scb@physx@@SAXAEAVPxOutputStream@3@@Z 0000000180049f60 f   ScbMetaData.obj
 0001:00049000       ?getBinaryMetaData@Aggregate@Scb@physx@@SAXAEAVPxOutputStream@3@@Z 000000018004a000 f   ScbMetaData.obj
 0001:000491b0       ?getBinaryMetaData@Articulation@Scb@physx@@SAXAEAVPxOutputStream@3@@Z 000000018004a1b0 f   ScbMetaData.obj
 0001:00049360       ?getBinaryMetaData@ArticulationJoint@Scb@physx@@SAXAEAVPxOutputStream@3@@Z 000000018004a360 f   ScbMetaData.obj
 0001:00049440       ?getBinaryMetaData@Base@Scb@physx@@SAXAEAVPxOutputStream@3@@Z 000000018004a440 f   ScbMetaData.obj
 0001:000495a0       ?getBinaryMetaData@Body@Scb@physx@@SAXAEAVPxOutputStream@3@@Z 000000018004a5a0 f   ScbMetaData.obj
 0001:00049800       ?getBinaryMetaData@Constraint@Scb@physx@@SAXAEAVPxOutputStream@3@@Z 000000018004a800 f   ScbMetaData.obj
 0001:000499a0       ?getBinaryMetaData@RigidObject@Scb@physx@@SAXAEAVPxOutputStream@3@@Z 000000018004a9a0 f   ScbMetaData.obj
 0001:00049a40       ?getBinaryMetaData@RigidStatic@Scb@physx@@SAXAEAVPxOutputStream@3@@Z 000000018004aa40 f   ScbMetaData.obj
 0001:00049b20       ?getBinaryMetaData@Shape@Scb@physx@@SAXAEAVPxOutputStream@3@@Z 000000018004ab20 f   ScbMetaData.obj
 0001:00049c00       ??$add@VBody@Scb@physx@@@Scene@Scb@physx@@AEAAXAEAVBody@12@AEAVObjectTracker@12@PEAVPxBounds3@2@PEBVBVHStructure@Gu@2@@Z 000000018004ac00 f i ScbScene.obj
 0001:00049f20       ??$add@VRigidStatic@Scb@physx@@@Scene@Scb@physx@@AEAAXAEAVRigidStatic@12@AEAVObjectTracker@12@PEAVPxBounds3@2@PEBVBVHStructure@Gu@2@@Z 000000018004af20 f i ScbScene.obj
 0001:0004a230       ??$addRigidNoSim@$00VBody@Scb@physx@@@Scene@Scb@physx@@AEAAXAEAVBody@12@AEAVObjectTracker@12@PEBVBVHStructure@Gu@2@@Z 000000018004b230 f i ScbScene.obj
 0001:0004a480       ??$addRigidNoSim@$0A@VRigidStatic@Scb@physx@@@Scene@Scb@physx@@AEAAXAEAVRigidStatic@12@AEAVObjectTracker@12@PEBVBVHStructure@Gu@2@@Z 000000018004b480 f i ScbScene.obj
 0001:0004a6c0       ??$processRemoves@VBody@Scb@physx@@$00$00@Scene@Scb@physx@@AEAAXAEAVObjectTracker@12@@Z 000000018004b6c0 f i ScbScene.obj
 0001:0004a9e0       ??$processRemoves@VRigidStatic@Scb@physx@@$0A@$00@Scene@Scb@physx@@AEAAXAEAVObjectTracker@12@@Z 000000018004b9e0 f i ScbScene.obj
 0001:0004ace0       ??$processShapeRemoves@VBody@Scb@physx@@@Scene@Scb@physx@@AEAAXAEAVObjectTracker@12@@Z 000000018004bce0 f i ScbScene.obj
 0001:0004ace0       ??$processShapeRemoves@VRigidStatic@Scb@physx@@@Scene@Scb@physx@@AEAAXAEAVObjectTracker@12@@Z 000000018004bce0 f i ScbScene.obj
 0001:0004aea0       ??$processSimUpdates@VArticulation@Scb@physx@@VArticulationCore@Sc@3@@Scene@Scb@physx@@AEAAXPEBQEAVArticulationCore@Sc@2@I@Z 000000018004bea0 f i ScbScene.obj
 0001:0004b010       ??$processUserUpdates@VArticulation@Scb@physx@@@Scene@Scb@physx@@AEAAXAEAVObjectTracker@12@@Z 000000018004c010 f i ScbScene.obj
 0001:0004b1c0       ??$processUserUpdates@VBody@Scb@physx@@@Scene@Scb@physx@@AEAAXAEAVObjectTracker@12@@Z 000000018004c1c0 f i ScbScene.obj
 0001:0004b490       ??$processUserUpdates@VConstraint@Scb@physx@@@Scene@Scb@physx@@AEAAXAEAVObjectTracker@12@@Z 000000018004c490 f i ScbScene.obj
 0001:0004b660       ??$processUserUpdates@VRigidStatic@Scb@physx@@@Scene@Scb@physx@@AEAAXAEAVObjectTracker@12@@Z 000000018004c660 f i ScbScene.obj
 0001:0004b9e0       ??$remove@VBody@Scb@physx@@@Scene@Scb@physx@@AEAAXAEAVBody@12@AEAVObjectTracker@12@_N@Z 000000018004c9e0 f i ScbScene.obj
 0001:0004bcc0       ??$remove@VRigidStatic@Scb@physx@@@Scene@Scb@physx@@AEAAXAEAVRigidStatic@12@AEAVObjectTracker@12@_N@Z 000000018004ccc0 f i ScbScene.obj
 0001:0004bf90       ??$removeRigidNoSim@$00VBody@Scb@physx@@@Scene@Scb@physx@@AEAAXAEAVBody@12@AEAVObjectTracker@12@@Z 000000018004cf90 f i ScbScene.obj
 0001:0004c200       ??$removeRigidNoSim@$0A@VRigidStatic@Scb@physx@@@Scene@Scb@physx@@AEAAXAEAVRigidStatic@12@AEAVObjectTracker@12@@Z 000000018004d200 f i ScbScene.obj
 0001:0004c460       ??0BodyBuffer@Scb@physx@@QEAA@XZ 000000018004d460 f i ScbScene.obj
 0001:0004c4e0       ??0Scene@Scb@physx@@QEAA@AEBVPxSceneDesc@2@_K@Z 000000018004d4e0 f   ScbScene.obj
 0001:0004c8b0       ?addActor@Scene@Scb@physx@@QEAAXAEAVBody@23@_NPEAVPxBounds3@3@PEBVBVHStructure@Gu@3@@Z 000000018004d8b0 f   ScbScene.obj
 0001:0004caa0       ?addActor@Scene@Scb@physx@@QEAAXAEAVRigidStatic@23@_NPEAVPxBounds3@3@PEBVBVHStructure@Gu@3@@Z 000000018004daa0 f   ScbScene.obj
 0001:0004cc00       ?addAggregate@Scene@Scb@physx@@QEAAXAEAVAggregate@23@@Z 000000018004dc00 f   ScbScene.obj
 0001:0004cc50       ?addArticulation@Scene@Scb@physx@@QEAAXAEAVArticulation@23@@Z 000000018004dc50 f   ScbScene.obj
 0001:0004ccd0       ?addArticulationJoint@Scene@Scb@physx@@QEAAXAEAVArticulationJoint@23@@Z 000000018004dcd0 f   ScbScene.obj
 0001:0004cd50       ?addBroadPhaseRegion@Scene@Scb@physx@@QEAAIAEBUPxBroadPhaseRegion@3@_N@Z 000000018004dd50 f   ScbScene.obj
 0001:0004cda0       ?addConstraint@Scene@Scb@physx@@QEAAXAEAVConstraint@23@@Z 000000018004dda0 f   ScbScene.obj
 0001:0004ce50       ?addMaterial@Scene@Scb@physx@@QEAAXAEBVMaterialCore@Sc@3@@Z 000000018004de50 f   ScbScene.obj
 0001:0004ced0       ?allocate@?$Array@VMaterialEvent@Scb@physx@@V?$ReflectionAllocator@VMaterialEvent@Scb@physx@@@shdfnd@3@@shdfnd@physx@@IEAAPEAVMaterialEvent@Scb@3@I@Z 000000018004ded0 f i ScbScene.obj
 0001:0004cf70       ?allocateNotThreadSafe@FlushPool@Cm@physx@@QEAAPEAXII@Z 000000018004df70 f i ScbScene.obj
 0001:0004d090       ?clear@ObjectTracker@Scb@physx@@QEAAXXZ 000000018004e090 f   ScbScene.obj
 0001:0004d190       ?clearNotThreadSafe@FlushPool@Cm@physx@@QEAAXI@Z 000000018004e190 f i ScbScene.obj
 0001:0004d210       ?getBroadPhaseCaps@Scene@Scb@physx@@QEBA_NAEAUPxBroadPhaseCaps@3@@Z 000000018004e210 f   ScbScene.obj
 0001:0004d220       ?getBroadPhaseRegions@Scene@Scb@physx@@QEBAIPEAUPxBroadPhaseRegionInfo@3@II@Z 000000018004e220 f   ScbScene.obj
 0001:0004d230       ?getBroadPhaseType@Scene@Scb@physx@@QEBA?AW4Enum@PxBroadPhaseType@3@XZ 000000018004e230 f   ScbScene.obj
 0001:0004d240       ?getNbBroadPhaseRegions@Scene@Scb@physx@@QEBAIXZ 000000018004e240 f   ScbScene.obj
 0001:0004d250       ?getPxScene@Scene@Scb@physx@@QEAAPEAVPxScene@3@XZ 000000018004e250 f   ScbScene.obj
 0001:0004d260       ?getStream@Scene@Scb@physx@@QEAAPEAEW4Enum@ScbType@3@@Z 000000018004e260 f   ScbScene.obj
 0001:0004d430       ?growAndPushBack@?$Array@VMaterialEvent@Scb@physx@@V?$ReflectionAllocator@VMaterialEvent@Scb@physx@@@shdfnd@3@@shdfnd@physx@@IEAAAEAVMaterialEvent@Scb@3@AEBV453@@Z 000000018004e430 f i ScbScene.obj
 0001:0004d4f0       ?processPendingRemove@Scene@Scb@physx@@QEAAXXZ 000000018004e4f0 f   ScbScene.obj
 0001:0004d7f0       ?recreate@?$Array@PEAVShape@Scb@physx@@V?$InlineAllocator@$0CA@V?$ReflectionAllocator@PEAVShape@Scb@physx@@@shdfnd@physx@@@shdfnd@3@@shdfnd@physx@@IEAAXI@Z 000000018004e7f0 f i ScbScene.obj
 0001:0004d8c0       ?recreate@?$Array@URemovedShape@Scb@physx@@V?$InlineAllocator@$0EA@V?$ReflectionAllocator@URemovedShape@Scb@physx@@@shdfnd@physx@@@shdfnd@3@@shdfnd@physx@@IEAAXI@Z 000000018004e8c0 f i ScbScene.obj
 0001:0004d970       ?recreate@?$Array@VMaterialEvent@Scb@physx@@V?$ReflectionAllocator@VMaterialEvent@Scb@physx@@@shdfnd@3@@shdfnd@physx@@IEAAXI@Z 000000018004e970 f i ScbScene.obj
 0001:0004da10       ?release@Scene@Scb@physx@@QEAAXXZ 000000018004ea10 f   ScbScene.obj
 0001:0004da60       ?remove@ObjectTracker@Scb@physx@@QEAAXAEAVBase@23@@Z 000000018004ea60 f   ScbScene.obj
 0001:0004da80       ?removeActor@Scene@Scb@physx@@QEAAXAEAVBody@23@_N1@Z 000000018004ea80 f   ScbScene.obj
 0001:0004dce0       ?removeActor@Scene@Scb@physx@@QEAAXAEAVRigidStatic@23@_N1@Z 000000018004ece0 f   ScbScene.obj
 0001:0004de20       ?removeAggregate@Scene@Scb@physx@@QEAAXAEAVAggregate@23@@Z 000000018004ee20 f   ScbScene.obj
 0001:0004de60       ?removeArticulation@Scene@Scb@physx@@QEAAXAEAVArticulation@23@@Z 000000018004ee60 f   ScbScene.obj
 0001:0004ded0       ?removeArticulationJoint@Scene@Scb@physx@@QEAAXAEAVArticulationJoint@23@@Z 000000018004eed0 f   ScbScene.obj
 0001:0004df10       ?removeBroadPhaseRegion@Scene@Scb@physx@@QEAA_NI@Z 000000018004ef10 f   ScbScene.obj
 0001:0004df60       ?removeConstraint@Scene@Scb@physx@@QEAAXAEAVConstraint@23@@Z 000000018004ef60 f   ScbScene.obj
 0001:0004dfa0       ?removeMaterial@Scene@Scb@physx@@QEAAXAEBVMaterialCore@Sc@3@@Z 000000018004efa0 f   ScbScene.obj
 0001:0004e030       ?resize@?$Array@PEAVShape@Scb@physx@@V?$InlineAllocator@$0CA@V?$ReflectionAllocator@PEAVShape@Scb@physx@@@shdfnd@physx@@@shdfnd@3@@shdfnd@physx@@QEAAXIAEBQEAVShape@Scb@3@@Z 000000018004f030 f i ScbScene.obj
 0001:0004e0f0       ?resize@?$Array@URemovedShape@Scb@physx@@V?$InlineAllocator@$0EA@V?$ReflectionAllocator@URemovedShape@Scb@physx@@@shdfnd@physx@@@shdfnd@3@@shdfnd@physx@@QEAAXIAEBURemovedShape@Scb@3@@Z 000000018004f0f0 f i ScbScene.obj
 0001:0004e170       ?resize@?$Array@VMaterialEvent@Scb@physx@@V?$ReflectionAllocator@VMaterialEvent@Scb@physx@@@shdfnd@3@@shdfnd@physx@@QEAAXIAEBVMaterialEvent@Scb@3@@Z 000000018004f170 f i ScbScene.obj
 0001:0004e230       ?resize@PxsMaterialManager@physx@@QEAAXI@Z 000000018004f230 f i ScbScene.obj
 0001:0004e540       ?scheduleForInsert@ObjectTracker@Scb@physx@@QEAAXAEAVBase@23@@Z 000000018004f540 f   ScbScene.obj
 0001:0004e5c0       ?scheduleForRemove@ObjectTracker@Scb@physx@@QEAAXAEAVBase@23@@Z 000000018004f5c0 f   ScbScene.obj
 0001:0004e630       ?scheduleForUpdate@ObjectTracker@Scb@physx@@QEAAXAEAVBase@23@@Z 000000018004f630 f   ScbScene.obj
 0001:0004e680       ?scheduleForUpdate@Scene@Scb@physx@@QEAAXAEAVBase@23@@Z 000000018004f680 f   ScbScene.obj
 0001:0004e720       ?shiftOrigin@Scene@Scb@physx@@QEAAXAEBVPxVec3@3@@Z 000000018004f720 f   ScbScene.obj
 0001:0004e730       ?switchRigidFromNoSim@Scene@Scb@physx@@QEAAXAEAVRigidObject@23@_N@Z 000000018004f730 f   ScbScene.obj
 0001:0004e830       ?switchRigidToNoSim@Scene@Scb@physx@@QEAAXAEAVRigidObject@23@_N@Z 000000018004f830 f   ScbScene.obj
 0001:0004e930       ?syncCollisionWriteThroughState@Body@Scb@physx@@QEAAXXZ 000000018004f930 f i ScbScene.obj
 0001:0004ebe0       ?syncEntireScene@Scene@Scb@physx@@QEAAXXZ 000000018004fbe0 f   ScbScene.obj
 0001:0004f180       ?syncState@Articulation@Scb@physx@@QEAAXXZ 0000000180050180 f i ScbScene.obj
 0001:0004f2b0       ?syncState@ArticulationJoint@Scb@physx@@QEAAXXZ 00000001800502b0 f i ScbScene.obj
 0001:0004f5f0       ?syncState@Body@Scb@physx@@QEAAXXZ 00000001800505f0 f i ScbScene.obj
 0001:0004fd70       ?syncState@Constraint@Scb@physx@@QEAAXXZ 0000000180050d70 f i ScbScene.obj
 0001:0004fe90       ?syncState@RigidObject@Scb@physx@@QEAAXXZ 0000000180050e90 f i ScbScene.obj
 0001:000500e0       ?syncState@Scene@Scb@physx@@AEAAXXZ 00000001800510e0 f   ScbScene.obj
 0001:00050350       ?syncWriteThroughProperties@Scene@Scb@physx@@QEAAXXZ 0000000180051350 f   ScbScene.obj
 0001:00050650       ?updateLowLevelMaterial@Scene@Scb@physx@@QEAAXPEAPEAVNpMaterial@3@@Z 0000000180051650 f   ScbScene.obj
 0001:00050810       ?updateMaterial@Scene@Scb@physx@@QEAAXAEBVMaterialCore@Sc@3@@Z 0000000180051810 f   ScbScene.obj
 0001:00050890       ?setMaterialsHelper@Shape@Scb@physx@@AEAA_NPEBQEAVPxMaterial@3@G@Z 0000000180051890 f   ScbShape.obj
 0001:00050a00       ?syncState@Shape@Scb@physx@@QEAAXXZ 0000000180051a00 f   ScbShape.obj
 0001:00052dc0       ?addBody@ArticulationV@Dy@physx@@UEAAXXZ 0000000180053dc0 f i NpImmediateMode.obj
 0001:00053050       ?allocate@?$Array@PEAEV?$ReflectionAllocator@PEAE@shdfnd@physx@@@shdfnd@physx@@IEAAPEAPEAEI@Z 0000000180054050 f i NpImmediateMode.obj
 0001:00053240       ?growAndPushBack@?$Array@VSpatialVector@Cm@physx@@V?$ReflectionAllocator@VSpatialVector@Cm@physx@@@shdfnd@3@@shdfnd@physx@@IEAAAEAVSpatialVector@Cm@3@AEBV453@@Z 0000000180054240 f i NpImmediateMode.obj
 0001:000539d0       ?recreate@?$Array@PEAEV?$ReflectionAllocator@PEAE@shdfnd@physx@@@shdfnd@physx@@IEAAXI@Z 00000001800549d0 f i NpImmediateMode.obj
 0001:00053a70       ?recreate@?$Array@UArticulationLink@Dy@physx@@V?$ReflectionAllocator@UArticulationLink@Dy@physx@@@shdfnd@3@@shdfnd@physx@@IEAAXI@Z 0000000180054a70 f i NpImmediateMode.obj
 0001:00053b90       ?removeBody@ArticulationV@Dy@physx@@UEAAXXZ 0000000180054b90 f i NpImmediateMode.obj
 0001:00053ba0       PxAddArticulationLink      0000000180054ba0 f   NpImmediateMode.obj
 0001:00053c00       PxApplyArticulationCache   0000000180054c00 f   NpImmediateMode.obj
 0001:00053c20       PxBatchConstraints         0000000180054c20 f   NpImmediateMode.obj
 0001:00053cb0       PxBatchConstraintsTGS      0000000180054cb0 f   NpImmediateMode.obj
 0001:00053d40       PxComputeUnconstrainedVelocities 0000000180054d40 f   NpImmediateMode.obj
 0001:00053e20       PxComputeUnconstrainedVelocitiesTGS 0000000180054e20 f   NpImmediateMode.obj
 0001:00053f10       PxConstructSolverBodies    0000000180054f10 f   NpImmediateMode.obj
 0001:000541d0       PxConstructSolverBodiesTGS 00000001800551d0 f   NpImmediateMode.obj
 0001:000544e0       PxConstructStaticSolverBody 00000001800554e0 f   NpImmediateMode.obj
 0001:00054550       PxConstructStaticSolverBodyTGS 0000000180055550 f   NpImmediateMode.obj
 0001:000545d0       PxCopyInternalStateToArticulationCache 00000001800555d0 f   NpImmediateMode.obj
 0001:000545f0       PxCreateArticulationCache  00000001800555f0 f   NpImmediateMode.obj
 0001:000548d0       PxCreateContactConstraints 00000001800558d0 f   NpImmediateMode.obj
 0001:00054b50       PxCreateContactConstraintsTGS 0000000180055b50 f   NpImmediateMode.obj
 0001:00054dd0       PxCreateFeatherstoneArticulation 0000000180055dd0 f   NpImmediateMode.obj
 0001:00054e40       PxCreateJointConstraints   0000000180055e40 f   NpImmediateMode.obj
 0001:00054fe0       PxCreateJointConstraintsTGS 0000000180055fe0 f   NpImmediateMode.obj
 0001:000551e0       PxCreateJointConstraintsWithImmediateShaders 00000001800561e0 f   NpImmediateMode.obj
 0001:000551f0       PxCreateJointConstraintsWithImmediateShadersTGS 00000001800561f0 f   NpImmediateMode.obj
 0001:00055200       PxCreateJointConstraintsWithShaders 0000000180056200 f   NpImmediateMode.obj
 0001:00055210       PxCreateJointConstraintsWithShadersTGS 0000000180056210 f   NpImmediateMode.obj
 0001:00055220       PxGenerateContacts         0000000180056220 f   NpImmediateMode.obj
 0001:000557c0       PxGetAllLinkData           00000001800567c0 f   NpImmediateMode.obj
 0001:00055b20       PxGetJointData             0000000180056b20 f   NpImmediateMode.obj
 0001:00055ee0       PxGetLinkArticulation      0000000180056ee0 f   NpImmediateMode.obj
 0001:00055ef0       PxGetLinkData              0000000180056ef0 f   NpImmediateMode.obj
 0001:00055fb0       PxGetLinkIndex             0000000180056fb0 f   NpImmediateMode.obj
 0001:00055fc0       PxGetMutableLinkData       0000000180056fc0 f   NpImmediateMode.obj
 0001:00056050       PxIntegrateSolverBodies    0000000180057050 f   NpImmediateMode.obj
 0001:00056620       PxIntegrateSolverBodiesTGS 0000000180057620 f   NpImmediateMode.obj
 0001:000568a0       PxRegisterImmediateArticulations 00000001800578a0 f   NpImmediateMode.obj
 0001:000568c0       PxReleaseArticulation      00000001800578c0 f   NpImmediateMode.obj
 0001:00056900       PxReleaseArticulationCache 0000000180057900 f   NpImmediateMode.obj
 0001:000569d0       PxSetJointData             00000001800579d0 f   NpImmediateMode.obj
 0001:00056d90       PxSetMutableLinkData       0000000180057d90 f   NpImmediateMode.obj
 0001:00056e20       PxSolveConstraints         0000000180057e20 f   NpImmediateMode.obj
 0001:00057370       PxSolveConstraintsTGS      0000000180058370 f   NpImmediateMode.obj
 0001:00057890       PxUpdateArticulationBodies 0000000180058890 f   NpImmediateMode.obj
 0001:000578a0       PxUpdateArticulationBodiesTGS 00000001800588a0 f   NpImmediateMode.obj
 0001:000578b0       ??0PhysXIndicator@physx@@QEAA@_N@Z 00000001800588b0 f   PhysXIndicatorWindows.obj
 0001:00057a50       ??1PhysXIndicator@physx@@QEAA@XZ 0000000180058a50 f   PhysXIndicatorWindows.obj
 0001:00057aa0       ?setIsGpu@PhysXIndicator@physx@@QEAAX_N@Z 0000000180058aa0 f   PhysXIndicatorWindows.obj
 0001:00057ad0       __local_stdio_printf_options 0000000180058ad0 f i PhysXIndicatorWindows.obj
 0001:00057ae0       sprintf                    0000000180058ae0 f i PhysXIndicatorWindows.obj
 0001:00057b40       PxCreateCudaClientContextManager 0000000180058b40 f   PxGpu.obj
 0001:00057b90       PxCreateCudaContextManager 0000000180058b90 f   PxGpu.obj
 0001:00057c00       PxGetSuggestedCudaDeviceOrdinal 0000000180058c00 f   PxGpu.obj
 0001:00057c40       ?PxLoadPhysxGPUModule@physx@@YAXPEBD@Z 0000000180058c40 f   PxPhysXGpuModuleLoader.obj
 0001:00057da0       PxSetPhysXGpuLoadHook      0000000180058da0 f   PxPhysXGpuModuleLoader.obj
 0001:00057dc0       ?physxDelayHook@@YAP6A_JXZIPEAUDelayLoadInfo@@@Z 0000000180058dc0 f   NpWindowsDelayLoadHook.obj
 0001:00057ea0       PxSetPhysXDelayLoadHook    0000000180058ea0 f   NpWindowsDelayLoadHook.obj
 0001:00058160       ?PxvRegisterHeightFields@physx@@YAXXZ 0000000180059160 f   LowLevel_static_64:PxcContactMethodImpl.obj
 0001:000581e0       ??$combine1@UOR@?$BitMapBase@VNonTrackingAllocator@shdfnd@physx@@@Cm@physx@@@?$BitMapBase@VNonTrackingAllocator@shdfnd@physx@@@Cm@physx@@IEAAXPEBII@Z 00000001800591e0 f i LowLevel_static_64:PxsContext.obj
 0001:00058350       ??$sort@PEAXU?$Less@PEAX@shdfnd@physx@@V?$ReflectionAllocator@VLargePersistentContactManifold@Gu@physx@@@23@@shdfnd@physx@@YAXPEAPEAXIAEBU?$Less@PEAX@01@AEBV?$ReflectionAllocator@VLargePersistentContactManifold@Gu@physx@@@01@I@Z 0000000180059350 f i LowLevel_static_64:PxsContext.obj
 0001:00058730       ??$sort@PEAXU?$Less@PEAX@shdfnd@physx@@V?$ReflectionAllocator@VSpherePersistentContactManifold@Gu@physx@@@23@@shdfnd@physx@@YAXPEAPEAXIAEBU?$Less@PEAX@01@AEBV?$ReflectionAllocator@VSpherePersistentContactManifold@Gu@physx@@@01@I@Z 0000000180059730 f i LowLevel_static_64:PxsContext.obj
 0001:00058b10       ??0PxcNpContext@physx@@QEAA@XZ 0000000180059b10 f i LowLevel_static_64:PxsContext.obj
 0001:00058c90       ??0PxsContext@physx@@QEAA@AEBVPxSceneDesc@1@PEAVPxTaskManager@1@AEAVFlushPool@Cm@1@PEAVPxCudaContextManager@1@_K@Z 0000000180059c90 f   LowLevel_static_64:PxsContext.obj
 0001:00059050       ??1?$Array@PEAXV?$InlineAllocator@$0CAA@V?$ReflectionAllocator@UAABBTreeIndices@Sq@physx@@@shdfnd@physx@@@shdfnd@physx@@@shdfnd@physx@@QEAA@XZ 000000018005a050 f i SceneQuery_static_64:SqIncrementalAABBTree.obj
 0001:00059050       ??1?$Array@PEAXV?$InlineAllocator@$0CAA@V?$ReflectionAllocator@UIncrementalAABBTreeNodePair@Sq@physx@@@shdfnd@physx@@@shdfnd@physx@@@shdfnd@physx@@QEAA@XZ 000000018005a050 f i SceneQuery_static_64:SqIncrementalAABBTree.obj
 0001:00059050       ??1?$Array@PEAXV?$InlineAllocator@$0CAA@V?$ReflectionAllocator@USimStateData@Sc@physx@@@shdfnd@physx@@@shdfnd@physx@@@shdfnd@physx@@QEAA@XZ 000000018005a050 f i SimulationController_static_64:ScScene.obj
 0001:00059050       ??1?$Array@PEAXV?$InlineAllocator@$0CAA@V?$ReflectionAllocator@VActorPair@Sc@physx@@@shdfnd@physx@@@shdfnd@physx@@@shdfnd@physx@@QEAA@XZ 000000018005a050 f i SimulationController_static_64:ScNPhaseCore.obj
 0001:00059050       ??1?$Array@PEAXV?$InlineAllocator@$0CAA@V?$ReflectionAllocator@VActorPairContactReportData@Sc@physx@@@shdfnd@physx@@@shdfnd@physx@@@shdfnd@physx@@QEAA@XZ 000000018005a050 f i SimulationController_static_64:ScNPhaseCore.obj
 0001:00059050       ??1?$Array@PEAXV?$InlineAllocator@$0CAA@V?$ReflectionAllocator@VActorPairReport@Sc@physx@@@shdfnd@physx@@@shdfnd@physx@@@shdfnd@physx@@QEAA@XZ 000000018005a050 f i SimulationController_static_64:ScNPhaseCore.obj
 0001:00059050       ??1?$Array@PEAXV?$InlineAllocator@$0CAA@V?$ReflectionAllocator@VConstraintInteraction@Sc@physx@@@shdfnd@physx@@@shdfnd@physx@@@shdfnd@physx@@QEAA@XZ 000000018005a050 f i SimulationController_static_64:ScScene.obj
 0001:00059050       ??1?$Array@PEAXV?$InlineAllocator@$0CAA@V?$ReflectionAllocator@VConstraintSim@Sc@physx@@@shdfnd@physx@@@shdfnd@physx@@@shdfnd@physx@@QEAA@XZ 000000018005a050 f i SimulationController_static_64:ScScene.obj
 0001:00059050       ??1?$Array@PEAXV?$InlineAllocator@$0CAA@V?$ReflectionAllocator@VElementInteractionMarker@Sc@physx@@@shdfnd@physx@@@shdfnd@physx@@@shdfnd@physx@@QEAA@XZ 000000018005a050 f i SimulationController_static_64:ScNPhaseCore.obj
 0001:00059050       ??1?$Array@PEAXV?$InlineAllocator@$0CAA@V?$ReflectionAllocator@VLargePersistentContactManifold@Gu@physx@@@shdfnd@physx@@@shdfnd@physx@@@shdfnd@physx@@QEAA@XZ 000000018005a050 f i LowLevel_static_64:PxsContext.obj
 0001:00059050       ??1?$Array@PEAXV?$InlineAllocator@$0CAA@V?$ReflectionAllocator@VShapeInteraction@Sc@physx@@@shdfnd@physx@@@shdfnd@physx@@@shdfnd@physx@@QEAA@XZ 000000018005a050 f i SimulationController_static_64:ScNPhaseCore.obj
 0001:00059050       ??1?$Array@PEAXV?$InlineAllocator@$0CAA@V?$ReflectionAllocator@VSpherePersistentContactManifold@Gu@physx@@@shdfnd@physx@@@shdfnd@physx@@@shdfnd@physx@@QEAA@XZ 000000018005a050 f i LowLevel_static_64:PxsContext.obj
 0001:00059050       ??1?$Array@PEAXV?$InlineAllocator@$0CAA@V?$ReflectionAllocator@VTriggerInteraction@Sc@physx@@@shdfnd@physx@@@shdfnd@physx@@@shdfnd@physx@@QEAA@XZ 000000018005a050 f i SimulationController_static_64:ScNPhaseCore.obj
 0001:000590c0       ??1?$PoolBase@VLargePersistentContactManifold@Gu@physx@@V?$ReflectionAllocator@VLargePersistentContactManifold@Gu@physx@@@shdfnd@3@@shdfnd@physx@@QEAA@XZ 000000018005a0c0 f i LowLevel_static_64:PxsContext.obj
 0001:00059220       ??1?$PoolBase@VSpherePersistentContactManifold@Gu@physx@@V?$ReflectionAllocator@VSpherePersistentContactManifold@Gu@physx@@@shdfnd@3@@shdfnd@physx@@QEAA@XZ 000000018005a220 f i LowLevel_static_64:PxsContext.obj
 0001:00059380       ??1?$PxcThreadCoherentCache@VPxcNpThreadContext@physx@@UPxcNpContext@2@@physx@@QEAA@XZ 000000018005a380 f i LowLevel_static_64:PxsContext.obj
 0001:00059410       ??1PxcScratchAllocator@physx@@QEAA@XZ 000000018005a410 f i LowLevel_static_64:PxsContext.obj
 0001:00059480       ??1PxsContext@physx@@QEAA@XZ 000000018005a480 f   LowLevel_static_64:PxsContext.obj
 0001:000596a0       ?allocate@?$ReflectionAllocator@VLargePersistentContactManifold@Gu@physx@@@shdfnd@physx@@QEAAPEAX_KPEBDH@Z 000000018005a6a0 f i LowLevel_static_64:PxsContext.obj
 0001:00059740       ?allocate@?$ReflectionAllocator@VPxsContactManager@physx@@@shdfnd@physx@@QEAAPEAX_KPEBDH@Z 000000018005a740 f i LowLevel_static_64:PxsContext.obj
 0001:000597e0       ?allocate@?$ReflectionAllocator@VSpherePersistentContactManifold@Gu@physx@@@shdfnd@physx@@QEAAPEAX_KPEBDH@Z 000000018005a7e0 f i LowLevel_static_64:PxsContext.obj
 0001:00059880       ?beginUpdate@PxsContext@physx@@QEAAXXZ 000000018005a880 f   LowLevel_static_64:PxsContext.obj
 0001:000598a0       ?createCache@PxsContext@physx@@QEAAXAEAUCache@Gu@2@PEAVPxsContactManager@2@EE@Z 000000018005a8a0 f   LowLevel_static_64:PxsContext.obj
 0001:00059b40       ?createContactManager@PxsContext@physx@@QEAAPEAVPxsContactManager@2@PEAV32@_N@Z 000000018005ab40 f   LowLevel_static_64:PxsContext.obj
 0001:00059c90       ?createTransformCache@PxsContext@physx@@QEAAXAEAVVirtualAllocatorCallback@shdfnd@2@@Z 000000018005ac90 f   LowLevel_static_64:PxsContext.obj
 0001:00059d10       ?destroy@?$PoolList@VPxsContactManager@physx@@VPxsContext@2@@Cm@physx@@QEAAXXZ 000000018005ad10 f i LowLevel_static_64:PxsContext.obj
 0001:00059e20       ?destroyCache@PxsContext@physx@@QEAAXAEAUCache@Gu@2@@Z 000000018005ae20 f   LowLevel_static_64:PxsContext.obj
 0001:00059e80       ?destroyContactManager@PxsContext@physx@@QEAAXPEAVPxsContactManager@2@@Z 000000018005ae80 f   LowLevel_static_64:PxsContext.obj
 0001:00059fb0       ?extend@?$BitMapBase@VNonTrackingAllocator@shdfnd@physx@@@Cm@physx@@IEAAXI@Z 000000018005afb0 f i LowLevel_static_64:PxsContext.obj
 0001:00059fb0       ?resize@?$BitMapBase@VNonTrackingAllocator@shdfnd@physx@@@Cm@physx@@QEAAXI_N@Z 000000018005afb0 f i LowLevel_static_64:PxcNpThreadContext.obj
 0001:0005a090       ?extend@?$PoolList@VPxsContactManager@physx@@VPxsContext@2@@Cm@physx@@QEAA_NXZ 000000018005b090 f i LowLevel_static_64:PxsContext.obj
 0001:0005a220       ?fetchUpdateContactManager@PxsContext@physx@@QEAAXXZ 000000018005b220 f   LowLevel_static_64:PxsContext.obj
 0001:0005a250       ?fillManagerPatchChangedEvents@PxsContext@physx@@QEAA_NPEAPEAVPxsContactManager@2@AEAI01@Z 000000018005b250 f   LowLevel_static_64:PxsContext.obj
 0001:0005a3b0       ?fillManagerTouchEvents@PxsContext@physx@@QEAA_NPEAUPxvContactManagerTouchEvent@2@AEAH0101@Z 000000018005b3b0 f   LowLevel_static_64:PxsContext.obj
 0001:0005a520       ?getManagerTouchEventCount@PxsContext@physx@@QEBA_NPEAH00@Z 000000018005b520 f   LowLevel_static_64:PxsContext.obj
 0001:0005a550       ?getVisualizationParameter@PxsContext@physx@@QEBAMW4Enum@PxVisualizationParameter@2@@Z 000000018005b550 f   LowLevel_static_64:PxsContext.obj
 0001:0005a560       ?growAndPushBack@?$Array@PEAXV?$InlineAllocator@$0CAA@V?$ReflectionAllocator@VLargePersistentContactManifold@Gu@physx@@@shdfnd@physx@@@shdfnd@physx@@@shdfnd@physx@@IEAAAEAPEAXAEBQEAX@Z 000000018005b560 f i LowLevel_static_64:PxsContext.obj
 0001:0005a690       ?growAndPushBack@?$Array@PEAXV?$InlineAllocator@$0CAA@V?$ReflectionAllocator@VSpherePersistentContactManifold@Gu@physx@@@shdfnd@physx@@@shdfnd@physx@@@shdfnd@physx@@IEAAAEAPEAXAEBQEAX@Z 000000018005b690 f i LowLevel_static_64:PxsContext.obj
 0001:0005a7c0       ?growAndPushBack@?$Array@PEAXV?$ReflectionAllocator@VLargePersistentContactManifold@Gu@physx@@@shdfnd@physx@@@shdfnd@physx@@IEAAAEAPEAXAEBQEAX@Z 000000018005b7c0 f i LowLevel_static_64:PxsContext.obj
 0001:0005a8a0       ?growAndPushBack@?$Array@PEAXV?$ReflectionAllocator@VSpherePersistentContactManifold@Gu@physx@@@shdfnd@physx@@@shdfnd@physx@@IEAAAEAPEAXAEBQEAX@Z 000000018005b8a0 f i LowLevel_static_64:PxsContext.obj
 0001:0005a980       ?mergeCMDiscreteUpdateResults@PxsContext@physx@@AEAAXPEAVPxBaseTask@2@@Z 000000018005b980 f   LowLevel_static_64:PxsContext.obj
 0001:0005ab60       ?resetThreadContexts@PxsContext@physx@@QEAAXXZ 000000018005bb60 f   LowLevel_static_64:PxsContext.obj
 0001:0005abe0       ?secondPassUpdateContactManager@PxsContext@physx@@QEAAXMPEAVPxBaseTask@2@@Z 000000018005bbe0 f   LowLevel_static_64:PxsContext.obj
 0001:0005abf0       ?setContactDistance@PxsContext@physx@@QEAAXPEAV?$Array@MVVirtualAllocator@shdfnd@physx@@@shdfnd@2@@Z 000000018005bbf0 f   LowLevel_static_64:PxsContext.obj
 0001:0005ac00       ?setScratchBlock@PxsContext@physx@@QEAAXPEAXI@Z 000000018005bc00 f   LowLevel_static_64:PxsContext.obj
 0001:0005ac60       ?setVisualizationParameter@PxsContext@physx@@QEAAXW4Enum@PxVisualizationParameter@2@M@Z 000000018005bc60 f   LowLevel_static_64:PxsContext.obj
 0001:0005ac70       ?shiftOrigin@PxsContext@physx@@QEAAXAEBVPxVec3@2@@Z 000000018005bc70 f   LowLevel_static_64:PxsContext.obj
 0001:0005adb0       ?swapStreams@PxsContext@physx@@QEAAXXZ 000000018005bdb0 f   LowLevel_static_64:PxsContext.obj
 0001:0005adc0       ?updateContactManager@PxsContext@physx@@QEAAXM_N0PEAVPxBaseTask@2@1@Z 000000018005bdc0 f   LowLevel_static_64:PxsContext.obj
 0001:0005add0       ??0PxcNpMemBlockPool@physx@@QEAA@AEAVPxcScratchAllocator@1@@Z 000000018005bdd0 f   LowLevel_static_64:PxcNpMemBlockPool.obj
 0001:0005af20       ??1PxcNpMemBlockPool@physx@@QEAA@XZ 000000018005bf20 f   LowLevel_static_64:PxcNpMemBlockPool.obj
 0001:0005b280       ?acquire@PxcNpMemBlockPool@physx@@AEAAPEAUPxcNpMemBlock@2@AEAV?$Array@PEAUPxcNpMemBlock@physx@@V?$ReflectionAllocator@PEAUPxcNpMemBlock@physx@@@shdfnd@2@@shdfnd@2@PEAI1_N@Z 000000018005c280 f   LowLevel_static_64:PxcNpMemBlockPool.obj
 0001:0005b430       ?acquireConstraintBlock@PxcNpMemBlockPool@physx@@QEAAPEAUPxcNpMemBlock@2@AEAV?$Array@PEAUPxcNpMemBlock@physx@@V?$ReflectionAllocator@PEAUPxcNpMemBlock@physx@@@shdfnd@2@@shdfnd@2@@Z 000000018005c430 f   LowLevel_static_64:PxcNpMemBlockPool.obj
 0001:0005b460       ?acquireConstraintMemory@PxcNpMemBlockPool@physx@@QEAAXXZ 000000018005c460 f   LowLevel_static_64:PxcNpMemBlockPool.obj
 0001:0005b550       ?acquireContactBlock@PxcNpMemBlockPool@physx@@QEAAPEAUPxcNpMemBlock@2@XZ 000000018005c550 f   LowLevel_static_64:PxcNpMemBlockPool.obj
 0001:0005b580       ?acquireExceptionalConstraintMemory@PxcNpMemBlockPool@physx@@QEAAPEAEI@Z 000000018005c580 f   LowLevel_static_64:PxcNpMemBlockPool.obj
 0001:0005b630       ?acquireFrictionBlock@PxcNpMemBlockPool@physx@@QEAAPEAUPxcNpMemBlock@2@XZ 000000018005c630 f   LowLevel_static_64:PxcNpMemBlockPool.obj
 0001:0005b660       ?acquireNpCacheBlock@PxcNpMemBlockPool@physx@@QEAAPEAUPxcNpMemBlock@2@XZ 000000018005c660 f   LowLevel_static_64:PxcNpMemBlockPool.obj
 0001:0005b690       ?allocate@?$Array@PEAUPxcNpMemBlock@physx@@V?$ReflectionAllocator@PEAUPxcNpMemBlock@physx@@@shdfnd@2@@shdfnd@physx@@IEAAPEAPEAUPxcNpMemBlock@3@I@Z 000000018005c690 f i LowLevel_static_64:PxcNpMemBlockPool.obj
 0001:0005b730       ?getPeakConstraintBlockCount@PxcNpMemBlockPool@physx@@QEBAIXZ 000000018005c730 f   LowLevel_static_64:PxcNpMemBlockPool.obj
 0001:0005b740       ?getUsedBlockCount@PxcNpMemBlockPool@physx@@QEBAIXZ 000000018005c740 f   LowLevel_static_64:PxcNpMemBlockPool.obj
 0001:0005b750       ?growAndPushBack@?$Array@PEAUPxcNpMemBlock@physx@@V?$ReflectionAllocator@PEAUPxcNpMemBlock@physx@@@shdfnd@2@@shdfnd@physx@@IEAAAEAPEAUPxcNpMemBlock@3@AEBQEAU43@@Z 000000018005c750 f i LowLevel_static_64:PxcNpMemBlockPool.obj
 0001:0005b810       ?init@PxcNpMemBlockPool@physx@@QEAAXII@Z 000000018005c810 f   LowLevel_static_64:PxcNpMemBlockPool.obj
 0001:0005b990       ?recreate@?$Array@PEAUPxcNpMemBlock@physx@@V?$ReflectionAllocator@PEAUPxcNpMemBlock@physx@@@shdfnd@2@@shdfnd@physx@@IEAAXI@Z 000000018005c990 f i LowLevel_static_64:PxcNpMemBlockPool.obj
 0001:0005ba30       ?release@PxcNpMemBlockPool@physx@@AEAAXAEAV?$Array@PEAUPxcNpMemBlock@physx@@V?$ReflectionAllocator@PEAUPxcNpMemBlock@physx@@@shdfnd@2@@shdfnd@2@PEAI@Z 000000018005ca30 f   LowLevel_static_64:PxcNpMemBlockPool.obj
 0001:0005bae0       ?releaseConstraintBlocks@PxcNpMemBlockPool@physx@@QEAAXAEAV?$Array@PEAUPxcNpMemBlock@physx@@V?$ReflectionAllocator@PEAUPxcNpMemBlock@physx@@@shdfnd@2@@shdfnd@2@@Z 000000018005cae0 f   LowLevel_static_64:PxcNpMemBlockPool.obj
 0001:0005bbd0       ?releaseConstraintMemory@PxcNpMemBlockPool@physx@@QEAAXXZ 000000018005cbd0 f   LowLevel_static_64:PxcNpMemBlockPool.obj
 0001:0005bdd0       ?releaseContacts@PxcNpMemBlockPool@physx@@QEAAXXZ 000000018005cdd0 f   LowLevel_static_64:PxcNpMemBlockPool.obj
 0001:0005be20       ?releaseUnusedBlocks@PxcNpMemBlockPool@physx@@QEAAXXZ 000000018005ce20 f   LowLevel_static_64:PxcNpMemBlockPool.obj
 0001:0005bea0       ?resize@?$Array@PEAUPxcNpMemBlock@physx@@V?$ReflectionAllocator@PEAUPxcNpMemBlock@physx@@@shdfnd@2@@shdfnd@physx@@QEAAXIAEBQEAUPxcNpMemBlock@3@@Z 000000018005cea0 f i LowLevel_static_64:PxcNpMemBlockPool.obj
 0001:0005bf60       ?setBlockCount@PxcNpMemBlockPool@physx@@QEAAXI@Z 000000018005cf60 f   LowLevel_static_64:PxcNpMemBlockPool.obj
 0001:0005c020       ?swapFrictionStreams@PxcNpMemBlockPool@physx@@QEAAXXZ 000000018005d020 f   LowLevel_static_64:PxcNpMemBlockPool.obj
 0001:0005c070       ?swapNpCacheStreams@PxcNpMemBlockPool@physx@@QEAAXXZ 000000018005d070 f   LowLevel_static_64:PxcNpMemBlockPool.obj
 0001:0005c0c0       ??0PxcNpThreadContext@physx@@QEAA@PEAUPxcNpContext@1@@Z 000000018005d0c0 f   LowLevel_static_64:PxcNpThreadContext.obj
 0001:0005c230       ??1PxcNpThreadContext@physx@@QEAA@XZ 000000018005d230 f   LowLevel_static_64:PxcNpThreadContext.obj
 0001:0005c2e0       ?clearStats@PxcNpThreadContext@physx@@QEAAXXZ 000000018005d2e0 f   LowLevel_static_64:PxcNpThreadContext.obj
 0001:0005c330       ?reset@PxcNpThreadContext@physx@@QEAAXI@Z 000000018005d330 f   LowLevel_static_64:PxcNpThreadContext.obj
 0001:0005c3e0       ??0PxsContactManager@physx@@QEAA@PEAVPxsContext@1@I@Z 000000018005d3e0 f   LowLevel_static_64:PxsContactManager.obj
 0001:0005c410       ?resetFrictionCachedState@PxsContactManager@physx@@QEAAXXZ 000000018005d410 f   LowLevel_static_64:PxsContactManager.obj
 0001:0005c420       ?setCCD@PxsContactManager@physx@@QEAAX_N@Z 000000018005d420 f   LowLevel_static_64:PxsContactManager.obj
 0001:0005c440       ??0PxcNpCacheStreamPair@physx@@QEAA@AEAVPxcNpMemBlockPool@1@@Z 000000018005d440 f   LowLevel_static_64:PxcNpCacheStreamPair.obj
 0001:0005c450       ?reserve@PxcNpCacheStreamPair@physx@@QEAAPEAEI@Z 000000018005d450 f   LowLevel_static_64:PxcNpCacheStreamPair.obj
 0001:0005c4f0       ?reset@PxcNpCacheStreamPair@physx@@QEAAXXZ 000000018005d4f0 f   LowLevel_static_64:PxcNpCacheStreamPair.obj
 0001:0005c500       ??0Articulation@Dy@physx@@QEAA@PEAX@Z 000000018005d500 f   LowLevelDynamics_static_64:DyArticulation.obj
 0001:0005c5a0       ??1Articulation@Dy@physx@@UEAA@XZ 000000018005d5a0 f   LowLevelDynamics_static_64:DyArticulation.obj
 0001:0005c760       ??_EArticulation@Dy@physx@@UEAAPEAXI@Z 000000018005d760 f i LowLevelDynamics_static_64:DyArticulation.obj
 0001:0005c760       ??_GArticulation@Dy@physx@@UEAAPEAXI@Z 000000018005d760 f i LowLevelDynamics_static_64:DyArticulation.obj
 0001:0005c7a0       ??_EArticulationV@Dy@physx@@UEAAPEAXI@Z 000000018005d7a0 f i LowLevelDynamics_static_64:DyArticulation.obj
 0001:0005c7a0       ??_GArticulationV@Dy@physx@@UEAAPEAXI@Z 000000018005d7a0 f i LowLevelDynamics_static_64:DyArticulation.obj
 0001:0005c820       ?PxcFsApplyJointDrives@Dy@physx@@YAXAEAUFsData@12@PEBT__m128@@@Z 000000018005d820 f   LowLevelDynamics_static_64:DyArticulation.obj
 0001:0005cd20       ?PxcFsComputeJointLoadsSimd@Dy@physx@@YAXAEBUFsData@12@PEIBUFsInertia@12@PEIAUMat33V@aos@shdfnd@2@PEIBMIIUPxcFsScratchAllocator@12@@Z 000000018005dd20 f   LowLevelDynamics_static_64:DyArticulation.obj
 0001:0005ea80       ?PxcFsPropagateDrivenInertiaSimd@Dy@physx@@YAXAEAUFsData@12@PEBUFsInertia@12@PEBMPEBUMat33V@aos@shdfnd@2@UPxcFsScratchAllocator@12@@Z 000000018005fa80 f   LowLevelDynamics_static_64:DyArticulation.obj
 0001:0005f920       ?PxcLtbFactor@Dy@physx@@YAXAEAUFsData@12@@Z 0000000180060920 f   LowLevelDynamics_static_64:DyArticulation.obj
 0001:000609c0       ?PxcLtbSolve@Dy@physx@@YAXAEBUFsData@12@PEAT__m128@@PEAUSpatialVectorV@Cm@2@@Z 00000001800619c0 f   LowLevelDynamics_static_64:DyArticulation.obj
 0001:00060f80       ?PxvRegisterArticulations@Dy@physx@@YAXXZ 0000000180061f80 f   LowLevelDynamics_static_64:DyArticulation.obj
 0001:00061010       ?applyImpulses@Articulation@Dy@physx@@SAXAEBUFsData@23@PEAUSpatialVectorV@Cm@3@1@Z 0000000180062010 f   LowLevelDynamics_static_64:DyArticulation.obj
 0001:000614f0       ?applyImpulses@PxvArticulationDriveCache@Dy@physx@@SAXAEBUFsData@23@PEAUSpatialVectorV@Cm@3@1@Z 00000001800624f0 f   LowLevelDynamics_static_64:DyArticulation.obj
 0001:00061500       ?computeJointDrives@Articulation@Dy@physx@@AEAAXAEAUFsData@23@PEAT__m128@@PEBUArticulationLink@23@PEBVPxTransform@3@PEBUArticulationJointTransforms@23@PEBUMat33V@aos@shdfnd@3@M@Z 0000000180062500 f   LowLevelDynamics_static_64:DyArticulation.obj
 0001:00061b20       ?computeSIS@ArticulationFnsSimdBase@Dy@physx@@SA?AUMat33V@aos@shdfnd@3@AEBUFsInertia@23@QEBUSpatialVectorV@Cm@3@QEAU893@@Z 0000000180062b20 f i LowLevelDynamics_static_64:DyArticulation.obj
 0001:00062040       ?computeUnconstrainedVelocities@Articulation@Dy@physx@@SAIAEBUArticulationSolverDesc@23@MAEAVPxConstraintAllocator@3@PEAUPxSolverConstraintDesc@3@AEAIAEBVPxVec3@3@_KPEAUSpatialVectorF@Cm@3@6@Z 0000000180063040 f   LowLevelDynamics_static_64:DyArticulation.obj
 0001:00062130       ?computeUnconstrainedVelocitiesInternal@Articulation@Dy@physx@@AEAAXAEBUArticulationSolverDesc@23@MAEBVPxVec3@3@_KPEIAUFsInertia@23@PEIAUArticulationJointTransforms@23@AEAUPxcFsScratchAllocator@23@@Z 0000000180063130 f   LowLevelDynamics_static_64:DyArticulation.obj
 0001:00062a60       ?computeUnconstrainedVelocitiesTGS@Articulation@Dy@physx@@SAXAEBUArticulationSolverDesc@23@MAEBVPxVec3@3@_KPEAUSpatialVectorF@Cm@3@3@Z 0000000180063a60 f   LowLevelDynamics_static_64:DyArticulation.obj
 0001:00062ac0       ?deltaMotionToMotionVelocity@Articulation@Dy@physx@@SAXAEBUArticulationSolverDesc@23@M@Z 0000000180063ac0 f   LowLevelDynamics_static_64:DyArticulation.obj
 0001:00062b40       ?fillIndexedManager@Articulation@Dy@physx@@UEAAXIAEA_KAEAE@Z 0000000180063b40 f   LowLevelDynamics_static_64:DyArticulation.obj
 0001:00062b50       ?getCurrentTransform@Articulation@Dy@physx@@UEBAAEBVPxTransform@3@I@Z 0000000180063b50 f i LowLevelDynamics_static_64:DyArticulation.obj
 0001:00062b60       ?getDataSizes@Articulation@Dy@physx@@UEAAXIAEAI00@Z 0000000180063b60 f   LowLevelDynamics_static_64:DyArticulation.obj
 0001:00062b90       ?getDeltaQ@Articulation@Dy@physx@@UEBAAEBVPxQuat@3@I@Z 0000000180063b90 f i LowLevelDynamics_static_64:DyArticulation.obj
 0001:00062ba0       ?getImpulseResponse@Articulation@Dy@physx@@UEBAXIPEAUSpatialVectorF@Cm@3@AEBVSpatialVector@53@AEAV653@@Z 0000000180063ba0 f   LowLevelDynamics_static_64:DyArticulation.obj
 0001:00062ba0       ?getImpulseResponse@Articulation@Dy@physx@@UEBAXIPEAUSpatialVectorV@Cm@3@AEBU453@AEAU453@@Z 0000000180063ba0 f   LowLevelDynamics_static_64:DyArticulation.obj
 0001:00062bc0       ?getImpulseResponse@PxvArticulationDriveCache@Dy@physx@@SAXAEBUFsData@23@IAEBUSpatialVectorV@Cm@3@AEAU563@@Z 0000000180063bc0 f   LowLevelDynamics_static_64:DyArticulation.obj
 0001:00062bd0       ?getImpulseSelfResponse@Articulation@Dy@physx@@UEBAXIIPEAUSpatialVectorF@Cm@3@AEBVSpatialVector@53@1AEAV653@2@Z 0000000180063bd0 f   LowLevelDynamics_static_64:DyArticulation.obj
 0001:00062c10       ?getLinkMaxPenBias@Articulation@Dy@physx@@UEBAMI@Z 0000000180063c10 f   LowLevelDynamics_static_64:DyArticulation.obj
 0001:00062c40       ?getLinkMotionVector@Articulation@Dy@physx@@UEBA?AUSpatialVectorV@Cm@3@I@Z 0000000180063c40 f   LowLevelDynamics_static_64:DyArticulation.obj
 0001:00062c70       ?getLinkVelocity@Articulation@Dy@physx@@UEBA?AUSpatialVectorV@Cm@3@I@Z 0000000180063c70 f   LowLevelDynamics_static_64:DyArticulation.obj
 0001:00062ca0       ?getMotionAcceleration@Articulation@Dy@physx@@UEBA?AVSpatialVector@Cm@3@I@Z 0000000180063ca0 f   LowLevelDynamics_static_64:DyArticulation.obj
 0001:00062cc0       ?getMotionVelocity@Articulation@Dy@physx@@UEBA?AVSpatialVector@Cm@3@I@Z 0000000180063cc0 f   LowLevelDynamics_static_64:DyArticulation.obj
 0001:00062d20       ?initialize@PxvArticulationDriveCache@Dy@physx@@SAXAEAUFsData@23@GPEBUArticulationLink@23@MIPEADI@Z 0000000180063d20 f   LowLevelDynamics_static_64:DyArticulation.obj
 0001:00062f60       ?onUpdateSolverDesc@Articulation@Dy@physx@@UEAAXXZ 0000000180063f60 f i LowLevelDynamics_static_64:DyArticulation.obj
 0001:00062fb0       ?prepareDataBlock@Articulation@Dy@physx@@SAXAEAUFsData@23@PEBUArticulationLink@23@GPEAVPxTransform@3@PEAVPxQuat@3@PEAUFsInertia@23@PEAUArticulationJointTransforms@23@I@Z 0000000180063fb0 f   LowLevelDynamics_static_64:DyArticulation.obj
 0001:000636d0       ?prepareFsData@Articulation@Dy@physx@@SAXAEAUFsData@23@PEBUArticulationLink@23@@Z 00000001800646d0 f   LowLevelDynamics_static_64:DyArticulation.obj
 0001:00063880       ?prepareLtbMatrix@Articulation@Dy@physx@@AEAAXAEAUFsData@23@PEBUFsInertia@23@PEBVPxTransform@3@PEBUArticulationJointTransforms@23@M@Z 0000000180064880 f   LowLevelDynamics_static_64:DyArticulation.obj
 0001:00063d20       ?pxcFsApplyImpulse@Articulation@Dy@physx@@UEAAXIT__m128@@0PEAUSpatialVectorF@Cm@3@1@Z 0000000180064d20 f   LowLevelDynamics_static_64:DyArticulation.obj
 0001:00063e90       ?pxcFsApplyImpulses@Articulation@Dy@physx@@UEAAXIAEBT__m128@@0I00PEAUSpatialVectorF@Cm@3@1@Z 0000000180064e90 f   LowLevelDynamics_static_64:DyArticulation.obj
 0001:00063f40       ?pxcFsGetVelocities@Articulation@Dy@physx@@UEAAXIIAEAUSpatialVectorV@Cm@3@0@Z 0000000180064f40 f   LowLevelDynamics_static_64:DyArticulation.obj
 0001:00063fb0       ?pxcFsGetVelocity@Articulation@Dy@physx@@UEAA?AUSpatialVectorV@Cm@3@I@Z 0000000180064fb0 f   LowLevelDynamics_static_64:DyArticulation.obj
 0001:000644f0       ?pxcFsGetVelocityTGS@Articulation@Dy@physx@@UEAA?AUSpatialVectorV@Cm@3@I@Z 00000001800654f0 f i LowLevelDynamics_static_64:DyArticulation.obj
 0001:00064510       ?recordDeltaMotion@Articulation@Dy@physx@@SAXAEBUArticulationSolverDesc@23@MPEAUSpatialVectorF@Cm@3@M@Z 0000000180065510 f   LowLevelDynamics_static_64:DyArticulation.obj
 0001:00064800       ?recreate@?$Array@UMat33V@aos@shdfnd@physx@@V?$ReflectionAllocator@UMat33V@aos@shdfnd@physx@@@34@@shdfnd@physx@@IEAAXI@Z 0000000180065800 f i LowLevelDynamics_static_64:DyArticulation.obj
 0001:00064930       ?recreate@?$Array@USpatialVectorV@Cm@physx@@V?$ReflectionAllocator@USpatialVectorV@Cm@physx@@@shdfnd@3@@shdfnd@physx@@IEAAXI@Z 0000000180065930 f i LowLevelDynamics_static_64:DyArticulation.obj
 0001:00064a50       ?recreate@?$Array@VPxQuat@physx@@V?$ReflectionAllocator@VPxQuat@physx@@@shdfnd@2@@shdfnd@physx@@IEAAXI@Z 0000000180065a50 f i LowLevelDynamics_static_64:DyArticulation.obj
 0001:00064c20       ?recreate@?$Array@VPxTransform@physx@@V?$ReflectionAllocator@VPxTransform@physx@@@shdfnd@2@@shdfnd@physx@@IEAAXI@Z 0000000180065c20 f i LowLevelDynamics_static_64:DyArticulation.obj
 0001:00064e60       ?resize@?$Array@DV?$ReflectionAllocator@D@shdfnd@physx@@@shdfnd@physx@@QEAAXIAEBD@Z 0000000180065e60 f i LowLevelDynamics_static_64:DyArticulation.obj
 0001:00064f20       ?resize@?$Array@UMat33V@aos@shdfnd@physx@@V?$ReflectionAllocator@UMat33V@aos@shdfnd@physx@@@34@@shdfnd@physx@@QEAAXIAEBUMat33V@aos@23@@Z 0000000180065f20 f i LowLevelDynamics_static_64:DyArticulation.obj
 0001:00064fb0       ?resize@?$Array@USpatialVectorV@Cm@physx@@V?$ReflectionAllocator@USpatialVectorV@Cm@physx@@@shdfnd@3@@shdfnd@physx@@QEAAXIAEBUSpatialVectorV@Cm@3@@Z 0000000180065fb0 f i LowLevelDynamics_static_64:DyArticulation.obj
 0001:00065020       ?resize@?$Array@VPxQuat@physx@@V?$ReflectionAllocator@VPxQuat@physx@@@shdfnd@2@@shdfnd@physx@@QEAAXIAEBVPxQuat@3@@Z 0000000180066020 f i LowLevelDynamics_static_64:DyArticulation.obj
 0001:00065140       ?resize@?$Array@VPxTransform@physx@@V?$ReflectionAllocator@VPxTransform@physx@@@shdfnd@2@@shdfnd@physx@@QEAAXIAEBVPxTransform@3@@Z 0000000180066140 f i LowLevelDynamics_static_64:DyArticulation.obj
 0001:000652c0       ?resize@Articulation@Dy@physx@@UEAA_NI@Z 00000001800662c0 f   LowLevelDynamics_static_64:DyArticulation.obj
 0001:00065510       ?resize@ArticulationV@Dy@physx@@UEAA_NI@Z 0000000180066510 f   LowLevelDynamics_static_64:DyArticulation.obj
 0001:00065540       ?saveVelocity@Articulation@Dy@physx@@SAXAEBUArticulationSolverDesc@23@PEAUSpatialVectorF@Cm@3@@Z 0000000180066540 f   LowLevelDynamics_static_64:DyArticulation.obj
 0001:000656c0       ?saveVelocityTGS@Articulation@Dy@physx@@SAXAEBUArticulationSolverDesc@23@M@Z 00000001800666c0 f   LowLevelDynamics_static_64:DyArticulation.obj
 0001:00065870       ?setInertia@Articulation@Dy@physx@@SAXAEAUFsInertia@23@AEBUPxsBodyCore@3@AEBVPxTransform@3@@Z 0000000180066870 f   LowLevelDynamics_static_64:DyArticulation.obj
 0001:00065c40       ?setJointTransforms@Articulation@Dy@physx@@SAXAEAUArticulationJointTransforms@23@AEBVPxTransform@3@1AEBUArticulationJointCore@23@@Z 0000000180066c40 f   LowLevelDynamics_static_64:DyArticulation.obj
 0001:00066170       ?updateBodies@Articulation@Dy@physx@@SAXAEBUArticulationSolverDesc@23@M@Z 0000000180067170 f   LowLevelDynamics_static_64:DyArticulation.obj
 0001:00067380       ??$median3@UPxSolverConstraintDesc@physx@@$$CBUArticulationStaticConstraintSortPredicate@Dy@2@@internal@shdfnd@physx@@YAXPEAUPxSolverConstraintDesc@2@HHAEBUArticulationStaticConstraintSortPredicate@Dy@2@@Z 0000000180068380 f i LowLevelDynamics_static_64:DyFeatherstoneArticulation.obj
 0001:00067530       ??$sort@UPxSolverConstraintDesc@physx@@UArticulationStaticConstraintSortPredicate@Dy@2@V?$ReflectionAllocator@UPxSolverConstraintDesc@physx@@@shdfnd@2@@shdfnd@physx@@YAXPEAUPxSolverConstraintDesc@1@IAEBUArticulationStaticConstraintSortPredicate@Dy@1@AEBV?$ReflectionAllocator@UPxSolverConstraintDesc@physx@@@01@I@Z 0000000180068530 f i LowLevelDynamics_static_64:DyFeatherstoneArticulation.obj
 0001:000679f0       ??0ArticulationData@Dy@physx@@QEAA@XZ 00000001800689f0 f i LowLevelDynamics_static_64:DyFeatherstoneArticulation.obj
 0001:00067b90       ??0FeatherstoneArticulation@Dy@physx@@QEAA@PEAX@Z 0000000180068b90 f   LowLevelDynamics_static_64:DyFeatherstoneArticulation.obj
 0001:00067c20       ??1ArticulationData@Dy@physx@@QEAA@XZ 0000000180068c20 f   LowLevelDynamics_static_64:DyFeatherstoneArticulation.obj
 0001:000681b0       ??1FeatherstoneArticulation@Dy@physx@@UEAA@XZ 00000001800691b0 f   LowLevelDynamics_static_64:DyFeatherstoneArticulation.obj
 0001:00068280       ??_EBlockAllocator@Dy@physx@@UEAAPEAXI@Z 0000000180069280 f i LowLevelDynamics_static_64:DyFeatherstoneArticulation.obj
 0001:00068280       ??_GBlockAllocator@Dy@physx@@UEAAPEAXI@Z 0000000180069280 f i LowLevelDynamics_static_64:DyFeatherstoneArticulation.obj
 0001:000682b0       ??_EFeatherstoneArticulation@Dy@physx@@UEAAPEAXI@Z 00000001800692b0 f i LowLevelDynamics_static_64:DyFeatherstoneArticulation.obj
 0001:000682b0       ??_GFeatherstoneArticulation@Dy@physx@@UEAAPEAXI@Z 00000001800692b0 f i LowLevelDynamics_static_64:DyFeatherstoneArticulation.obj
 0001:000683a0       ??_EPxConstraintAllocator@physx@@UEAAPEAXI@Z 00000001800693a0 f i LowLevelDynamics_static_64:DyFeatherstoneArticulation.obj
 0001:000683a0       ??_EPxsSimulationControllerCallback@physx@@UEAAPEAXI@Z 00000001800693a0 f i SimulationController_static_64:ScScene.obj
 0001:000683a0       ??_GPxConstraintAllocator@physx@@UEAAPEAXI@Z 00000001800693a0 f i LowLevelDynamics_static_64:DyFeatherstoneArticulation.obj
 0001:000683a0       ??_GPxsSimulationControllerCallback@physx@@UEAAPEAXI@Z 00000001800693a0 f i SimulationController_static_64:ScScene.obj
 0001:000683d0       ?PxcFsFlushVelocity@Dy@physx@@YAXAEAVFeatherstoneArticulation@12@PEAUSpatialVectorF@Cm@2@@Z 00000001800693d0 f   LowLevelDynamics_static_64:DyFeatherstoneArticulation.obj
 0001:00068b60       ?PxvRegisterArticulationsReducedCoordinate@Dy@physx@@YAXXZ 0000000180069b60 f   LowLevelDynamics_static_64:DyFeatherstoneArticulation.obj
 0001:00068bf0       ?allocate@?$Array@IV?$ReflectionAllocator@I@shdfnd@physx@@@shdfnd@physx@@IEAAPEAII@Z 0000000180069bf0 f i LowLevelDynamics_static_64:DyFeatherstoneArticulation.obj
 0001:00068c90       ?allocate@?$ReflectionAllocator@UPxSolverConstraintDesc@physx@@@shdfnd@physx@@QEAAPEAX_KPEBDH@Z 0000000180069c90 f i LowLevelDynamics_static_64:DyFeatherstoneArticulation.obj
 0001:00068d30       ?allocateScratchSpatialData@FeatherstoneArticulation@Dy@physx@@QEAAPEAEPEAVPxcScratchAllocator@3@IAEAUScratchData@23@_N@Z 0000000180069d30 f   LowLevelDynamics_static_64:DyFeatherstoneArticulation.obj
 0001:00068e50       ?applyCache@FeatherstoneArticulation@Dy@physx@@UEAA_NAEAVPxArticulationCache@3@V?$PxFlags@W4Enum@PxArticulationCache@physx@@E@3@@Z 0000000180069e50 f   LowLevelDynamics_static_64:DyFeatherstoneArticulation.obj
 0001:00068eb0       ?computeArticJacobianAxes@Dy@physx@@YAXQEAVPxVec3@2@AEBVPxQuat@2@1@Z 0000000180069eb0 f i LowLevelDynamics_static_64:DyFeatherstoneArticulation.obj
 0001:00069140       ?computeC@FeatherstoneArticulation@Dy@physx@@IEAAXAEAVArticulationData@23@AEAUScratchData@23@@Z 000000018006a140 f   LowLevelDynamics_static_64:DyFeatherstoneArticulation.obj
 0001:00069510       ?computeD@FeatherstoneArticulation@Dy@physx@@IEAAXAEAVArticulationData@23@AEAUScratchData@23@PEAUSpatialVectorF@Cm@3@2@Z 000000018006a510 f   LowLevelDynamics_static_64:DyFeatherstoneArticulation.obj
 0001:00069d60       ?computeDofs@FeatherstoneArticulation@Dy@physx@@IEAAXXZ 000000018006ad60 f   LowLevelDynamics_static_64:DyFeatherstoneArticulation.obj
 0001:00069f30       ?computeLinkVelocities@FeatherstoneArticulation@Dy@physx@@IEAAXAEAVArticulationData@23@AEAUScratchData@23@@Z 000000018006af30 f   LowLevelDynamics_static_64:DyFeatherstoneArticulation.obj
 0001:0006a360       ?computeLinkVelocities@FeatherstoneArticulation@Dy@physx@@QEAAXAEAVArticulationData@23@@Z 000000018006b360 f   LowLevelDynamics_static_64:DyFeatherstoneArticulation.obj
 0001:0006ab20       ?computeRelativeTransformC2B@FeatherstoneArticulation@Dy@physx@@IEAAXAEAVArticulationData@23@@Z 000000018006bb20 f   LowLevelDynamics_static_64:DyFeatherstoneArticulation.obj
 0001:0006ad10       ?computeRelativeTransformC2P@FeatherstoneArticulation@Dy@physx@@IEAAXAEAVArticulationData@23@@Z 000000018006bd10 f   LowLevelDynamics_static_64:DyFeatherstoneArticulation.obj
 0001:0006b430       ?computeSpatialInertia@FeatherstoneArticulation@Dy@physx@@IEAAXAEAVArticulationData@23@@Z 000000018006c430 f   LowLevelDynamics_static_64:DyFeatherstoneArticulation.obj
 0001:0006b7f0       ?computeZ@FeatherstoneArticulation@Dy@physx@@IEAAXAEAVArticulationData@23@AEBVPxVec3@3@AEAUScratchData@23@@Z 000000018006c7f0 f   LowLevelDynamics_static_64:DyFeatherstoneArticulation.obj
 0001:0006bbf0       ?concludeInternalConstraints@FeatherstoneArticulation@Dy@physx@@MEAAX_N@Z 000000018006cbf0 f   LowLevelDynamics_static_64:DyFeatherstoneArticulation.obj
 0001:0006bc70       ?copy@?$Array@UArticulationInternalLockedAxis@Dy@physx@@V?$ReflectionAllocator@UArticulationInternalLockedAxis@Dy@physx@@@shdfnd@3@@shdfnd@physx@@KAXPEAUArticulationInternalLockedAxis@Dy@3@0PEBU453@@Z 000000018006cc70 f i LowLevelDynamics_static_64:DyFeatherstoneArticulation.obj
 0001:0006bfe0       ?copy@?$Array@UIsInvD@Dy@physx@@V?$ReflectionAllocator@UIsInvD@Dy@physx@@@shdfnd@3@@shdfnd@physx@@KAXPEAUIsInvD@Dy@3@0PEBU453@@Z 000000018006cfe0 f i LowLevelDynamics_static_64:DyFeatherstoneArticulation.obj
 0001:0006c410       ?copy@?$Array@USpatialSubspaceMatrix@Dy@physx@@V?$ReflectionAllocator@USpatialSubspaceMatrix@Dy@physx@@@shdfnd@3@@shdfnd@physx@@KAXPEAUSpatialSubspaceMatrix@Dy@3@0PEBU453@@Z 000000018006d410 f i LowLevelDynamics_static_64:DyFeatherstoneArticulation.obj
 0001:0006c780       ?copyInternalStateToCache@FeatherstoneArticulation@Dy@physx@@UEAAXAEAVPxArticulationCache@3@V?$PxFlags@W4Enum@PxArticulationCache@physx@@E@3@@Z 000000018006d780 f   LowLevelDynamics_static_64:DyFeatherstoneArticulation.obj
 0001:0006cee0       ?copyJointData@FeatherstoneArticulation@Dy@physx@@IEAAXAEAVArticulationData@23@PEAMPEBM@Z 000000018006dee0 f   LowLevelDynamics_static_64:DyFeatherstoneArticulation.obj
 0001:0006cf00       ?create@?$Array@USpatialSubspaceMatrix@Dy@physx@@V?$ReflectionAllocator@USpatialSubspaceMatrix@Dy@physx@@@shdfnd@3@@shdfnd@physx@@KAXPEAUSpatialSubspaceMatrix@Dy@3@0AEBU453@@Z 000000018006df00 f i LowLevelDynamics_static_64:DyFeatherstoneArticulation.obj
 0001:0006d250       ?deltaMotionToMotionVelocity@FeatherstoneArticulation@Dy@physx@@SAXAEBUArticulationSolverDesc@23@M@Z 000000018006e250 f   LowLevelDynamics_static_64:DyFeatherstoneArticulation.obj
 0001:0006d740       ?exp@shdfnd@physx@@YA?AVPxQuat@2@AEBVPxVec3@2@@Z 000000018006e740 f i LowLevelDynamics_static_64:DyFeatherstoneArticulation.obj
 0001:0006d830       ?fillIndexedManager@FeatherstoneArticulation@Dy@physx@@UEAAXIAEA_KAEAE@Z 000000018006e830 f   LowLevelDynamics_static_64:DyFeatherstoneArticulation.obj
 0001:0006d860       ?findInputPatches@BlockAllocator@Dy@physx@@UEAAPEAEPEAE@Z 000000018006e860 f i LowLevelDynamics_static_64:DyFeatherstoneArticulation.obj
 0001:0006d870       ?getCurrentTransform@FeatherstoneArticulation@Dy@physx@@UEBAAEBVPxTransform@3@I@Z 000000018006e870 f   LowLevelDynamics_static_64:DyFeatherstoneArticulation.obj
 0001:0006d880       ?getDataSizes@FeatherstoneArticulation@Dy@physx@@UEAAXIAEAI00@Z 000000018006e880 f   LowLevelDynamics_static_64:DyFeatherstoneArticulation.obj
 0001:0006d890       ?getDeltaQ@FeatherstoneArticulation@Dy@physx@@UEBAAEBVPxQuat@3@I@Z 000000018006e890 f   LowLevelDynamics_static_64:DyFeatherstoneArticulation.obj
 0001:0006d8a0       ?getDeltaVWithDeltaJV@FeatherstoneArticulation@Dy@physx@@KA?AUSpatialVectorF@Cm@3@_NIAEBVArticulationData@23@PEAU453@PEAM@Z 000000018006e8a0 f   LowLevelDynamics_static_64:DyFeatherstoneArticulation.obj
 0001:0006de70       ?getDenseJacobian@FeatherstoneArticulation@Dy@physx@@UEAAXAEAVPxArticulationCache@3@AEAI1@Z 000000018006ee70 f   LowLevelDynamics_static_64:DyFeatherstoneArticulation.obj
 0001:0006e8a0       ?getDof@FeatherstoneArticulation@Dy@physx@@UEAAII@Z 000000018006f8a0 f   LowLevelDynamics_static_64:DyFeatherstoneArticulation.obj
 0001:0006e8c0       ?getDofs@FeatherstoneArticulation@Dy@physx@@UEAAIXZ 000000018006f8c0 f   LowLevelDynamics_static_64:DyFeatherstoneArticulation.obj
 0001:0006e8f0       ?getImpulseResponse@FeatherstoneArticulation@Dy@physx@@UEBAXIPEAUSpatialVectorF@Cm@3@AEBVSpatialVector@53@AEAV653@@Z 000000018006f8f0 f   LowLevelDynamics_static_64:DyFeatherstoneArticulation.obj
 0001:0006ea70       ?getImpulseResponse@FeatherstoneArticulation@Dy@physx@@UEBAXIPEAUSpatialVectorV@Cm@3@AEBU453@AEAU453@@Z 000000018006fa70 f   LowLevelDynamics_static_64:DyFeatherstoneArticulation.obj
 0001:0006ebe0       ?getImpulseResponseSlow@FeatherstoneArticulation@Dy@physx@@SAXPEAUArticulationLink@23@AEBVArticulationData@23@IAEBVSpatialVector@Cm@3@AEAV673@I23PEAUSpatialVectorF@73@@Z 000000018006fbe0 f   LowLevelDynamics_static_64:DyFeatherstoneArticulation.obj
 0001:0006f550       ?getImpulseResponseWithJ@FeatherstoneArticulation@Dy@physx@@KA?AUSpatialVectorF@Cm@3@I_NAEBVArticulationData@23@PEAU453@AEBU453@PEAM@Z 0000000180070550 f   LowLevelDynamics_static_64:DyFeatherstoneArticulation.obj
 0001:0006f700       ?getImpulseSelfResponse@FeatherstoneArticulation@Dy@physx@@SAXPEAUArticulationLink@23@_NPEAUSpatialVectorF@Cm@3@AEBVArticulationData@23@IAEBUSpatialVectorV@63@AEAU863@I45@Z 0000000180070700 f   LowLevelDynamics_static_64:DyFeatherstoneArticulation.obj
 0001:0006fad0       ?getImpulseSelfResponse@FeatherstoneArticulation@Dy@physx@@UEBAXIIPEAUSpatialVectorF@Cm@3@AEBVSpatialVector@53@1AEAV653@2@Z 0000000180070ad0 f   LowLevelDynamics_static_64:DyFeatherstoneArticulation.obj
 0001:0006fb40       ?getLinkData@ArticulationData@Dy@physx@@QEBAAEAVArticulationLinkData@23@I@Z 0000000180070b40 f   LowLevelDynamics_static_64:DyFeatherstoneArticulation.obj
 0001:0006fb60       ?getLinkMaxPenBias@FeatherstoneArticulation@Dy@physx@@UEBAMI@Z 0000000180070b60 f   LowLevelDynamics_static_64:DyFeatherstoneArticulation.obj
 0001:0006fb80       ?getLinkMotionVector@FeatherstoneArticulation@Dy@physx@@UEBA?AUSpatialVectorV@Cm@3@I@Z 0000000180070b80 f   LowLevelDynamics_static_64:DyFeatherstoneArticulation.obj
 0001:0006fbc0       ?getLinkVelocity@FeatherstoneArticulation@Dy@physx@@UEBA?AUSpatialVectorV@Cm@3@I@Z 0000000180070bc0 f   LowLevelDynamics_static_64:DyFeatherstoneArticulation.obj
 0001:0006fbf0       ?getMotionAcceleration@FeatherstoneArticulation@Dy@physx@@UEBA?AVSpatialVector@Cm@3@I@Z 0000000180070bf0 f   LowLevelDynamics_static_64:DyFeatherstoneArticulation.obj
 0001:0006fc10       ?getMotionVelocity@FeatherstoneArticulation@Dy@physx@@UEBA?AVSpatialVector@Cm@3@I@Z 0000000180070c10 f   LowLevelDynamics_static_64:DyFeatherstoneArticulation.obj
 0001:0006fc60       ?getZ@FeatherstoneArticulation@Dy@physx@@KAXIAEBVArticulationData@23@PEAUSpatialVectorF@Cm@3@AEBU563@@Z 0000000180070c60 f   LowLevelDynamics_static_64:DyFeatherstoneArticulation.obj
 0001:0006fdd0       ?growAndPushBack@?$Array@UPxSolverConstraintDesc@physx@@V?$ReflectionAllocator@UPxSolverConstraintDesc@physx@@@shdfnd@2@@shdfnd@physx@@IEAAAEAUPxSolverConstraintDesc@3@AEBU43@@Z 0000000180070dd0 f i LowLevelDynamics_static_64:DyFeatherstoneArticulation.obj
 0001:0006fee0       ?jcalc@FeatherstoneArticulation@Dy@physx@@IEAAXAEAVArticulationData@23@_N@Z 0000000180070ee0 f   LowLevelDynamics_static_64:DyFeatherstoneArticulation.obj
 0001:000702d0       ?onUpdateSolverDesc@FeatherstoneArticulation@Dy@physx@@UEAAXXZ 00000001800712d0 f   LowLevelDynamics_static_64:DyFeatherstoneArticulation.obj
 0001:00070330       ?prepareStaticConstraints@FeatherstoneArticulation@Dy@physx@@UEAAXMMAEAVPxsContactManagerOutputIterator@3@AEAVThreadContext@23@MMMMMPEAUPxSolverBodyData@3@AEAVPxsConstraintBlockManager@3@PEAUConstraintWriteback@23@@Z 0000000180071330 f   LowLevelDynamics_static_64:DyFeatherstoneArticulation.obj
 0001:00070ac0       ?prepareStaticConstraintsTGS@FeatherstoneArticulation@Dy@physx@@UEAAXMMMMAEAVPxsContactManagerOutputIterator@3@AEAVThreadContext@23@MMMPEAUPxTGSSolverBodyData@3@PEAUPxTGSSolverBodyTxInertia@3@AEAVPxsConstraintBlockManager@3@PEAUConstraintWriteback@23@IM@Z 0000000180071ac0 f   LowLevelDynamics_static_64:DyFeatherstoneArticulation.obj
 0001:00071310       ?propagateImpulseW@FeatherstoneArticulation@Dy@physx@@SA?AUSpatialVectorF@Cm@3@AEBUIsInvD@23@AEBVPxVec3@3@AEBUSpatialSubspaceMatrix@23@AEBU453@@Z 0000000180072310 f   LowLevelDynamics_static_64:DyFeatherstoneArticulation.obj
 0001:00071a20       ?propagateTransform@FeatherstoneArticulation@Dy@physx@@QEAA?AVPxTransform@3@IPEAUArticulationLink@23@AEAVArticulationJointCoreData@23@PEAUSpatialVectorF@Cm@3@MAEBV43@3PEAM44AEBUSpatialSubspaceMatrix@23@5@Z 0000000180072a20 f   LowLevelDynamics_static_64:DyFeatherstoneArticulation.obj
 0001:00072890       ?propagateVelocityTestImpulseW@FeatherstoneArticulation@Dy@physx@@SA?AUSpatialVectorF@Cm@3@AEBVPxVec3@3@AEBUSpatialMatrix@23@AEBUInvStIs@23@AEBUSpatialSubspaceMatrix@23@AEBU453@4@Z 0000000180073890 f   LowLevelDynamics_static_64:DyFeatherstoneArticulation.obj
 0001:00073040       ?propagateVelocityW@FeatherstoneArticulation@Dy@physx@@SA?AUSpatialVectorF@Cm@3@AEBVPxVec3@3@AEBUSpatialMatrix@23@AEBUInvStIs@23@AEBUSpatialSubspaceMatrix@23@AEBU453@PEAM4@Z 0000000180074040 f   LowLevelDynamics_static_64:DyFeatherstoneArticulation.obj
 0001:00073870       ?pxcFsApplyImpulse@FeatherstoneArticulation@Dy@physx@@UEAAXIT__m128@@0PEAUSpatialVectorF@Cm@3@1@Z 0000000180074870 f   LowLevelDynamics_static_64:DyFeatherstoneArticulation.obj
 0001:00073a80       ?pxcFsApplyImpulses@FeatherstoneArticulation@Dy@physx@@UEAAXIAEBT__m128@@0I00PEAUSpatialVectorF@Cm@3@1@Z 0000000180074a80 f   LowLevelDynamics_static_64:DyFeatherstoneArticulation.obj
 0001:00074180       ?pxcFsApplyImpulses@FeatherstoneArticulation@Dy@physx@@UEAAXPEAUSpatialVectorF@Cm@3@@Z 0000000180075180 f   LowLevelDynamics_static_64:DyFeatherstoneArticulation.obj
 0001:00074390       ?pxcFsGetVelocities@FeatherstoneArticulation@Dy@physx@@UEAAXIIAEAUSpatialVectorV@Cm@3@0@Z 0000000180075390 f   LowLevelDynamics_static_64:DyFeatherstoneArticulation.obj
 0001:00074d80       ?pxcFsGetVelocity@FeatherstoneArticulation@Dy@physx@@UEAA?AUSpatialVectorV@Cm@3@I@Z 0000000180075d80 f   LowLevelDynamics_static_64:DyFeatherstoneArticulation.obj
 0001:00075320       ?pxcFsGetVelocityTGS@FeatherstoneArticulation@Dy@physx@@UEAA?AUSpatialVectorV@Cm@3@I@Z 0000000180076320 f   LowLevelDynamics_static_64:DyFeatherstoneArticulation.obj
 0001:00075340       ?recordDeltaMotion@FeatherstoneArticulation@Dy@physx@@SAXAEBUArticulationSolverDesc@23@MPEAUSpatialVectorF@Cm@3@M@Z 0000000180076340 f   LowLevelDynamics_static_64:DyFeatherstoneArticulation.obj
 0001:00075a00       ?recreate@?$Array@IV?$ReflectionAllocator@I@shdfnd@physx@@@shdfnd@physx@@IEAAXI@Z 0000000180076a00 f i LowLevelDynamics_static_64:DyFeatherstoneArticulation.obj
 0001:00075aa0       ?recreate@?$Array@MV?$ReflectionAllocator@M@shdfnd@physx@@@shdfnd@physx@@IEAAXI@Z 0000000180076aa0 f i LowLevelDynamics_static_64:DyFeatherstoneArticulation.obj
 0001:00075be0       ?recreate@?$Array@UArticulationInternalConstraint@Dy@physx@@V?$ReflectionAllocator@UArticulationInternalConstraint@Dy@physx@@@shdfnd@3@@shdfnd@physx@@IEAAXI@Z 0000000180076be0 f i LowLevelDynamics_static_64:DyFeatherstoneArticulation.obj
 0001:00075e20       ?recreate@?$Array@UArticulationInternalLockedAxis@Dy@physx@@V?$ReflectionAllocator@UArticulationInternalLockedAxis@Dy@physx@@@shdfnd@3@@shdfnd@physx@@IEAAXI@Z 0000000180076e20 f i LowLevelDynamics_static_64:DyFeatherstoneArticulation.obj
 0001:00075f20       ?recreate@?$Array@UInvStIs@Dy@physx@@V?$ReflectionAllocator@UInvStIs@Dy@physx@@@shdfnd@3@@shdfnd@physx@@IEAAXI@Z 0000000180076f20 f i LowLevelDynamics_static_64:DyFeatherstoneArticulation.obj
 0001:00076050       ?recreate@?$Array@UIsInvD@Dy@physx@@V?$ReflectionAllocator@UIsInvD@Dy@physx@@@shdfnd@3@@shdfnd@physx@@IEAAXI@Z 0000000180077050 f i LowLevelDynamics_static_64:DyFeatherstoneArticulation.obj
 0001:00076150       ?recreate@?$Array@USpatialImpulseResponseMatrix@Dy@physx@@V?$ReflectionAllocator@USpatialImpulseResponseMatrix@Dy@physx@@@shdfnd@3@@shdfnd@physx@@IEAAXI@Z 0000000180077150 f i LowLevelDynamics_static_64:DyFeatherstoneArticulation.obj
 0001:000763b0       ?recreate@?$Array@USpatialMatrix@Dy@physx@@V?$ReflectionAllocator@USpatialMatrix@Dy@physx@@@shdfnd@3@@shdfnd@physx@@IEAAXI@Z 00000001800773b0 f i LowLevelDynamics_static_64:DyFeatherstoneArticulation.obj
 0001:000765b0       ?recreate@?$Array@USpatialSubspaceMatrix@Dy@physx@@V?$ReflectionAllocator@USpatialSubspaceMatrix@Dy@physx@@@shdfnd@3@@shdfnd@physx@@IEAAXI@Z 00000001800775b0 f i LowLevelDynamics_static_64:DyFeatherstoneArticulation.obj
 0001:000766b0       ?recreate@?$Array@USpatialVectorF@Cm@physx@@V?$ReflectionAllocator@USpatialVectorF@Cm@physx@@@shdfnd@3@@shdfnd@physx@@IEAAXI@Z 00000001800776b0 f i LowLevelDynamics_static_64:DyFeatherstoneArticulation.obj
 0001:00076930       ?resize@?$Array@USpatialSubspaceMatrix@Dy@physx@@V?$ReflectionAllocator@USpatialSubspaceMatrix@Dy@physx@@@shdfnd@3@@shdfnd@physx@@QEAAXIAEBUSpatialSubspaceMatrix@Dy@3@@Z 0000000180077930 f i LowLevelDynamics_static_64:DyFeatherstoneArticulation.obj
 0001:00076990       ?resize@FeatherstoneArticulation@Dy@physx@@UEAA_NI@Z 0000000180077990 f   LowLevelDynamics_static_64:DyFeatherstoneArticulation.obj
 0001:00076a30       ?resizeJointData@ArticulationData@Dy@physx@@QEAAXI@Z 0000000180077a30 f   LowLevelDynamics_static_64:DyFeatherstoneArticulation.obj
 0001:00076b60       ?resizeLinkData@ArticulationData@Dy@physx@@QEAAXI@Z 0000000180077b60 f   LowLevelDynamics_static_64:DyFeatherstoneArticulation.obj
 0001:00077030       ?saveVelocity@FeatherstoneArticulation@Dy@physx@@SAXAEBUArticulationSolverDesc@23@PEAUSpatialVectorF@Cm@3@@Z 0000000180078030 f   LowLevelDynamics_static_64:DyFeatherstoneArticulation.obj
 0001:000770b0       ?setJointPose@ArticulationJointCore@Dy@physx@@QEAAXAEAVArticulationJointCoreData@23@AEAUSpatialSubspaceMatrix@23@_NAEAVPxQuat@3@@Z 00000001800780b0 f   LowLevelDynamics_static_64:DyFeatherstoneArticulation.obj
 0001:000777f0       ?setupInternalConstraints@FeatherstoneArticulation@Dy@physx@@QEAAXPEAUArticulationLink@23@I_NAEAVArticulationData@23@PEAUSpatialVectorF@Cm@3@MMMM_N@Z 00000001800787f0 f   LowLevelDynamics_static_64:DyFeatherstoneArticulation.obj
 0001:000779f0       ?setupInternalConstraintsRecursive@FeatherstoneArticulation@Dy@physx@@QEAAXPEAUArticulationLink@23@I_NAEAVArticulationData@23@PEAUSpatialVectorF@Cm@3@MMMMM1IM@Z 00000001800789f0 f   LowLevelDynamics_static_64:DyFeatherstoneArticulation.obj
 0001:00079010       ?setupSolverConstraints@FeatherstoneArticulation@Dy@physx@@QEAAIPEAUArticulationLink@23@I_NAEAVArticulationData@23@PEAUSpatialVectorF@Cm@3@AEAI@Z 000000018007a010 f   LowLevelDynamics_static_64:DyFeatherstoneArticulation.obj
 0001:00079080       ?setupSolverConstraintsTGS@FeatherstoneArticulation@Dy@physx@@SAIAEBUArticulationSolverDesc@23@AEAVPxcConstraintBlockStream@3@PEAUPxSolverConstraintDesc@3@MMMAEAIAEAVPxsConstraintBlockManager@3@PEAUSpatialVectorF@Cm@3@@Z 000000018007a080 f   LowLevelDynamics_static_64:DyFeatherstoneArticulation.obj
 0001:00079110       ?solveInternalConstraintRecursive@FeatherstoneArticulation@Dy@physx@@IEAA?AUSpatialVectorF@Cm@3@MMPEAU453@0_N1MIAEBU453@AEAI3@Z 000000018007a110 f   LowLevelDynamics_static_64:DyFeatherstoneArticulation.obj
 0001:0007a530       ?solveInternalConstraints@FeatherstoneArticulation@Dy@physx@@MEAAXMMPEAUSpatialVectorF@Cm@3@0_N1M@Z 000000018007b530 f   LowLevelDynamics_static_64:DyFeatherstoneArticulation.obj
 0001:0007b200       ?solveStaticConstraint@Dy@physx@@YAXAEBUPxSolverConstraintDesc@2@AEAUSpatialVectorF@Cm@2@11AEBU452@AEBVPxQuat@2@_NMM@Z 000000018007c200 f   LowLevelDynamics_static_64:DyFeatherstoneArticulation.obj
 0001:0007b650       ?storeStaticConstraint@FeatherstoneArticulation@Dy@physx@@UEAA_NAEBUPxSolverConstraintDesc@3@@Z 000000018007c650 f   LowLevelDynamics_static_64:DyFeatherstoneArticulation.obj
 0001:0007b6b0       ?teleportLinks@FeatherstoneArticulation@Dy@physx@@QEAAXAEAVArticulationData@23@@Z 000000018007c6b0 f   LowLevelDynamics_static_64:DyFeatherstoneArticulation.obj
 0001:0007c750       ?teleportRootLink@FeatherstoneArticulation@Dy@physx@@UEAAXXZ 000000018007d750 f   LowLevelDynamics_static_64:DyFeatherstoneArticulation.obj
 0001:0007d5a0       ?translateInertia@FeatherstoneArticulation@Dy@physx@@KAXAEBVPxMat33@3@AEAUSpatialMatrix@23@@Z 000000018007e5a0 f   LowLevelDynamics_static_64:DyFeatherstoneArticulation.obj
 0001:0007daa0       ?writebackInternalConstraints@FeatherstoneArticulation@Dy@physx@@MEAAX_N@Z 000000018007eaa0 f   LowLevelDynamics_static_64:DyFeatherstoneArticulation.obj
 0001:0007db50       ?copyToSolverBodyData@Dy@physx@@YAXAEBVPxVec3@2@0M0AEBVPxTransform@2@MMIMAEAUPxSolverBodyData@2@I@Z 000000018007eb50 f   LowLevelDynamics_static_64:DyRigidBodyToSolverBody.obj
 0001:0007df70       ?createFinalizeSolverContacts@Dy@physx@@YA_NAEAUPxSolverContactDesc@2@AEAUPxsContactManagerOutput@2@AEAVThreadContext@12@MMMMMAEAVPxConstraintAllocator@2@PEAUSpatialVectorF@Cm@2@@Z 000000018007ef70 f   LowLevelDynamics_static_64:DyContactPrep.obj
 0001:0007e370       ?createFinalizeSolverContacts@Dy@physx@@YA_NAEAUPxSolverContactDesc@2@AEAUCorrelationBuffer@12@MMMMMAEAVPxConstraintAllocator@2@PEAUSpatialVectorF@Cm@2@@Z 000000018007f370 f   LowLevelDynamics_static_64:DyContactPrep.obj
 0001:0007f240       ?getContactManagerConstraintDesc@Dy@physx@@YAIAEBUPxsContactManagerOutput@2@AEBVPxsContactManager@2@AEAUPxSolverConstraintDesc@2@@Z 0000000180080240 f   LowLevelDynamics_static_64:DyContactPrep.obj
 0001:0007f260       ?setupExtSolverContact@Dy@physx@@YA?AT__m128@@AEBVSolverExtBody@12@0AEBT3@111111111111AEBUContactPoint@Gu@2@AEAUSolverContactPointExt@12@1PEAUSpatialVectorF@Cm@2@AEBUSpatialVectorV@92@5@Z 0000000180080260 f   LowLevelDynamics_static_64:DyContactPrep.obj
 0001:00080770       ?createFinalizeSolverContacts4@Dy@physx@@YA?AW4Enum@SolverConstraintPrepState@12@PEAPEAUPxsContactManagerOutput@2@AEAVThreadContext@12@PEAUPxSolverContactDesc@2@MMMMMAEAVPxConstraintAllocator@2@@Z 0000000180081770 f   LowLevelDynamics_static_64:DyContactPrep4.obj
 0001:00080c40       ?computeBlockStreamByteSizes4@Dy@physx@@YAXPEAUPxSolverContactDesc@2@AEAIPEAIAEBUCorrelationBuffer@12@@Z 0000000180081c40 f   LowLevelDynamics_static_64:DyContactPrep4.obj
 0001:00081090       ?createFinalizeSolverContacts4@Dy@physx@@YA?AW4Enum@SolverConstraintPrepState@12@AEAUCorrelationBuffer@12@PEAUPxSolverContactDesc@2@MMMMMAEAVPxConstraintAllocator@2@@Z 0000000180082090 f   LowLevelDynamics_static_64:DyContactPrep4.obj
 0001:000818b0       ?getFrictionPatches@Dy@physx@@YA_NAEAUCorrelationBuffer@12@PEBEIAEBVPxTransform@2@2M@Z 00000001800828b0 f i LowLevelDynamics_static_64:DyContactPrep4.obj
 0001:00085450       ?setupSolverConstraint4@Dy@physx@@YA?AW4Enum@SolverConstraintPrepState@12@PEIAUPxSolverConstraintPrepDesc@2@MMAEAIAEAVPxConstraintAllocator@2@I@Z 0000000180086450 f   LowLevelDynamics_static_64:DyConstraintSetupBlock.obj
 0001:00086500       ?setupSolverConstraint4@Dy@physx@@YA?AW4Enum@SolverConstraintPrepState@12@PEIAUSolverConstraintShaderPrepDesc@12@PEIAUPxSolverConstraintPrepDesc@2@MMAEAIAEAVPxConstraintAllocator@2@@Z 0000000180087500 f   LowLevelDynamics_static_64:DyConstraintSetupBlock.obj
 0001:000866e0       ?SetupSolverConstraint@Dy@physx@@YAIAEAUSolverConstraintShaderPrepDesc@12@AEAUPxSolverConstraintPrepDesc@2@AEAVPxConstraintAllocator@2@MMPEAUSpatialVectorF@Cm@2@@Z 00000001800876e0 f   LowLevelDynamics_static_64:DyConstraintSetup.obj
 0001:00087c30       ?preprocessRows@Dy@physx@@YAXPEAPEAUPx1DConstraint@2@PEAU32@PEAVPxVec4@2@2IAEBVPxMat33@2@3MMAEBUPxConstraintInvMassScale@2@_N55@Z 0000000180088c30 f   LowLevelDynamics_static_64:DyConstraintSetup.obj
 0001:000882d0       ?setupSolverConstraint@ConstraintHelper@Dy@physx@@SAIAEAUPxSolverConstraintPrepDesc@3@AEAVPxConstraintAllocator@3@MMPEAUSpatialVectorF@Cm@3@@Z 00000001800892d0 f   LowLevelDynamics_static_64:DyConstraintSetup.obj
 0001:00088d30       ??_ESolverCore@Dy@physx@@UEAAPEAXI@Z 0000000180089d30 f i LowLevelDynamics_static_64:DySolverControl.obj
 0001:00088d30       ??_ESolverCoreGeneralPF@Dy@physx@@UEAAPEAXI@Z 0000000180089d30 f i LowLevelDynamics_static_64:DySolverControlPF.obj
 0001:00088d30       ??_GSolverCore@Dy@physx@@UEAAPEAXI@Z 0000000180089d30 f i LowLevelDynamics_static_64:DySolverControl.obj
 0001:00088d30       ??_GSolverCoreGeneralPF@Dy@physx@@UEAAPEAXI@Z 0000000180089d30 f i LowLevelDynamics_static_64:DySolverControlPF.obj
 0001:00088d60       ??_ESolverCoreGeneral@Dy@physx@@UEAAPEAXI@Z 0000000180089d60 f i LowLevelDynamics_static_64:DySolverControl.obj
 0001:00088d60       ??_GSolverCoreGeneral@Dy@physx@@UEAAPEAXI@Z 0000000180089d60 f i LowLevelDynamics_static_64:DySolverControl.obj
 0001:00088d90       ?SolverCoreRegisterArticulationFns@Dy@physx@@YAXXZ 0000000180089d90 f   LowLevelDynamics_static_64:DySolverControl.obj
 0001:00088df0       ?create@SolverCoreGeneral@Dy@physx@@SAPEAV123@_N@Z 0000000180089df0 f   LowLevelDynamics_static_64:DySolverControl.obj
 0001:00088e40       ?destroyV@SolverCoreGeneral@Dy@physx@@UEAAXXZ 0000000180089e40 f   LowLevelDynamics_static_64:DySolverControl.obj
 0001:00088e40       ?destroyV@SolverCoreGeneralPF@Dy@physx@@UEAAXXZ 0000000180089e40 f   LowLevelDynamics_static_64:DySolverControlPF.obj
 0001:00088e70       ?getSolveBlockTable@Dy@physx@@YAPEAP6AXPEBUPxSolverConstraintDesc@2@IAEAUSolverContext@12@@ZXZ 0000000180089e70 f   LowLevelDynamics_static_64:DySolverControl.obj
 0001:00088e80       ?getSolveWritebackBlockTable@Dy@physx@@YAPEAP6AXPEBUPxSolverConstraintDesc@2@IAEAUSolverContext@12@@ZXZ 0000000180089e80 f   LowLevelDynamics_static_64:DySolverControl.obj
 0001:00088e90       ?getSolverConcludeBlockTable@Dy@physx@@YAPEAP6AXPEBUPxSolverConstraintDesc@2@IAEAUSolverContext@12@@ZXZ 0000000180089e90 f   LowLevelDynamics_static_64:DySolverControl.obj
 0001:00088ea0       ?solveVBlock@Dy@physx@@YAXPEAVSolverCore@12@AEAUSolverIslandParams@12@@Z 0000000180089ea0 f   LowLevelDynamics_static_64:DySolverControl.obj
 0001:00088eb0       ?solveVParallelAndWriteBack@SolverCoreGeneral@Dy@physx@@UEBAHAEAUSolverIslandParams@23@PEAUSpatialVectorF@Cm@3@1@Z 0000000180089eb0 f   LowLevelDynamics_static_64:DySolverControl.obj
 0001:0008a390       ?solveV_Blocks@SolverCoreGeneral@Dy@physx@@UEBAXAEAUSolverIslandParams@23@@Z 000000018008b390 f   LowLevelDynamics_static_64:DySolverControl.obj
 0001:0008af20       ?writeBackV@SolverCoreGeneral@Dy@physx@@UEBAXPEIBUPxSolverConstraintDesc@3@IPEAUPxConstraintBatchHeader@3@IPEIAUThresholdStreamElement@23@IAEAIPEAUPxSolverBodyData@3@QEAP6AXPEBU43@IAEAUSolverContext@23@@Z@Z 000000018008bf20 f   LowLevelDynamics_static_64:DySolverControl.obj
 0001:0008af20       ?writeBackV@SolverCoreGeneralPF@Dy@physx@@UEBAXPEIBUPxSolverConstraintDesc@3@IPEAUPxConstraintBatchHeader@3@IPEIAUThresholdStreamElement@23@IAEAIPEAUPxSolverBodyData@3@QEAP6AXPEBU43@IAEAUSolverContext@23@@Z@Z 000000018008bf20 f   LowLevelDynamics_static_64:DySolverControlPF.obj
 0001:0008afe0       ?SetupSolverConstraintStep@Dy@physx@@YAIAEAUSolverConstraintShaderPrepDesc@12@AEAUPxTGSSolverConstraintPrepDesc@2@AEAVPxConstraintAllocator@2@MMMMM@Z 000000018008bfe0 f   LowLevelDynamics_static_64:DyTGSContactPrep.obj
 0001:0008b260       ?conclude1DStep@Dy@physx@@YAXAEBUPxSolverConstraintDesc@2@@Z 000000018008c260 f   LowLevelDynamics_static_64:DyTGSContactPrep.obj
 0001:0008b2b0       ?createFinalizeSolverContactsStep@Dy@physx@@YA_NAEAUPxTGSSolverContactDesc@2@AEAUCorrelationBuffer@12@MMMMMAEAVPxConstraintAllocator@2@@Z 000000018008c2b0 f   LowLevelDynamics_static_64:DyTGSContactPrep.obj
 0001:0008c080       ?createFinalizeSolverContactsStep@Dy@physx@@YA_NAEAUPxTGSSolverContactDesc@2@AEAUPxsContactManagerOutput@2@AEAVThreadContext@12@MMMMMAEAVPxConstraintAllocator@2@@Z 000000018008d080 f   LowLevelDynamics_static_64:DyTGSContactPrep.obj
 0001:0008c4c0       ?createHardLimitTGS@ArticulationHelper@Dy@physx@@SAXAEBUFsData@23@PEBUArticulationLink@23@IAEAUSolverConstraint1DExtStep@23@AEBVPxVec3@3@MM@Z 000000018008d4c0 f   LowLevelDynamics_static_64:DyTGSContactPrep.obj
 0001:0008c730       ?createImpulseResponseVector@Dy@physx@@YA?AVSpatialVector@Cm@2@AEBVPxVec3@2@0AEBVSolverExtBodyStep@12@@Z 000000018008d730 f   LowLevelDynamics_static_64:DyTGSContactPrep.obj
 0001:0008c820       ?createTangentialSpringTGS@ArticulationHelper@Dy@physx@@SAXAEBUFsData@23@PEBUArticulationLink@23@IAEAUSolverConstraint1DExtStep@23@AEBVPxVec3@3@MMM@Z 000000018008d820 f   LowLevelDynamics_static_64:DyTGSContactPrep.obj
 0001:0008cae0       ?ellipseClamp@shdfnd@physx@@YA?AVPxVec3@2@AEBV32@0@Z 000000018008dae0 f i LowLevelDynamics_static_64:DyTGSContactPrep.obj
 0001:0008cd30       ?getImpulseResponse@Dy@physx@@YAMAEBVSolverExtBodyStep@12@AEBVSpatialVector@Cm@2@AEAV452@MM012MM_N@Z 000000018008dd30 f   LowLevelDynamics_static_64:DyTGSContactPrep.obj
 0001:0008d220       ?getLimit@ConeLimitHelper@Cm@physx@@QEBA_NAEBVPxQuat@3@AEAVPxVec3@3@AEAM@Z 000000018008e220 f i LowLevelDynamics_static_64:DyTGSContactPrep.obj
 0001:0008d640       ?projectVelocity@SolverExtBodyStep@Dy@physx@@QEBAMAEBVPxVec3@3@0@Z 000000018008e640 f   LowLevelDynamics_static_64:DyTGSContactPrep.obj
 0001:0008dba0       ?setSolverConstantsStep@Dy@physx@@YAXAEAM000000AEBUPx1DConstraint@2@MMMMMMMMMM@Z 000000018008eba0 f   LowLevelDynamics_static_64:DyTGSContactPrep.obj
 0001:0008e2d0       ?setupFinalizeExtSolverContactsStep@Dy@physx@@YAXPEBUContactPoint@Gu@2@AEBUCorrelationBuffer@12@AEBVPxTransform@2@2PEAEAEBVSolverExtBodyStep@12@4MMMMMMMM3MMM@Z 000000018008f2d0 f   LowLevelDynamics_static_64:DyTGSContactPrep.obj
 0001:00091300       ?setupSolverConstraintStep@Dy@physx@@YAIAEBUPxTGSSolverConstraintPrepDesc@2@AEAVPxConstraintAllocator@2@MMMMM@Z 0000000180092300 f   LowLevelDynamics_static_64:DyTGSContactPrep.obj
 0001:00092100       ?setupSolverConstraintsTGS@Articulation@Dy@physx@@SAIAEBUArticulationSolverDesc@23@AEAVPxcConstraintBlockStream@3@PEAUPxSolverConstraintDesc@3@MMMAEAIAEAVPxsConstraintBlockManager@3@PEAUSpatialVectorF@Cm@3@@Z 0000000180093100 f   LowLevelDynamics_static_64:DyTGSContactPrep.obj
 0001:00092a30       ?solve1DBlock@Dy@physx@@YAXAEBUPxConstraintBatchHeader@2@PEBUPxSolverConstraintDesc@2@QEBUPxTGSSolverBodyTxInertia@2@MMAEAUSolverContext@12@@Z 0000000180093a30 f   LowLevelDynamics_static_64:DyTGSContactPrep.obj
 0001:00092aa0       ?solve1DStep@Dy@physx@@YAXAEBUPxSolverConstraintDesc@2@QEBUPxTGSSolverBodyTxInertia@2@M@Z 0000000180093aa0 f   LowLevelDynamics_static_64:DyTGSContactPrep.obj
 0001:00093590       ?solveConclude1DBlock@Dy@physx@@YAXAEBUPxConstraintBatchHeader@2@PEBUPxSolverConstraintDesc@2@QEBUPxTGSSolverBodyTxInertia@2@MAEAUSolverContext@12@@Z 0000000180094590 f   LowLevelDynamics_static_64:DyTGSContactPrep.obj
 0001:00093670       ?solveConclude1DBlockExt@Dy@physx@@YAXAEBUPxConstraintBatchHeader@2@PEBUPxSolverConstraintDesc@2@QEBUPxTGSSolverBodyTxInertia@2@MAEAUSolverContext@12@@Z 0000000180094670 f   LowLevelDynamics_static_64:DyTGSContactPrep.obj
 0001:00093760       ?solveConcludeContactBlock@Dy@physx@@YAXAEBUPxConstraintBatchHeader@2@PEBUPxSolverConstraintDesc@2@QEBUPxTGSSolverBodyTxInertia@2@MAEAUSolverContext@12@@Z 0000000180094760 f   LowLevelDynamics_static_64:DyTGSContactPrep.obj
 0001:000937f0       ?solveConcludeContactExtBlock@Dy@physx@@YAXAEBUPxConstraintBatchHeader@2@PEBUPxSolverConstraintDesc@2@QEBUPxTGSSolverBodyTxInertia@2@MAEAUSolverContext@12@@Z 00000001800947f0 f   LowLevelDynamics_static_64:DyTGSContactPrep.obj
 0001:00093880       ?solveContact@Dy@physx@@YAXAEBUPxSolverConstraintDesc@2@_NMM@Z 0000000180094880 f   LowLevelDynamics_static_64:DyTGSContactPrep.obj
 0001:00093fa0       ?solveContactBlock@Dy@physx@@YAXAEBUPxConstraintBatchHeader@2@PEBUPxSolverConstraintDesc@2@QEBUPxTGSSolverBodyTxInertia@2@MMAEAUSolverContext@12@@Z 0000000180094fa0 f   LowLevelDynamics_static_64:DyTGSContactPrep.obj
 0001:00094020       ?solveExt1D@Dy@physx@@YAXAEBUPxSolverConstraintDesc@2@AEAT__m128@@111AEBT4@22222M1111@Z 0000000180095020 f   LowLevelDynamics_static_64:DyTGSContactPrep.obj
 0001:00094550       ?solveExt1DBlock@Dy@physx@@YAXAEBUPxConstraintBatchHeader@2@PEBUPxSolverConstraintDesc@2@QEBUPxTGSSolverBodyTxInertia@2@MMAEAUSolverContext@12@@Z 0000000180095550 f   LowLevelDynamics_static_64:DyTGSContactPrep.obj
 0001:000945e0       ?solveExt1DStep@Dy@physx@@YAXAEBUPxSolverConstraintDesc@2@MAEAUSolverContext@12@QEBUPxTGSSolverBodyTxInertia@2@@Z 00000001800955e0 f   LowLevelDynamics_static_64:DyTGSContactPrep.obj
 0001:00094a50       ?solveExtContactBlock@Dy@physx@@YAXAEBUPxConstraintBatchHeader@2@PEBUPxSolverConstraintDesc@2@QEBUPxTGSSolverBodyTxInertia@2@MMAEAUSolverContext@12@@Z 0000000180095a50 f   LowLevelDynamics_static_64:DyTGSContactPrep.obj
 0001:00094ae0       ?solveExtContactStep@Dy@physx@@YAXAEBUPxSolverConstraintDesc@2@AEAT__m128@@11111111111_NMM@Z 0000000180095ae0 f   LowLevelDynamics_static_64:DyTGSContactPrep.obj
 0001:00095220       ?solveExtContactStep@Dy@physx@@YAXAEBUPxSolverConstraintDesc@2@_NMMAEAUSolverContext@12@@Z 0000000180096220 f   LowLevelDynamics_static_64:DyTGSContactPrep.obj
 0001:000955f0       ?writeBack1D@Dy@physx@@YAXAEBUPxConstraintBatchHeader@2@PEBUPxSolverConstraintDesc@2@PEAUSolverContext@12@@Z 00000001800965f0 f   LowLevelDynamics_static_64:DyTGSContactPrep.obj
 0001:00095650       ?writeBack1D@Dy@physx@@YAXAEBUPxSolverConstraintDesc@2@@Z 0000000180096650 f   LowLevelDynamics_static_64:DyTGSContactPrep.obj
 0001:00095bc0       ?writeBackContact@Dy@physx@@YAXAEBUPxConstraintBatchHeader@2@PEBUPxSolverConstraintDesc@2@PEAUSolverContext@12@@Z 0000000180096bc0 f   LowLevelDynamics_static_64:DyTGSContactPrep.obj
 0001:00095c20       ?writeBackContact@Dy@physx@@YAXAEBUPxSolverConstraintDesc@2@PEAUSolverContext@12@@Z 0000000180096c20 f   LowLevelDynamics_static_64:DyTGSContactPrep.obj
 0001:00095d30       ?computeBlockStreamByteSizes4@Dy@physx@@YAXPEAUPxTGSSolverContactDesc@2@AEAIPEAIAEBUCorrelationBuffer@12@@Z 0000000180096d30 f   LowLevelDynamics_static_64:DyTGSContactPrepBlock.obj
 0001:00096040       ?createFinalizeSolverContacts4Step@Dy@physx@@YA?AW4Enum@SolverConstraintPrepState@12@AEAUCorrelationBuffer@12@PEAUPxTGSSolverContactDesc@2@MMMMMMAEAVPxConstraintAllocator@2@@Z 0000000180097040 f   LowLevelDynamics_static_64:DyTGSContactPrepBlock.obj
 0001:00096860       ?createFinalizeSolverContacts4Step@Dy@physx@@YA?AW4Enum@SolverConstraintPrepState@12@PEAPEAUPxsContactManagerOutput@2@AEAVThreadContext@12@PEAUPxTGSSolverContactDesc@2@MMMMMMAEAVPxConstraintAllocator@2@@Z 0000000180097860 f   LowLevelDynamics_static_64:DyTGSContactPrepBlock.obj
 0001:0009a140       ?setupSolverConstraintStep4@Dy@physx@@YA?AW4Enum@SolverConstraintPrepState@12@PEIAUPxTGSSolverConstraintPrepDesc@2@MMMMAEAIAEAVPxConstraintAllocator@2@IM@Z 000000018009b140 f   LowLevelDynamics_static_64:DyTGSContactPrepBlock.obj
 0001:0009bb60       ?setupSolverConstraintStep4@Dy@physx@@YA?AW4Enum@SolverConstraintPrepState@12@PEIAUSolverConstraintShaderPrepDesc@12@PEIAUPxTGSSolverConstraintPrepDesc@2@MMMMAEAIAEAVPxConstraintAllocator@2@M@Z 000000018009cb60 f   LowLevelDynamics_static_64:DyTGSContactPrepBlock.obj
 0001:0009bd90       ?solve1D4@Dy@physx@@YAXAEBUPxConstraintBatchHeader@2@PEIBUPxSolverConstraintDesc@2@QEBUPxTGSSolverBodyTxInertia@2@MMAEAUSolverContext@12@@Z 000000018009cd90 f   LowLevelDynamics_static_64:DyTGSContactPrepBlock.obj
 0001:0009bdb0       ?solve1DStep4@Dy@physx@@YAXPEIBUPxSolverConstraintDesc@2@QEBUPxTGSSolverBodyTxInertia@2@M@Z 000000018009cdb0 f   LowLevelDynamics_static_64:DyTGSContactPrepBlock.obj
 0001:0009d510       ?solveConclude1D4@Dy@physx@@YAXAEBUPxConstraintBatchHeader@2@PEBUPxSolverConstraintDesc@2@QEBUPxTGSSolverBodyTxInertia@2@MAEAUSolverContext@12@@Z 000000018009e510 f   LowLevelDynamics_static_64:DyTGSContactPrepBlock.obj
 0001:0009d5a0       ?solveConcludeContact4@Dy@physx@@YAXAEBUPxConstraintBatchHeader@2@PEBUPxSolverConstraintDesc@2@QEBUPxTGSSolverBodyTxInertia@2@MAEAUSolverContext@12@@Z 000000018009e5a0 f   LowLevelDynamics_static_64:DyTGSContactPrepBlock.obj
 0001:0009d5c0       ?solveContact4@Dy@physx@@YAXAEBUPxConstraintBatchHeader@2@PEIBUPxSolverConstraintDesc@2@QEBUPxTGSSolverBodyTxInertia@2@MMAEAUSolverContext@12@@Z 000000018009e5c0 f   LowLevelDynamics_static_64:DyTGSContactPrepBlock.obj
 0001:0009d5e0       ?solveContact4_Block@Dy@physx@@YAXPEIBUPxSolverConstraintDesc@2@_NMM@Z 000000018009e5e0 f   LowLevelDynamics_static_64:DyTGSContactPrepBlock.obj
 0001:0009e3e0       ?writeBack1D4@Dy@physx@@YAXAEBUPxConstraintBatchHeader@2@PEIBUPxSolverConstraintDesc@2@PEAUSolverContext@12@@Z 000000018009f3e0 f   LowLevelDynamics_static_64:DyTGSContactPrepBlock.obj
 0001:0009e960       ?writeBackContact4@Dy@physx@@YAXAEBUPxConstraintBatchHeader@2@PEIBUPxSolverConstraintDesc@2@PEAUSolverContext@12@@Z 000000018009f960 f   LowLevelDynamics_static_64:DyTGSContactPrepBlock.obj
 0001:0009e980       ?writeBackContact4_Block@Dy@physx@@YAXPEIBUPxSolverConstraintDesc@2@PEAUSolverContext@12@@Z 000000018009f980 f   LowLevelDynamics_static_64:DyTGSContactPrepBlock.obj
 0001:0009edc0       ??1ArticulationBlockAllocator@Dy@physx@@UEAA@XZ 000000018009fdc0 f i LowLevelDynamics_static_64:DyFeatherstoneInverseDynamic.obj
 0001:0009eea0       ??DPxMat33@physx@@QEBA?BVPxVec3@1@AEBV21@@Z 000000018009fea0 f i LowLevelDynamics_static_64:DyFeatherstoneInverseDynamic.obj
 0001:0009ef30       ??_EArticulationBlockAllocator@Dy@physx@@UEAAPEAXI@Z 000000018009ff30 f i LowLevelDynamics_static_64:DyFeatherstoneInverseDynamic.obj
 0001:0009ef30       ??_GArticulationBlockAllocator@Dy@physx@@UEAAPEAXI@Z 000000018009ff30 f i LowLevelDynamics_static_64:DyFeatherstoneInverseDynamic.obj
 0001:0009ef70       ??_EBlockBasedAllocator@Dy@physx@@UEAAPEAXI@Z 000000018009ff70 f i LowLevelDynamics_static_64:DyFeatherstoneInverseDynamic.obj
 0001:0009ef70       ??_GBlockBasedAllocator@Dy@physx@@UEAAPEAXI@Z 000000018009ff70 f i LowLevelDynamics_static_64:DyFeatherstoneInverseDynamic.obj
 0001:0009eff0       ?alloc@PxcScratchAllocator@physx@@QEAAPEAXI_N@Z 000000018009fff0 f i LowLevelDynamics_static_64:DyFeatherstoneInverseDynamic.obj
 0001:0009f0d0       ?allocate@BlockBasedAllocator@Dy@physx@@UEAAPEAEI@Z 00000001800a00d0 f i LowLevelDynamics_static_64:DyFeatherstoneInverseDynamic.obj
 0001:0009f200       ?applyCacheToDest@FeatherstoneArticulation@Dy@physx@@QEAA_NAEAVArticulationData@23@AEAVPxArticulationCache@3@PEAM222V?$PxFlags@W4Enum@PxArticulationCache@physx@@E@3@@Z 00000001800a0200 f   LowLevelDynamics_static_64:DyFeatherstoneInverseDynamic.obj
 0001:0009f580       ?calculateHFixBase@FeatherstoneArticulation@Dy@physx@@IEAAXAEAVPxArticulationCache@3@@Z 00000001800a0580 f   LowLevelDynamics_static_64:DyFeatherstoneInverseDynamic.obj
 0001:0009fcc0       ?calculateHFloatingBase@FeatherstoneArticulation@Dy@physx@@IEAAXAEAVPxArticulationCache@3@@Z 00000001800a0cc0 f   LowLevelDynamics_static_64:DyFeatherstoneInverseDynamic.obj
 0001:000a1330       ?calculateMassMatrixColInv@FeatherstoneArticulation@Dy@physx@@IEAAXAEAUScratchData@23@@Z 00000001800a2330 f   LowLevelDynamics_static_64:DyFeatherstoneInverseDynamic.obj
 0001:000a1c50       ?computeCompositeSpatialInertiaAndZAForceInv@FeatherstoneArticulation@Dy@physx@@IEAAXAEAVArticulationData@23@AEAUScratchData@23@@Z 00000001800a2c50 f   LowLevelDynamics_static_64:DyFeatherstoneInverseDynamic.obj
 0001:000a20f0       ?computeGeneralizedForceInv@FeatherstoneArticulation@Dy@physx@@IEAAXAEAVArticulationData@23@AEAUScratchData@23@@Z 00000001800a30f0 f   LowLevelDynamics_static_64:DyFeatherstoneInverseDynamic.obj
 0001:000a2360       ?computeHi@Dy@physx@@YAIAEAVArticulationData@12@IPEAMPEAUSpatialVectorF@Cm@2@@Z 00000001800a3360 f   LowLevelDynamics_static_64:DyFeatherstoneInverseDynamic.obj
 0001:000a2750       ?computeLinkAccelerationInv@FeatherstoneArticulation@Dy@physx@@IEAAXAEAVArticulationData@23@AEAUScratchData@23@@Z 00000001800a3750 f   LowLevelDynamics_static_64:DyFeatherstoneInverseDynamic.obj
 0001:000a2d70       ?computeRelativeGeneralizedForceInv@FeatherstoneArticulation@Dy@physx@@IEAAXAEAVArticulationData@23@AEAUScratchData@23@@Z 00000001800a3d70 f   LowLevelDynamics_static_64:DyFeatherstoneInverseDynamic.obj
 0001:000a3f50       ?computeZAForceInv@FeatherstoneArticulation@Dy@physx@@IEAAXAEAVArticulationData@23@AEAUScratchData@23@@Z 00000001800a4f50 f   LowLevelDynamics_static_64:DyFeatherstoneInverseDynamic.obj
 0001:000a42f0       ?constraintPrep@FeatherstoneArticulation@Dy@physx@@IEAAXPEAUArticulationLoopConstraint@23@IPEAUSpatialVectorF@Cm@3@AEAUPxSolverConstraintPrepDesc@3@AEAUPxSolverBody@3@AEAUPxSolverBodyData@3@PEAUPxSolverConstraintDesc@3@AEAVPxConstraintAllocator@3@@Z 00000001800a52f0 f   LowLevelDynamics_static_64:DyFeatherstoneInverseDynamic.obj
 0001:000a48a0       ?free@PxcScratchAllocator@physx@@QEAAXPEAX@Z 00000001800a58a0 f i LowLevelDynamics_static_64:DyFeatherstoneInverseDynamic.obj
 0001:000a4960       ?getCoefficientMatrix@FeatherstoneArticulation@Dy@physx@@UEAAXMIPEBVPxContactJoint@3@IAEAVPxArticulationCache@3@@Z 00000001800a5960 f   LowLevelDynamics_static_64:DyFeatherstoneInverseDynamic.obj
 0001:000a52a0       ?getCoefficientMatrixWithLoopJoints@FeatherstoneArticulation@Dy@physx@@UEAAXPEAUArticulationLoopConstraint@23@IAEAVPxArticulationCache@3@@Z 00000001800a62a0 f   LowLevelDynamics_static_64:DyFeatherstoneInverseDynamic.obj
 0001:000a5d80       ?getCoriolisAndCentrifugalForce@FeatherstoneArticulation@Dy@physx@@UEAAXAEAVPxArticulationCache@3@@Z 00000001800a6d80 f   LowLevelDynamics_static_64:DyFeatherstoneInverseDynamic.obj
 0001:000a5f70       ?getGeneralizedExternalForce@FeatherstoneArticulation@Dy@physx@@UEAAXAEAVPxArticulationCache@3@@Z 00000001800a6f70 f   LowLevelDynamics_static_64:DyFeatherstoneInverseDynamic.obj
 0001:000a65b0       ?getGeneralizedGravityForce@FeatherstoneArticulation@Dy@physx@@UEAAXAEBVPxVec3@3@AEAVPxArticulationCache@3@@Z 00000001800a75b0 f   LowLevelDynamics_static_64:DyFeatherstoneInverseDynamic.obj
 0001:000a69b0       ?getGeneralizedMassMatrix@FeatherstoneArticulation@Dy@physx@@UEAAXAEAVPxArticulationCache@3@@Z 00000001800a79b0 f   LowLevelDynamics_static_64:DyFeatherstoneInverseDynamic.obj
 0001:000a6c30       ?getGeneralizedMassMatrixCRB@FeatherstoneArticulation@Dy@physx@@UEAAXAEAVPxArticulationCache@3@@Z 00000001800a7c30 f   LowLevelDynamics_static_64:DyFeatherstoneInverseDynamic.obj
 0001:000a6c90       ?getImpulseResponseInv@FeatherstoneArticulation@Dy@physx@@IEAA?AUSpatialVectorF@Cm@3@_NIPEAU453@AEBVSpatialVector@53@PEAM@Z 00000001800a7c90 f   LowLevelDynamics_static_64:DyFeatherstoneInverseDynamic.obj
 0001:000a73a0       ?getImpulseResponseSlowInv@FeatherstoneArticulation@Dy@physx@@IEAAXPEAUArticulationLink@23@AEBVArticulationData@23@IAEBVSpatialVector@Cm@3@AEAV673@I23PEAM@Z 00000001800a83a0 f   LowLevelDynamics_static_64:DyFeatherstoneInverseDynamic.obj
 0001:000a8050       ?getImpulseSelfResponseInv@FeatherstoneArticulation@Dy@physx@@IEAAX_NIIPEAUSpatialVectorF@Cm@3@AEBVSpatialVector@53@2AEAV653@3PEAM@Z 00000001800a9050 f   LowLevelDynamics_static_64:DyFeatherstoneInverseDynamic.obj
 0001:000a8440       ?getJointForce@FeatherstoneArticulation@Dy@physx@@UEAAXAEAVPxArticulationCache@3@@Z 00000001800a9440 f   LowLevelDynamics_static_64:DyFeatherstoneInverseDynamic.obj
 0001:000a8640       ?getLambda@FeatherstoneArticulation@Dy@physx@@UEAA_NPEAUArticulationLoopConstraint@23@IAEAVPxArticulationCache@3@1PEBMAEBVPxVec3@3@I@Z 00000001800a9640 f   LowLevelDynamics_static_64:DyFeatherstoneInverseDynamic.obj
 0001:000a91f0       ?growAndPushBack@?$Array@PEAUAllocationPage@BlockBasedAllocator@Dy@physx@@V?$ReflectionAllocator@PEAUAllocationPage@BlockBasedAllocator@Dy@physx@@@shdfnd@4@@shdfnd@physx@@IEAAAEAPEAUAllocationPage@BlockBasedAllocator@Dy@3@AEBQEAU4563@@Z 00000001800aa1f0 f i LowLevelDynamics_static_64:DyFeatherstoneInverseDynamic.obj
 0001:000a9310       ?initCompositeSpatialInertia@FeatherstoneArticulation@Dy@physx@@IEAAXAEAVArticulationData@23@PEAUSpatialMatrix@23@@Z 00000001800aa310 f   LowLevelDynamics_static_64:DyFeatherstoneInverseDynamic.obj
 0001:000a96f0       ?initializeCommonData@FeatherstoneArticulation@Dy@physx@@UEAAXXZ 00000001800aa6f0 f   LowLevelDynamics_static_64:DyFeatherstoneInverseDynamic.obj
 0001:000a9750       ?packJointData@FeatherstoneArticulation@Dy@physx@@UEAAXPEBMPEAM@Z 00000001800aa750 f   LowLevelDynamics_static_64:DyFeatherstoneInverseDynamic.obj
 0001:000a9870       ?release@BlockBasedAllocator@Dy@physx@@QEAAXXZ 00000001800aa870 f i LowLevelDynamics_static_64:DyFeatherstoneInverseDynamic.obj
 0001:000a98e0       ?reserveConstraintData@ArticulationBlockAllocator@Dy@physx@@UEAAPEAEI@Z 00000001800aa8e0 f i LowLevelDynamics_static_64:DyFeatherstoneInverseDynamic.obj
 0001:000a98f0       ?reserveFrictionData@ArticulationBlockAllocator@Dy@physx@@UEAAPEAEI@Z 00000001800aa8f0 f i LowLevelDynamics_static_64:DyFeatherstoneInverseDynamic.obj
 0001:000a9910       ?transformTranspose@PxMat33@physx@@QEBA?BVPxVec3@2@AEBV32@@Z 00000001800aa910 f i LowLevelDynamics_static_64:DyFeatherstoneInverseDynamic.obj
 0001:000a99a0       ?unpackJointData@FeatherstoneArticulation@Dy@physx@@UEAAXPEBMPEAM@Z 00000001800aa9a0 f   LowLevelDynamics_static_64:DyFeatherstoneInverseDynamic.obj
 0001:000a9ae0       ??4SpatialMatrix@Dy@physx@@QEAAAEAU012@$$QEAU012@@Z 00000001800aaae0 f i LowLevelDynamics_static_64:DyFeatherstoneForwardDynamic.obj
 0001:000a9b90       ?computeArticulatedResponseMatrix@FeatherstoneArticulation@Dy@physx@@IEAAXAEAVArticulationData@23@@Z 00000001800aab90 f   LowLevelDynamics_static_64:DyFeatherstoneForwardDynamic.obj
 0001:000aa400       ?computeArticulatedSpatialInertia@FeatherstoneArticulation@Dy@physx@@IEAAXAEAVArticulationData@23@@Z 00000001800ab400 f   LowLevelDynamics_static_64:DyFeatherstoneForwardDynamic.obj
 0001:000aafc0       ?computeArticulatedSpatialZ@FeatherstoneArticulation@Dy@physx@@IEAAXAEAVArticulationData@23@AEAUScratchData@23@@Z 00000001800abfc0 f   LowLevelDynamics_static_64:DyFeatherstoneForwardDynamic.obj
 0001:000ab690       ?computeIs@FeatherstoneArticulation@Dy@physx@@IEAAXAEAVArticulationLinkData@23@AEAVArticulationJointCoreData@23@I@Z 00000001800ac690 f   LowLevelDynamics_static_64:DyFeatherstoneForwardDynamic.obj
 0001:000abad0       ?computeJointAccelerationW@FeatherstoneArticulation@Dy@physx@@IEAAXAEAVArticulationLinkData@23@AEAVArticulationJointCoreData@23@AEBUSpatialVectorF@Cm@3@PEAMI@Z 00000001800acad0 f   LowLevelDynamics_static_64:DyFeatherstoneForwardDynamic.obj
 0001:000abe90       ?computeLinkAcceleration@FeatherstoneArticulation@Dy@physx@@IEAAXAEAVArticulationData@23@AEAUScratchData@23@@Z 00000001800ace90 f   LowLevelDynamics_static_64:DyFeatherstoneForwardDynamic.obj
 0001:000ac6b0       ?computePropagateSpatialInertia@FeatherstoneArticulation@Dy@physx@@KA?AUSpatialMatrix@23@EAEAVArticulationJointCoreData@23@AEBU423@PEBUSpatialVectorF@Cm@3@AEAUInvStIs@23@AEAUIsInvD@23@AEBUSpatialSubspaceMatrix@23@@Z 00000001800ad6b0 f   LowLevelDynamics_static_64:DyFeatherstoneForwardDynamic.obj
 0001:000adaa0       ?computeSphericalJointPositions@Dy@physx@@YA?AVPxQuat@2@AEBV32@00PEAMAEBUSpatialSubspaceMatrix@12@@Z 00000001800aeaa0 f   LowLevelDynamics_static_64:DyFeatherstoneForwardDynamic.obj
 0001:000add60       ?computeUnconstrainedVelocities@FeatherstoneArticulation@Dy@physx@@SAIAEBUArticulationSolverDesc@23@MAEAVPxConstraintAllocator@3@PEAUPxSolverConstraintDesc@3@AEAIAEBVPxVec3@3@_KPEAUSpatialVectorF@Cm@3@6@Z 00000001800aed60 f   LowLevelDynamics_static_64:DyFeatherstoneForwardDynamic.obj
 0001:000addf0       ?computeUnconstrainedVelocitiesInternal@FeatherstoneArticulation@Dy@physx@@IEAAXAEBVPxVec3@3@PEAUSpatialVectorF@Cm@3@1@Z 00000001800aedf0 f   LowLevelDynamics_static_64:DyFeatherstoneForwardDynamic.obj
 0001:000ae2d0       ?computeUnconstrainedVelocitiesTGS@FeatherstoneArticulation@Dy@physx@@SAXAEBUArticulationSolverDesc@23@MAEBVPxVec3@3@_KPEAUSpatialVectorF@Cm@3@3@Z 00000001800af2d0 f   LowLevelDynamics_static_64:DyFeatherstoneForwardDynamic.obj
 0001:000ae2f0       ?constructSpatialMatrix@SpatialMatrix@Dy@physx@@SA?AU123@AEBUSpatialVectorF@Cm@3@0@Z 00000001800af2f0 f i LowLevelDynamics_static_64:DyFeatherstoneForwardDynamic.obj
 0001:000ae4f0       ?getInverse@PxMat33@physx@@QEBA?BV12@XZ 00000001800af4f0 f i LowLevelDynamics_static_64:DyFeatherstoneForwardDynamic.obj
 0001:000ae740       ?getInverse@SpatialMatrix@Dy@physx@@QEAA?AU123@XZ 00000001800af740 f i LowLevelDynamics_static_64:DyFeatherstoneForwardDynamic.obj
 0001:000af250       ?getJointAcceleration@FeatherstoneArticulation@Dy@physx@@UEAAXAEBVPxVec3@3@AEAVPxArticulationCache@3@@Z 00000001800b0250 f   LowLevelDynamics_static_64:DyFeatherstoneForwardDynamic.obj
 0001:000afa90       ?propagateLinksDown@FeatherstoneArticulation@Dy@physx@@QEAAXAEAVArticulationData@23@PEAM1PEAUSpatialVectorF@Cm@3@@Z 00000001800b0a90 f   LowLevelDynamics_static_64:DyFeatherstoneForwardDynamic.obj
 0001:000b0e00       ?recomputeAcceleration@FeatherstoneArticulation@Dy@physx@@QEBA?AVSpatialVector@Cm@3@IM@Z 00000001800b1e00 f   LowLevelDynamics_static_64:DyFeatherstoneForwardDynamic.obj
 0001:000b15d0       ?recomputeAccelerations@FeatherstoneArticulation@Dy@physx@@QEAAXM@Z 00000001800b25d0 f   LowLevelDynamics_static_64:DyFeatherstoneForwardDynamic.obj
 0001:000b17e0       ?updateBodies@FeatherstoneArticulation@Dy@physx@@SAXAEBUArticulationSolverDesc@23@M@Z 00000001800b27e0 f   LowLevelDynamics_static_64:DyFeatherstoneForwardDynamic.obj
 0001:000b17f0       ?updateBodies@FeatherstoneArticulation@Dy@physx@@SAXPEAV123@M_N@Z 00000001800b27f0 f   LowLevelDynamics_static_64:DyFeatherstoneForwardDynamic.obj
 0001:000b2200       ?updateBodiesTGS@FeatherstoneArticulation@Dy@physx@@SAXAEBUArticulationSolverDesc@23@M@Z 00000001800b3200 f   LowLevelDynamics_static_64:DyFeatherstoneForwardDynamic.obj
 0001:000b2210       ?updateJointProperties@FeatherstoneArticulation@Dy@physx@@QEAAXPEBMPEBUSpatialVectorF@Cm@3@PEAM2@Z 00000001800b3210 f   LowLevelDynamics_static_64:DyFeatherstoneForwardDynamic.obj
 0001:000b2620       ?updateRootBody@FeatherstoneArticulation@Dy@physx@@SAXAEBUSpatialVectorF@Cm@3@AEBVPxTransform@3@AEAVArticulationData@23@M@Z 00000001800b3620 f   LowLevelDynamics_static_64:DyFeatherstoneForwardDynamic.obj
 0001:000b2820       ??$sort@UPxSolverConstraintDesc@physx@@UConstraintLess@Dy@2@V?$ReflectionAllocator@UPxSolverConstraintDesc@physx@@@shdfnd@2@@shdfnd@physx@@YAXPEAUPxSolverConstraintDesc@1@IAEBUConstraintLess@Dy@1@AEBV?$ReflectionAllocator@UPxSolverConstraintDesc@physx@@@01@I@Z 00000001800b3820 f i LowLevelDynamics_static_64:DyTGSDynamics.obj
 0001:000b2db0       ??0DynamicsTGSContext@Dy@physx@@IEAA@PEAVPxcNpMemBlockPool@2@AEAVPxcScratchAllocator@2@AEAVFlushPool@Cm@2@AEAUPxvSimStats@2@PEAVPxTaskManager@2@PEAVVirtualAllocatorCallback@shdfnd@2@PEAVPxsMaterialManager@2@PEAVIslandSim@IG@2@_K_N99M@Z 00000001800b3db0 f   LowLevelDynamics_static_64:DyTGSDynamics.obj
 0001:000b31f0       ??1?$PxcThreadCoherentCache@VThreadContext@Dy@physx@@VPxcNpMemBlockPool@3@@physx@@QEAA@XZ 00000001800b41f0 f i LowLevelDynamics_static_64:DyTGSDynamics.obj
 0001:000b3280       ??1Context@Dy@physx@@MEAA@XZ 00000001800b4280 f i LowLevelDynamics_static_64:DyTGSDynamics.obj
 0001:000b3390       ??1DynamicsTGSContext@Dy@physx@@MEAA@XZ 00000001800b4390 f   LowLevelDynamics_static_64:DyTGSDynamics.obj
 0001:000b3770       ??1ThreadContext@Dy@physx@@QEAA@XZ 00000001800b4770 f i LowLevelDynamics_static_64:DyTGSDynamics.obj
 0001:000b3a00       ??_EArticulationTask@Dy@physx@@UEAAPEAXI@Z 00000001800b4a00 f i LowLevelDynamics_static_64:DyTGSDynamics.obj
 0001:000b3a00       ??_EFinishSolveIslandTask@Dy@physx@@UEAAPEAXI@Z 00000001800b4a00 f i LowLevelDynamics_static_64:DyTGSDynamics.obj
 0001:000b3a00       ??_EParallelSolveTask@Dy@physx@@UEAAPEAXI@Z 00000001800b4a00 f i LowLevelDynamics_static_64:DyTGSDynamics.obj
 0001:000b3a00       ??_EPartitionTask@Dy@physx@@UEAAPEAXI@Z 00000001800b4a00 f i LowLevelDynamics_static_64:DyTGSDynamics.obj
 0001:000b3a00       ??_EPxsSolverCreateFinalizeConstraintsTask@Dy@physx@@UEAAPEAXI@Z 00000001800b4a00 f i LowLevelDynamics_static_64:DyDynamics.obj
 0001:000b3a00       ??_ESolveIslandTask@Dy@physx@@UEAAPEAXI@Z 00000001800b4a00 f i LowLevelDynamics_static_64:DyTGSDynamics.obj
 0001:000b3a00       ??_GArticulationTask@Dy@physx@@UEAAPEAXI@Z 00000001800b4a00 f i LowLevelDynamics_static_64:DyTGSDynamics.obj
 0001:000b3a00       ??_GFinishSolveIslandTask@Dy@physx@@UEAAPEAXI@Z 00000001800b4a00 f i LowLevelDynamics_static_64:DyTGSDynamics.obj
 0001:000b3a00       ??_GParallelSolveTask@Dy@physx@@UEAAPEAXI@Z 00000001800b4a00 f i LowLevelDynamics_static_64:DyTGSDynamics.obj
 0001:000b3a00       ??_GPartitionTask@Dy@physx@@UEAAPEAXI@Z 00000001800b4a00 f i LowLevelDynamics_static_64:DyTGSDynamics.obj
 0001:000b3a00       ??_GPxsSolverCreateFinalizeConstraintsTask@Dy@physx@@UEAAPEAXI@Z 00000001800b4a00 f i LowLevelDynamics_static_64:DyDynamics.obj
 0001:000b3a00       ??_GSolveIslandTask@Dy@physx@@UEAAPEAXI@Z 00000001800b4a00 f i LowLevelDynamics_static_64:DyTGSDynamics.obj
 0001:000b3a40       ??_EContext@Dy@physx@@MEAAPEAXI@Z 00000001800b4a40 f i LowLevelDynamics_static_64:DyTGSDynamics.obj
 0001:000b3a40       ??_GContext@Dy@physx@@MEAAPEAXI@Z 00000001800b4a40 f i LowLevelDynamics_static_64:DyTGSDynamics.obj
 0001:000b3a80       ??_ECopyBackTask@Dy@physx@@UEAAPEAXI@Z 00000001800b4a80 f i LowLevelDynamics_static_64:DyTGSDynamics.obj
 0001:000b3a80       ??_EPxsCreateArticConstraintsSubTask@Dy@physx@@UEAAPEAXI@Z 00000001800b4a80 f i LowLevelDynamics_static_64:DyTGSDynamics.obj
 0001:000b3a80       ??_GCopyBackTask@Dy@physx@@UEAAPEAXI@Z 00000001800b4a80 f i LowLevelDynamics_static_64:DyTGSDynamics.obj
 0001:000b3a80       ??_GPxsCreateArticConstraintsSubTask@Dy@physx@@UEAAPEAXI@Z 00000001800b4a80 f i LowLevelDynamics_static_64:DyTGSDynamics.obj
 0001:000b3ac0       ??_EDynamicsTGSContext@Dy@physx@@MEAAPEAXI@Z 00000001800b4ac0 f i LowLevelDynamics_static_64:DyTGSDynamics.obj
 0001:000b3ac0       ??_GDynamicsTGSContext@Dy@physx@@MEAAPEAXI@Z 00000001800b4ac0 f i LowLevelDynamics_static_64:DyTGSDynamics.obj
 0001:000b3b00       ??_EEndIslandTask@Dy@physx@@UEAAPEAXI@Z 00000001800b4b00 f i LowLevelDynamics_static_64:DyTGSDynamics.obj
 0001:000b3b00       ??_EPostBroadPhaseStage2Task@Bp@physx@@UEAAPEAXI@Z 00000001800b4b00 f i LowLevelAABB_static_64:BpAABBManager.obj
 0001:000b3b00       ??_EPxsCCDSweepTask@physx@@UEAAPEAXI@Z 00000001800b4b00 f i LowLevel_static_64:PxsCCD.obj
 0001:000b3b00       ??_ESapPostUpdateWorkTask@Bp@physx@@UEAAPEAXI@Z 00000001800b4b00 f i LowLevelAABB_static_64:BpBroadPhaseSap.obj
 0001:000b3b00       ??_ESapUpdateWorkTask@Bp@physx@@UEAAPEAXI@Z 00000001800b4b00 f i LowLevelAABB_static_64:BpBroadPhaseSap.obj
 0001:000b3b00       ??_EScKinematicPoseUpdateTask@@UEAAPEAXI@Z 00000001800b4b00 f i SimulationController_static_64:ScScene.obj
 0001:000b3b00       ??_EScKinematicUpdateTask@@UEAAPEAXI@Z 00000001800b4b00 f i SimulationController_static_64:ScScene.obj
 0001:000b3b00       ??_ESortAggregateBoundsParallel@Bp@physx@@UEAAPEAXI@Z 00000001800b4b00 f i LowLevelAABB_static_64:BpAABBManager.obj
 0001:000b3b00       ??_EThirdPassTask@IG@physx@@UEAAPEAXI@Z 00000001800b4b00 f i LowLevel_static_64:PxsSimpleIslandManager.obj
 0001:000b3b00       ??_EUpdatProjectedPoseTask@@UEAAPEAXI@Z 00000001800b4b00 f i SimulationController_static_64:ScScene.obj
 0001:000b3b00       ??_GEndIslandTask@Dy@physx@@UEAAPEAXI@Z 00000001800b4b00 f i LowLevelDynamics_static_64:DyTGSDynamics.obj
 0001:000b3b00       ??_GPostBroadPhaseStage2Task@Bp@physx@@UEAAPEAXI@Z 00000001800b4b00 f i LowLevelAABB_static_64:BpAABBManager.obj
 0001:000b3b00       ??_GPxsCCDSweepTask@physx@@UEAAPEAXI@Z 00000001800b4b00 f i LowLevel_static_64:PxsCCD.obj
 0001:000b3b00       ??_GSapPostUpdateWorkTask@Bp@physx@@UEAAPEAXI@Z 00000001800b4b00 f i LowLevelAABB_static_64:BpBroadPhaseSap.obj
 0001:000b3b00       ??_GSapUpdateWorkTask@Bp@physx@@UEAAPEAXI@Z 00000001800b4b00 f i LowLevelAABB_static_64:BpBroadPhaseSap.obj
 0001:000b3b00       ??_GScKinematicPoseUpdateTask@@UEAAPEAXI@Z 00000001800b4b00 f i SimulationController_static_64:ScScene.obj
 0001:000b3b00       ??_GScKinematicUpdateTask@@UEAAPEAXI@Z 00000001800b4b00 f i SimulationController_static_64:ScScene.obj
 0001:000b3b00       ??_GSortAggregateBoundsParallel@Bp@physx@@UEAAPEAXI@Z 00000001800b4b00 f i LowLevelAABB_static_64:BpAABBManager.obj
 0001:000b3b00       ??_GThirdPassTask@IG@physx@@UEAAPEAXI@Z 00000001800b4b00 f i LowLevel_static_64:PxsSimpleIslandManager.obj
 0001:000b3b00       ??_GUpdatProjectedPoseTask@@UEAAPEAXI@Z 00000001800b4b00 f i SimulationController_static_64:ScScene.obj
 0001:000b3b40       ??_EKinematicCopyTGSTask@Dy@physx@@UEAAPEAXI@Z 00000001800b4b40 f i LowLevelDynamics_static_64:DyTGSDynamics.obj
 0001:000b3b40       ??_EPxsCMDiscreteUpdateTask@@UEAAPEAXI@Z 00000001800b4b40 f i LowLevel_static_64:PxsNphaseImplementationContext.obj
 0001:000b3b40       ??_EPxsCreateArticConstraintsTask@Dy@physx@@UEAAPEAXI@Z 00000001800b4b40 f i LowLevelDynamics_static_64:DyDynamics.obj
 0001:000b3b40       ??_EScAfterIntegrationTask@@UEAAPEAXI@Z 00000001800b4b40 f i SimulationController_static_64:ScScene.obj
 0001:000b3b40       ??_ESetupArticulationTask@Dy@physx@@UEAAPEAXI@Z 00000001800b4b40 f i LowLevelDynamics_static_64:DyTGSDynamics.obj
 0001:000b3b40       ??_ESetupSolverConstraintsTask@Dy@physx@@UEAAPEAXI@Z 00000001800b4b40 f i LowLevelDynamics_static_64:DyTGSDynamics.obj
 0001:000b3b40       ??_ESolverArticulationUpdateTask@Dy@physx@@UEAAPEAXI@Z 00000001800b4b40 f i LowLevelDynamics_static_64:DyDynamics.obj
 0001:000b3b40       ??_ETriggerContactTask@Sc@physx@@UEAAPEAXI@Z 00000001800b4b40 f i SimulationController_static_64:ScNPhaseCore.obj
 0001:000b3b40       ??_GKinematicCopyTGSTask@Dy@physx@@UEAAPEAXI@Z 00000001800b4b40 f i LowLevelDynamics_static_64:DyTGSDynamics.obj
 0001:000b3b40       ??_GPxsCMDiscreteUpdateTask@@UEAAPEAXI@Z 00000001800b4b40 f i LowLevel_static_64:PxsNphaseImplementationContext.obj
 0001:000b3b40       ??_GPxsCreateArticConstraintsTask@Dy@physx@@UEAAPEAXI@Z 00000001800b4b40 f i LowLevelDynamics_static_64:DyDynamics.obj
 0001:000b3b40       ??_GScAfterIntegrationTask@@UEAAPEAXI@Z 00000001800b4b40 f i SimulationController_static_64:ScScene.obj
 0001:000b3b40       ??_GSetupArticulationTask@Dy@physx@@UEAAPEAXI@Z 00000001800b4b40 f i LowLevelDynamics_static_64:DyTGSDynamics.obj
 0001:000b3b40       ??_GSetupSolverConstraintsTask@Dy@physx@@UEAAPEAXI@Z 00000001800b4b40 f i LowLevelDynamics_static_64:DyTGSDynamics.obj
 0001:000b3b40       ??_GSolverArticulationUpdateTask@Dy@physx@@UEAAPEAXI@Z 00000001800b4b40 f i LowLevelDynamics_static_64:DyDynamics.obj
 0001:000b3b40       ??_GTriggerContactTask@Sc@physx@@UEAAPEAXI@Z 00000001800b4b40 f i SimulationController_static_64:ScNPhaseCore.obj
 0001:000b3b80       ??_EPreIntegrateParallelTask@Dy@physx@@UEAAPEAXI@Z 00000001800b4b80 f i LowLevelDynamics_static_64:DyTGSDynamics.obj
 0001:000b3b80       ??_EPreIntegrateTask@Dy@physx@@UEAAPEAXI@Z 00000001800b4b80 f i LowLevelDynamics_static_64:DyTGSDynamics.obj
 0001:000b3b80       ??_EPxsCCDAdvanceTask@physx@@UEAAPEAXI@Z 00000001800b4b80 f i LowLevel_static_64:PxsCCD.obj
 0001:000b3b80       ??_EPxsPreIntegrateTask@Dy@physx@@UEAAPEAXI@Z 00000001800b4b80 f i LowLevelDynamics_static_64:DyDynamics.obj
 0001:000b3b80       ??_GPreIntegrateParallelTask@Dy@physx@@UEAAPEAXI@Z 00000001800b4b80 f i LowLevelDynamics_static_64:DyTGSDynamics.obj
 0001:000b3b80       ??_GPreIntegrateTask@Dy@physx@@UEAAPEAXI@Z 00000001800b4b80 f i LowLevelDynamics_static_64:DyTGSDynamics.obj
 0001:000b3b80       ??_GPxsCCDAdvanceTask@physx@@UEAAPEAXI@Z 00000001800b4b80 f i LowLevel_static_64:PxsCCD.obj
 0001:000b3b80       ??_GPxsPreIntegrateTask@Dy@physx@@UEAAPEAXI@Z 00000001800b4b80 f i LowLevelDynamics_static_64:DyDynamics.obj
 0001:000b3bc0       ??_EBroadPhaseBatchUpdateWorkTask@Bp@physx@@UEAAPEAXI@Z 00000001800b4bc0 f i LowLevelAABB_static_64:BpBroadPhaseSap.obj
 0001:000b3bc0       ??_EConstraintProjectionTask@@UEAAPEAXI@Z 00000001800b4bc0 f i SimulationController_static_64:ScScene.obj
 0001:000b3bc0       ??_EKinematicCopyTask@Dy@physx@@UEAAPEAXI@Z 00000001800b4bc0 f i LowLevelDynamics_static_64:DyDynamics.obj
 0001:000b3bc0       ??_EPxsParallelSolverTask@Dy@physx@@UEAAPEAXI@Z 00000001800b4bc0 f i LowLevelDynamics_static_64:DyDynamics.obj
 0001:000b3bc0       ??_EScArticBeforeSolverTask@@UEAAPEAXI@Z 00000001800b4bc0 f i SimulationController_static_64:ScScene.obj
 0001:000b3bc0       ??_EScKinematicShapeUpdateTask@@UEAAPEAXI@Z 00000001800b4bc0 f i SimulationController_static_64:ScScene.obj
 0001:000b3bc0       ??_ESetupArticulationInternalConstraintsTask@Dy@physx@@UEAAPEAXI@Z 00000001800b4bc0 f i LowLevelDynamics_static_64:DyTGSDynamics.obj
 0001:000b3bc0       ??_ESpeculativeCCDContactDistanceArticulationUpdateTask@@UEAAPEAXI@Z 00000001800b4bc0 f i SimulationController_static_64:ScScene.obj
 0001:000b3bc0       ??_EUpdateArticTask@Dy@physx@@UEAAPEAXI@Z 00000001800b4bc0 f i LowLevelDynamics_static_64:DyTGSDynamics.obj
 0001:000b3bc0       ??_GBroadPhaseBatchUpdateWorkTask@Bp@physx@@UEAAPEAXI@Z 00000001800b4bc0 f i LowLevelAABB_static_64:BpBroadPhaseSap.obj
 0001:000b3bc0       ??_GConstraintProjectionTask@@UEAAPEAXI@Z 00000001800b4bc0 f i SimulationController_static_64:ScScene.obj
 0001:000b3bc0       ??_GKinematicCopyTask@Dy@physx@@UEAAPEAXI@Z 00000001800b4bc0 f i LowLevelDynamics_static_64:DyDynamics.obj
 0001:000b3bc0       ??_GPxsParallelSolverTask@Dy@physx@@UEAAPEAXI@Z 00000001800b4bc0 f i LowLevelDynamics_static_64:DyDynamics.obj
 0001:000b3bc0       ??_GScArticBeforeSolverTask@@UEAAPEAXI@Z 00000001800b4bc0 f i SimulationController_static_64:ScScene.obj
 0001:000b3bc0       ??_GScKinematicShapeUpdateTask@@UEAAPEAXI@Z 00000001800b4bc0 f i SimulationController_static_64:ScScene.obj
 0001:000b3bc0       ??_GSetupArticulationInternalConstraintsTask@Dy@physx@@UEAAPEAXI@Z 00000001800b4bc0 f i LowLevelDynamics_static_64:DyTGSDynamics.obj
 0001:000b3bc0       ??_GSpeculativeCCDContactDistanceArticulationUpdateTask@@UEAAPEAXI@Z 00000001800b4bc0 f i SimulationController_static_64:ScScene.obj
 0001:000b3bc0       ??_GUpdateArticTask@Dy@physx@@UEAAPEAXI@Z 00000001800b4bc0 f i LowLevelDynamics_static_64:DyTGSDynamics.obj
 0001:000b3c00       ??_EOnOverlapCreatedTask@@UEAAPEAXI@Z 00000001800b4c00 f i SimulationController_static_64:ScScene.obj
 0001:000b3c00       ??_EPxgUpdateBodyAndShapeStatusTask@@UEAAPEAXI@Z 00000001800b4c00 f i SimulationController_static_64:ScScene.obj
 0001:000b3c00       ??_EPxsCreateFinalizeContactsTask@Dy@physx@@UEAAPEAXI@Z 00000001800b4c00 f i LowLevelDynamics_static_64:DyDynamics.obj
 0001:000b3c00       ??_ESetupDescsTask@Dy@physx@@UEAAPEAXI@Z 00000001800b4c00 f i LowLevelDynamics_static_64:DyTGSDynamics.obj
 0001:000b3c00       ??_GOnOverlapCreatedTask@@UEAAPEAXI@Z 00000001800b4c00 f i SimulationController_static_64:ScScene.obj
 0001:000b3c00       ??_GPxgUpdateBodyAndShapeStatusTask@@UEAAPEAXI@Z 00000001800b4c00 f i SimulationController_static_64:ScScene.obj
 0001:000b3c00       ??_GPxsCreateFinalizeContactsTask@Dy@physx@@UEAAPEAXI@Z 00000001800b4c00 f i LowLevelDynamics_static_64:DyDynamics.obj
 0001:000b3c00       ??_GSetupDescsTask@Dy@physx@@UEAAPEAXI@Z 00000001800b4c00 f i LowLevelDynamics_static_64:DyTGSDynamics.obj
 0001:000b3c40       ??_ESetupSolverConstraintsSubTask@Dy@physx@@UEAAPEAXI@Z 00000001800b4c40 f i LowLevelDynamics_static_64:DyTGSDynamics.obj
 0001:000b3c40       ??_GSetupSolverConstraintsSubTask@Dy@physx@@UEAAPEAXI@Z 00000001800b4c40 f i LowLevelDynamics_static_64:DyTGSDynamics.obj
 0001:000b3c80       ?allocate@?$Array@VSpatialVector@Cm@physx@@V?$ReflectionAllocator@VSpatialVector@Cm@physx@@@shdfnd@3@@shdfnd@physx@@IEAAPEAVSpatialVector@Cm@3@I@Z 00000001800b4c80 f i LowLevelDynamics_static_64:DyTGSDynamics.obj
 0001:000b3d20       ?allocate@FlushPool@Cm@physx@@QEAAPEAXII@Z 00000001800b4d20 f i LowLevelDynamics_static_64:DyTGSDynamics.obj
 0001:000b3e50       ?copy@?$Array@UPxTGSSolverBodyTxInertia@physx@@V?$AlignedAllocator@$0IA@V?$ReflectionAllocator@UPxTGSSolverBodyTxInertia@physx@@@shdfnd@physx@@@shdfnd@2@@shdfnd@physx@@KAXPEAUPxTGSSolverBodyTxInertia@3@0PEBU43@@Z 00000001800b4e50 f i LowLevelDynamics_static_64:DyTGSDynamics.obj
 0001:000b4100       ?copy@?$Array@UPxTGSSolverBodyVel@physx@@V?$AlignedAllocator@$0IA@V?$ReflectionAllocator@UPxTGSSolverBodyVel@physx@@@shdfnd@physx@@@shdfnd@2@@shdfnd@physx@@KAXPEAUPxTGSSolverBodyVel@3@0PEBU43@@Z 00000001800b5100 f i LowLevelDynamics_static_64:DyTGSDynamics.obj
 0001:000b4450       ?copyBackBodies@DynamicsTGSContext@Dy@physx@@IEAAXAEBUSolverIslandObjectsStep@23@PEAUPxTGSSolverBodyVel@3@PEAUPxTGSSolverBodyTxInertia@3@PEAUPxTGSSolverBodyData@3@MAEAVIslandSim@IG@3@II@Z 00000001800b5450 f   LowLevelDynamics_static_64:DyTGSDynamics.obj
 0001:000b5160       ?copyToSolverBodyDataStep@Dy@physx@@YAXAEBVPxVec3@2@0M0AEBVPxTransform@2@MMIMMI_NAEAUPxTGSSolverBodyVel@2@AEAUPxTGSSolverBodyTxInertia@2@AEAUPxTGSSolverBodyData@2@@Z 00000001800b6160 f   LowLevelDynamics_static_64:DyTGSDynamics.obj
 0001:000b5550       ?create@?$Array@UPxTGSSolverBodyData@physx@@V?$AlignedAllocator@$0IA@V?$ReflectionAllocator@UPxTGSSolverBodyData@physx@@@shdfnd@physx@@@shdfnd@2@@shdfnd@physx@@KAXPEAUPxTGSSolverBodyData@3@0AEBU43@@Z 00000001800b6550 f i LowLevelDynamics_static_64:DyTGSDynamics.obj
 0001:000b5750       ?create@?$Array@UPxTGSSolverBodyTxInertia@physx@@V?$AlignedAllocator@$0IA@V?$ReflectionAllocator@UPxTGSSolverBodyTxInertia@physx@@@shdfnd@physx@@@shdfnd@2@@shdfnd@physx@@KAXPEAUPxTGSSolverBodyTxInertia@3@0AEBU43@@Z 00000001800b6750 f i LowLevelDynamics_static_64:DyTGSDynamics.obj
 0001:000b5a20       ?create@?$Array@UPxTGSSolverBodyVel@physx@@V?$AlignedAllocator@$0IA@V?$ReflectionAllocator@UPxTGSSolverBodyVel@physx@@@shdfnd@physx@@@shdfnd@2@@shdfnd@physx@@KAXPEAUPxTGSSolverBodyVel@3@0AEBU43@@Z 00000001800b6a20 f i LowLevelDynamics_static_64:DyTGSDynamics.obj
 0001:000b5d90       ?createSolverConstraints@DynamicsTGSContext@Dy@physx@@IEAAXPEAUPxSolverConstraintDesc@3@PEAUPxConstraintBatchHeader@3@IAEAVPxsContactManagerOutputIterator@3@AEAVThreadContext@23@3MMMI@Z 00000001800b6d90 f   LowLevelDynamics_static_64:DyTGSDynamics.obj
 0001:000b6690       ?createTGSDynamicsContext@Dy@physx@@YAPEAVContext@12@PEAVPxcNpMemBlockPool@2@AEAVPxcScratchAllocator@2@AEAVFlushPool@Cm@2@AEAUPxvSimStats@2@PEAVPxTaskManager@2@PEAVVirtualAllocatorCallback@shdfnd@2@PEAVPxsMaterialManager@2@PEAVIslandSim@IG@2@_K_N99M@Z 00000001800b7690 f   LowLevelDynamics_static_64:DyTGSDynamics.obj
 0001:000b67a0       ?destroy@DynamicsContext@Dy@physx@@UEAAXXZ 00000001800b77a0 f   LowLevelDynamics_static_64:DyDynamics.obj
 0001:000b67a0       ?destroy@DynamicsTGSContext@Dy@physx@@UEAAXXZ 00000001800b77a0 f   LowLevelDynamics_static_64:DyTGSDynamics.obj
 0001:000b67d0       ?finishSolveIsland@DynamicsTGSContext@Dy@physx@@IEAAXAEAVThreadContext@23@AEBUSolverIslandObjectsStep@23@AEBVPxsIslandIndices@3@AEAVSimpleIslandManager@IG@3@PEAVPxBaseTask@3@@Z 00000001800b77d0 f   LowLevelDynamics_static_64:DyTGSDynamics.obj
 0001:000b6c20       ?get@?$PxcThreadCoherentCache@VThreadContext@Dy@physx@@VPxcNpMemBlockPool@3@@physx@@QEAAPEAVThreadContext@Dy@2@XZ 00000001800b7c20 f i LowLevelDynamics_static_64:DyTGSDynamics.obj
 0001:000b6cd0       ?getName@ArticulationTask@Dy@physx@@UEBAPEBDXZ 00000001800b7cd0 f i LowLevelDynamics_static_64:DyTGSDynamics.obj
 0001:000b6ce0       ?getName@CopyBackTask@Dy@physx@@UEBAPEBDXZ 00000001800b7ce0 f i LowLevelDynamics_static_64:DyTGSDynamics.obj
 0001:000b6cf0       ?getName@DynamicsMergeTask@Dy@physx@@UEBAPEBDXZ 00000001800b7cf0 f i LowLevelDynamics_static_64:DyTGSDynamics.obj
 0001:000b6d00       ?getName@EndIslandTask@Dy@physx@@UEBAPEBDXZ 00000001800b7d00 f i LowLevelDynamics_static_64:DyTGSDynamics.obj
 0001:000b6d10       ?getName@FinishSolveIslandTask@Dy@physx@@UEBAPEBDXZ 00000001800b7d10 f i LowLevelDynamics_static_64:DyTGSDynamics.obj
 0001:000b6d20       ?getName@KinematicCopyTGSTask@Dy@physx@@UEBAPEBDXZ 00000001800b7d20 f i LowLevelDynamics_static_64:DyTGSDynamics.obj
 0001:000b6d20       ?getName@KinematicCopyTask@Dy@physx@@UEBAPEBDXZ 00000001800b7d20 f i LowLevelDynamics_static_64:DyDynamics.obj
 0001:000b6d30       ?getName@ParallelSolveTask@Dy@physx@@UEBAPEBDXZ 00000001800b7d30 f i LowLevelDynamics_static_64:DyTGSDynamics.obj
 0001:000b6d40       ?getName@PartitionTask@Dy@physx@@UEBAPEBDXZ 00000001800b7d40 f i LowLevelDynamics_static_64:DyTGSDynamics.obj
 0001:000b6d50       ?getName@PreIntegrateParallelTask@Dy@physx@@UEBAPEBDXZ 00000001800b7d50 f i LowLevelDynamics_static_64:DyTGSDynamics.obj
 0001:000b6d60       ?getName@PreIntegrateTask@Dy@physx@@UEBAPEBDXZ 00000001800b7d60 f i LowLevelDynamics_static_64:DyTGSDynamics.obj
 0001:000b6d70       ?getName@PxsCreateArticConstraintsSubTask@Dy@physx@@UEBAPEBDXZ 00000001800b7d70 f i LowLevelDynamics_static_64:DyTGSDynamics.obj
 0001:000b6d80       ?getName@SetStepperTask@Dy@physx@@UEBAPEBDXZ 00000001800b7d80 f i LowLevelDynamics_static_64:DyTGSDynamics.obj
 0001:000b6d90       ?getName@SetupArticulationInternalConstraintsTask@Dy@physx@@UEBAPEBDXZ 00000001800b7d90 f i LowLevelDynamics_static_64:DyTGSDynamics.obj
 0001:000b6da0       ?getName@SetupArticulationTask@Dy@physx@@UEBAPEBDXZ 00000001800b7da0 f i LowLevelDynamics_static_64:DyTGSDynamics.obj
 0001:000b6db0       ?getName@SetupDescsTask@Dy@physx@@UEBAPEBDXZ 00000001800b7db0 f i LowLevelDynamics_static_64:DyTGSDynamics.obj
 0001:000b6dc0       ?getName@SetupSolverConstraintsSubTask@Dy@physx@@UEBAPEBDXZ 00000001800b7dc0 f i LowLevelDynamics_static_64:DyTGSDynamics.obj
 0001:000b6dd0       ?getName@SetupSolverConstraintsTask@Dy@physx@@UEBAPEBDXZ 00000001800b7dd0 f i LowLevelDynamics_static_64:DyTGSDynamics.obj
 0001:000b6de0       ?getName@SolveIslandTask@Dy@physx@@UEBAPEBDXZ 00000001800b7de0 f i LowLevelDynamics_static_64:DyTGSDynamics.obj
 0001:000b6df0       ?getName@UpdateArticTask@Dy@physx@@UEBAPEBDXZ 00000001800b7df0 f i LowLevelDynamics_static_64:DyTGSDynamics.obj
 0001:000b6e00       ?getName@UpdateContinuationTGSTask@Dy@physx@@UEBAPEBDXZ 00000001800b7e00 f i LowLevelDynamics_static_64:DyTGSDynamics.obj
 0001:000b6e00       ?getName@UpdateContinuationTask@Dy@physx@@UEBAPEBDXZ 00000001800b7e00 f i LowLevelDynamics_static_64:DyDynamics.obj
 0001:000b6e10       ?integrateBodies@DynamicsTGSContext@Dy@physx@@IEAAXAEBUSolverIslandObjectsStep@23@IPEAUPxTGSSolverBodyVel@3@PEAUPxTGSSolverBodyTxInertia@3@QEBUPxTGSSolverBodyData@3@M@Z 00000001800b7e10 f   LowLevelDynamics_static_64:DyTGSDynamics.obj
 0001:000b71f0       ?integrateCoreStep@Dy@physx@@YAXAEAUPxTGSSolverBodyVel@2@AEAUPxTGSSolverBodyTxInertia@2@M@Z 00000001800b81f0 f   LowLevelDynamics_static_64:DyTGSDynamics.obj
 0001:000b7530       ?iterativeSolveIsland@DynamicsTGSContext@Dy@physx@@IEAAXAEBUSolverIslandObjectsStep@23@AEBVPxsIslandIndices@3@AEAVThreadContext@23@MMIIAEAUSolverContext@23@@Z 00000001800b8530 f   LowLevelDynamics_static_64:DyTGSDynamics.obj
 0001:000b7c50       ?iterativeSolveIslandParallel@DynamicsTGSContext@Dy@physx@@IEAAXAEBUSolverIslandObjectsStep@23@AEBVPxsIslandIndices@3@AEAVThreadContext@23@MIIPEAH33333II@Z 00000001800b8c50 f   LowLevelDynamics_static_64:DyTGSDynamics.obj
 0001:000b8f40       ?parallelIntegrateBodies@DynamicsTGSContext@Dy@physx@@IEAAXPEAUPxTGSSolverBodyVel@3@PEAUPxTGSSolverBodyTxInertia@3@QEBUPxTGSSolverBodyData@3@IM@Z 00000001800b9f40 f   LowLevelDynamics_static_64:DyTGSDynamics.obj
 0001:000b9320       ?preIntegrateBodies@DynamicsTGSContext@Dy@physx@@IEAAXPEAPEAUPxsBodyCore@3@PEAPEAVPxsRigidBody@3@PEAUPxTGSSolverBodyVel@3@PEAUPxTGSSolverBodyTxInertia@3@PEAUPxTGSSolverBodyData@3@PEAIIAEBVPxVec3@3@MAEAI7I@Z 00000001800ba320 f   LowLevelDynamics_static_64:DyTGSDynamics.obj
 0001:000b96e0       ?prepareBodiesAndConstraints@DynamicsTGSContext@Dy@physx@@IEAAXAEBUSolverIslandObjectsStep@23@AEAVSimpleIslandManager@IG@3@AEAUIslandContextStep@23@@Z 00000001800ba6e0 f   LowLevelDynamics_static_64:DyTGSDynamics.obj
 0001:000b9ae0       ?recreate@?$Array@PEAUPxsBodyCore@physx@@V?$ReflectionAllocator@PEAUPxsBodyCore@physx@@@shdfnd@2@@shdfnd@physx@@IEAAXI@Z 00000001800baae0 f i LowLevelDynamics_static_64:DyTGSDynamics.obj
 0001:000b9bf0       ?recreate@?$Array@PEAVArticulationV@Dy@physx@@V?$ReflectionAllocator@PEAVArticulationV@Dy@physx@@@shdfnd@3@@shdfnd@physx@@IEAAXI@Z 00000001800babf0 f i LowLevelDynamics_static_64:DyTGSDynamics.obj
 0001:000b9d00       ?recreate@?$Array@PEAVPxsRigidBody@physx@@V?$ReflectionAllocator@PEAVPxsRigidBody@physx@@@shdfnd@2@@shdfnd@physx@@IEAAXI@Z 00000001800bad00 f i LowLevelDynamics_static_64:DyTGSDynamics.obj
 0001:000b9e10       ?recreate@?$Array@UPxConstraintBatchHeader@physx@@V?$ReflectionAllocator@UPxConstraintBatchHeader@physx@@@shdfnd@2@@shdfnd@physx@@IEAAXI@Z 00000001800bae10 f i LowLevelDynamics_static_64:DyTGSDynamics.obj
 0001:000b9f20       ?recreate@?$Array@UPxSolverConstraintDesc@physx@@V?$AlignedAllocator@$0IA@V?$ReflectionAllocator@UPxSolverConstraintDesc@physx@@@shdfnd@physx@@@shdfnd@2@@shdfnd@physx@@IEAAXI@Z 00000001800baf20 f i LowLevelDynamics_static_64:DyTGSDynamics.obj
 0001:000ba020       ?recreate@?$Array@UPxTGSSolverBodyData@physx@@V?$AlignedAllocator@$0IA@V?$ReflectionAllocator@UPxTGSSolverBodyData@physx@@@shdfnd@physx@@@shdfnd@2@@shdfnd@physx@@IEAAXI@Z 00000001800bb020 f i LowLevelDynamics_static_64:DyTGSDynamics.obj
 0001:000ba330       ?recreate@?$Array@UPxTGSSolverBodyTxInertia@physx@@V?$AlignedAllocator@$0IA@V?$ReflectionAllocator@UPxTGSSolverBodyTxInertia@physx@@@shdfnd@physx@@@shdfnd@2@@shdfnd@physx@@IEAAXI@Z 00000001800bb330 f i LowLevelDynamics_static_64:DyTGSDynamics.obj
 0001:000ba440       ?recreate@?$Array@UPxTGSSolverBodyVel@physx@@V?$AlignedAllocator@$0IA@V?$ReflectionAllocator@UPxTGSSolverBodyVel@physx@@@shdfnd@physx@@@shdfnd@2@@shdfnd@physx@@IEAAXI@Z 00000001800bb440 f i LowLevelDynamics_static_64:DyTGSDynamics.obj
 0001:000ba550       ?recreate@?$Array@UPxsIndexedContactManager@physx@@V?$ReflectionAllocator@UPxsIndexedContactManager@physx@@@shdfnd@2@@shdfnd@physx@@IEAAXI@Z 00000001800bb550 f i LowLevelDynamics_static_64:DyTGSDynamics.obj
 0001:000ba670       ?recreate@?$Array@UThresholdStreamElement@Dy@physx@@VVirtualAllocator@shdfnd@3@@shdfnd@physx@@IEAAXI@Z 00000001800bb670 f i LowLevelDynamics_static_64:DyTGSDynamics.obj
 0001:000ba720       ?recreate@?$Array@VSpatialVector@Cm@physx@@V?$ReflectionAllocator@VSpatialVector@Cm@physx@@@shdfnd@3@@shdfnd@physx@@IEAAXI@Z 00000001800bb720 f i LowLevelDynamics_static_64:DyTGSDynamics.obj
 0001:000ba7b0       ?release@DynamicsMergeTask@Dy@physx@@UEAAXXZ 00000001800bb7b0 f i LowLevelDynamics_static_64:DyTGSDynamics.obj
 0001:000ba7e0       ?release@SetStepperTask@Dy@physx@@UEAAXXZ 00000001800bb7e0 f i LowLevelDynamics_static_64:DyTGSDynamics.obj
 0001:000ba810       ?resize@?$Array@IV?$ReflectionAllocator@I@shdfnd@physx@@@shdfnd@physx@@QEAAXIAEBI@Z 00000001800bb810 f i LowLevelDynamics_static_64:DyTGSDynamics.obj
 0001:000ba8d0       ?resize@?$Array@UPxTGSSolverBodyData@physx@@V?$AlignedAllocator@$0IA@V?$ReflectionAllocator@UPxTGSSolverBodyData@physx@@@shdfnd@physx@@@shdfnd@2@@shdfnd@physx@@QEAAXIAEBUPxTGSSolverBodyData@3@@Z 00000001800bb8d0 f i LowLevelDynamics_static_64:DyTGSDynamics.obj
 0001:000ba930       ?resize@?$Array@UPxTGSSolverBodyTxInertia@physx@@V?$AlignedAllocator@$0IA@V?$ReflectionAllocator@UPxTGSSolverBodyTxInertia@physx@@@shdfnd@physx@@@shdfnd@2@@shdfnd@physx@@QEAAXIAEBUPxTGSSolverBodyTxInertia@3@@Z 00000001800bb930 f i LowLevelDynamics_static_64:DyTGSDynamics.obj
 0001:000ba990       ?resize@?$Array@UPxTGSSolverBodyVel@physx@@V?$AlignedAllocator@$0IA@V?$ReflectionAllocator@UPxTGSSolverBodyVel@physx@@@shdfnd@physx@@@shdfnd@2@@shdfnd@physx@@QEAAXIAEBUPxTGSSolverBodyVel@3@@Z 00000001800bb990 f i LowLevelDynamics_static_64:DyTGSDynamics.obj
 0001:000ba9f0       ?runInternal@ArticulationTask@Dy@physx@@UEAAXXZ 00000001800bb9f0 f i LowLevelDynamics_static_64:DyTGSDynamics.obj
 0001:000bab50       ?runInternal@CopyBackTask@Dy@physx@@UEAAXXZ 00000001800bbb50 f i LowLevelDynamics_static_64:DyTGSDynamics.obj
 0001:000baba0       ?runInternal@EndIslandTask@Dy@physx@@UEAAXXZ 00000001800bbba0 f i LowLevelDynamics_static_64:DyTGSDynamics.obj
 0001:000babc0       ?runInternal@FinishSolveIslandTask@Dy@physx@@UEAAXXZ 00000001800bbbc0 f i LowLevelDynamics_static_64:DyTGSDynamics.obj
 0001:000babf0       ?runInternal@KinematicCopyTGSTask@Dy@physx@@UEAAXXZ 00000001800bbbf0 f i LowLevelDynamics_static_64:DyTGSDynamics.obj
 0001:000bad90       ?runInternal@ParallelSolveTask@Dy@physx@@UEAAXXZ 00000001800bbd90 f i LowLevelDynamics_static_64:DyTGSDynamics.obj
 0001:000bae40       ?runInternal@PartitionTask@Dy@physx@@UEAAXXZ 00000001800bbe40 f i LowLevelDynamics_static_64:DyTGSDynamics.obj
 0001:000bb2a0       ?runInternal@PreIntegrateParallelTask@Dy@physx@@UEAAXXZ 00000001800bc2a0 f i LowLevelDynamics_static_64:DyTGSDynamics.obj
 0001:000bb340       ?runInternal@PreIntegrateTask@Dy@physx@@UEAAXXZ 00000001800bc340 f i LowLevelDynamics_static_64:DyTGSDynamics.obj
 0001:000bb6a0       ?runInternal@PxsCreateArticConstraintsSubTask@Dy@physx@@UEAAXXZ 00000001800bc6a0 f i LowLevelDynamics_static_64:DyTGSDynamics.obj
 0001:000bb820       ?runInternal@SetStepperTask@Dy@physx@@UEAAXXZ 00000001800bc820 f i LowLevelDynamics_static_64:DyTGSDynamics.obj
 0001:000bb8a0       ?runInternal@SetupArticulationInternalConstraintsTask@Dy@physx@@UEAAXXZ 00000001800bc8a0 f i LowLevelDynamics_static_64:DyTGSDynamics.obj
 0001:000bbaa0       ?runInternal@SetupArticulationTask@Dy@physx@@UEAAXXZ 00000001800bcaa0 f i LowLevelDynamics_static_64:DyTGSDynamics.obj
 0001:000bbb10       ?runInternal@SetupDescsTask@Dy@physx@@UEAAXXZ 00000001800bcb10 f i LowLevelDynamics_static_64:DyTGSDynamics.obj
 0001:000bbb60       ?runInternal@SetupSolverConstraintsSubTask@Dy@physx@@UEAAXXZ 00000001800bcb60 f i LowLevelDynamics_static_64:DyTGSDynamics.obj
 0001:000bbc10       ?runInternal@SetupSolverConstraintsTask@Dy@physx@@UEAAXXZ 00000001800bcc10 f i LowLevelDynamics_static_64:DyTGSDynamics.obj
 0001:000bc060       ?runInternal@SolveIslandTask@Dy@physx@@UEAAXXZ 00000001800bd060 f i LowLevelDynamics_static_64:DyTGSDynamics.obj
 0001:000bc520       ?runInternal@UpdateArticTask@Dy@physx@@UEAAXXZ 00000001800bd520 f i LowLevelDynamics_static_64:DyTGSDynamics.obj
 0001:000bc5c0       ?runInternal@UpdateContinuationTGSTask@Dy@physx@@UEAAXXZ 00000001800bd5c0 f i LowLevelDynamics_static_64:DyTGSDynamics.obj
 0001:000bc5f0       ?setDescFromIndices@DynamicsTGSContext@Dy@physx@@IEAAXAEAUPxSolverConstraintDesc@3@IAEBVSimpleIslandManager@IG@3@PEAIIPEAUPxTGSSolverBodyVel@3@@Z 00000001800bd5f0 f   LowLevelDynamics_static_64:DyTGSDynamics.obj
 0001:000bc810       ?setSimulationController@DynamicsContext@Dy@physx@@UEAAXPEAVPxsSimulationController@3@@Z 00000001800bd810 f i LowLevelDynamics_static_64:DyDynamics.obj
 0001:000bc810       ?setSimulationController@DynamicsTGSContext@Dy@physx@@UEAAXPEAVPxsSimulationController@3@@Z 00000001800bd810 f i LowLevelDynamics_static_64:DyTGSDynamics.obj
 0001:000bc820       ?setupArticulations@DynamicsTGSContext@Dy@physx@@IEAAXAEAUIslandContextStep@23@AEBVPxVec3@3@MAEAI2PEAVPxBaseTask@3@@Z 00000001800bd820 f   LowLevelDynamics_static_64:DyTGSDynamics.obj
 0001:000bcb80       ?setupDescs@DynamicsTGSContext@Dy@physx@@IEAAXAEAUIslandContextStep@23@AEBUSolverIslandObjectsStep@23@AEAVSimpleIslandManager@IG@3@PEAIIAEAVPxsContactManagerOutputIterator@3@@Z 00000001800bdb80 f   LowLevelDynamics_static_64:DyTGSDynamics.obj
 0001:000bcea0       ?solveConcludeConstraintsIteration@DynamicsTGSContext@Dy@physx@@IEAAXQEBUPxSolverConstraintDesc@3@QEBUPxConstraintBatchHeader@3@IPEAUPxTGSSolverBodyTxInertia@3@MAEAUSolverContext@23@@Z 00000001800bdea0 f   LowLevelDynamics_static_64:DyTGSDynamics.obj
 0001:000bcf40       ?solveConstraintsIteration@DynamicsTGSContext@Dy@physx@@IEAAXQEBUPxSolverConstraintDesc@3@QEBUPxConstraintBatchHeader@3@IMQEBUPxTGSSolverBodyTxInertia@3@MMAEAUSolverContext@23@@Z 00000001800bdf40 f   LowLevelDynamics_static_64:DyTGSDynamics.obj
 0001:000bd000       ?solveIsland@DynamicsTGSContext@Dy@physx@@IEAAXAEBUSolverIslandObjectsStep@23@AEBVPxsIslandIndices@3@IAEAVSimpleIslandManager@IG@3@PEAIPEAVPxsMaterialManager@3@AEAVPxsContactManagerOutputIterator@3@PEAVPxBaseTask@3@@Z 00000001800be000 f   LowLevelDynamics_static_64:DyTGSDynamics.obj
 0001:000bd8e0       ?stepArticulations@DynamicsTGSContext@Dy@physx@@IEAAXAEAVThreadContext@23@AEBVPxsIslandIndices@3@MM@Z 00000001800be8e0 f   LowLevelDynamics_static_64:DyTGSDynamics.obj
 0001:000bd980       ?transformInertiaTensor@Cm@physx@@YAXAEBVPxVec3@2@AEBVPxMat33@2@AEAV42@@Z 00000001800be980 f i LowLevelDynamics_static_64:DyTGSDynamics.obj
 0001:000bdb00       ?update@DynamicsTGSContext@Dy@physx@@UEAAXAEAVSimpleIslandManager@IG@3@PEAVPxBaseTask@3@1PEAPEAVPxsContactManager@3@I2IIAEAVPxsContactManagerOutputIterator@3@PEAUPxsContactManagerOutput@3@MAEBVPxVec3@3@I@Z 00000001800beb00 f   LowLevelDynamics_static_64:DyTGSDynamics.obj
 0001:000be480       ?updatePostKinematic@DynamicsTGSContext@Dy@physx@@QEAAXAEAVSimpleIslandManager@IG@3@PEAVPxBaseTask@3@1@Z 00000001800bf480 f   LowLevelDynamics_static_64:DyTGSDynamics.obj
 0001:000be7f0       ?createHardLimit@ArticulationHelper@Dy@physx@@SAXAEBUFsData@23@PEBUArticulationLink@23@IAEAUSolverConstraint1DExt@23@AEBVPxVec3@3@MM@Z 00000001800bf7f0 f   LowLevelDynamics_static_64:DyArticulationHelper.obj
 0001:000bea60       ?createTangentialSpring@ArticulationHelper@Dy@physx@@SAXAEBUFsData@23@PEBUArticulationLink@23@IAEAUSolverConstraint1DExt@23@AEBVPxVec3@3@MMM@Z 00000001800bfa60 f   LowLevelDynamics_static_64:DyArticulationHelper.obj
 0001:000bed10       ?getImpulseResponse@ArticulationHelper@Dy@physx@@SAXAEBUFsData@23@IAEBUSpatialVectorV@Cm@3@AEAU563@@Z 00000001800bfd10 f   LowLevelDynamics_static_64:DyArticulationHelper.obj
 0001:000bf130       ?getImpulseSelfResponse@ArticulationHelper@Dy@physx@@SAXAEBUFsData@23@IAEBUSpatialVectorV@Cm@3@AEAU563@I12@Z 00000001800c0130 f   LowLevelDynamics_static_64:DyArticulationHelper.obj
